
bin/RELEASE/wivos.elf:     file format elf64-littleriscv


Disassembly of section .text:

ffffffff80000000 <arch_init>:
ffffffff80000000:	1141                	addi	sp,sp,-16
ffffffff80000002:	e406                	sd	ra,8(sp)
ffffffff80000004:	e022                	sd	s0,0(sp)
ffffffff80000006:	0800                	addi	s0,sp,16
ffffffff80000008:	00003097          	auipc	ra,0x3
ffffffff8000000c:	a70080e7          	jalr	-1424(ra) # ffffffff80002a78 <kmain>
ffffffff80000010:	a001                	j	ffffffff80000010 <arch_init+0x10>

ffffffff80000012 <arch_post_vmm>:
ffffffff80000012:	1141                	addi	sp,sp,-16
ffffffff80000014:	e406                	sd	ra,8(sp)
ffffffff80000016:	e022                	sd	s0,0(sp)
ffffffff80000018:	0800                	addi	s0,sp,16
ffffffff8000001a:	00001097          	auipc	ra,0x1
ffffffff8000001e:	f86080e7          	jalr	-122(ra) # ffffffff80000fa0 <riscv64_get_boot_dtb>
ffffffff80000022:	00005097          	auipc	ra,0x5
ffffffff80000026:	de0080e7          	jalr	-544(ra) # ffffffff80004e02 <dtb_init>
ffffffff8000002a:	00001097          	auipc	ra,0x1
ffffffff8000002e:	faa080e7          	jalr	-86(ra) # ffffffff80000fd4 <plic_init>
ffffffff80000032:	00000097          	auipc	ra,0x0
ffffffff80000036:	0fc080e7          	jalr	252(ra) # ffffffff8000012e <riscv_cpu_init>
ffffffff8000003a:	60a2                	ld	ra,8(sp)
ffffffff8000003c:	6402                	ld	s0,0(sp)
ffffffff8000003e:	0141                	addi	sp,sp,16
ffffffff80000040:	00001317          	auipc	t1,0x1
ffffffff80000044:	b6030067          	jr	-1184(t1) # ffffffff80000ba0 <arch_interrupt_init>

ffffffff80000048 <arch_debug_printf_function>:
ffffffff80000048:	6d10                	ld	a2,24(a0)
ffffffff8000004a:	c601                	beqz	a2,ffffffff80000052 <arch_debug_printf_function+0xa>
ffffffff8000004c:	6914                	ld	a3,16(a0)
ffffffff8000004e:	02d67763          	bgeu	a2,a3,ffffffff8000007c <arch_debug_printf_function+0x34>
ffffffff80000052:	1141                	addi	sp,sp,-16
ffffffff80000054:	e406                	sd	ra,8(sp)
ffffffff80000056:	e022                	sd	s0,0(sp)
ffffffff80000058:	0800                	addi	s0,sp,16
ffffffff8000005a:	10000637          	lui	a2,0x10000
ffffffff8000005e:	00564683          	lbu	a3,5(a2) # 10000005 <$d.3+0xfff52b7>
ffffffff80000062:	0206f693          	andi	a3,a3,32
ffffffff80000066:	dee5                	beqz	a3,ffffffff8000005e <arch_debug_printf_function+0x16>
ffffffff80000068:	10000637          	lui	a2,0x10000
ffffffff8000006c:	00b60023          	sb	a1,0(a2) # 10000000 <$d.3+0xfff52b2>
ffffffff80000070:	690c                	ld	a1,16(a0)
ffffffff80000072:	0585                	addi	a1,a1,1
ffffffff80000074:	e90c                	sd	a1,16(a0)
ffffffff80000076:	60a2                	ld	ra,8(sp)
ffffffff80000078:	6402                	ld	s0,0(sp)
ffffffff8000007a:	0141                	addi	sp,sp,16
ffffffff8000007c:	8082                	ret

ffffffff8000007e <riscv_cpu_inited>:
ffffffff8000007e:	1141                	addi	sp,sp,-16
ffffffff80000080:	e406                	sd	ra,8(sp)
ffffffff80000082:	e022                	sd	s0,0(sp)
ffffffff80000084:	0800                	addi	s0,sp,16
ffffffff80000086:	8000a537          	lui	a0,0x8000a
ffffffff8000008a:	00052503          	lw	a0,0(a0) # ffffffff8000a000 <cpu_is_inited>
ffffffff8000008e:	60a2                	ld	ra,8(sp)
ffffffff80000090:	6402                	ld	s0,0(sp)
ffffffff80000092:	0141                	addi	sp,sp,16
ffffffff80000094:	8082                	ret

ffffffff80000096 <riscv_smp_entry>:
ffffffff80000096:	1101                	addi	sp,sp,-32
ffffffff80000098:	ec06                	sd	ra,24(sp)
ffffffff8000009a:	e822                	sd	s0,16(sp)
ffffffff8000009c:	e426                	sd	s1,8(sp)
ffffffff8000009e:	1000                	addi	s0,sp,32
ffffffff800000a0:	8000a5b7          	lui	a1,0x8000a
ffffffff800000a4:	0685b583          	ld	a1,104(a1) # ffffffff8000a068 <KernelPageMap>
ffffffff800000a8:	84aa                	mv	s1,a0
ffffffff800000aa:	852e                	mv	a0,a1
ffffffff800000ac:	00002097          	auipc	ra,0x2
ffffffff800000b0:	46c080e7          	jalr	1132(ra) # ffffffff80002518 <vmm_set_pt>
ffffffff800000b4:	0084b803          	ld	a6,8(s1)
ffffffff800000b8:	8000b537          	lui	a0,0x8000b
ffffffff800000bc:	00050513          	mv	a0,a0
ffffffff800000c0:	10000613          	li	a2,256
ffffffff800000c4:	00054683          	lbu	a3,0(a0) # ffffffff8000b000 <CPULocals>
ffffffff800000c8:	00154703          	lbu	a4,1(a0)
ffffffff800000cc:	00254783          	lbu	a5,2(a0)
ffffffff800000d0:	00354483          	lbu	s1,3(a0)
ffffffff800000d4:	0722                	slli	a4,a4,0x8
ffffffff800000d6:	8ed9                	or	a3,a3,a4
ffffffff800000d8:	07c2                	slli	a5,a5,0x10
ffffffff800000da:	04e2                	slli	s1,s1,0x18
ffffffff800000dc:	8fc5                	or	a5,a5,s1
ffffffff800000de:	00454703          	lbu	a4,4(a0)
ffffffff800000e2:	00554483          	lbu	s1,5(a0)
ffffffff800000e6:	8edd                	or	a3,a3,a5
ffffffff800000e8:	00654783          	lbu	a5,6(a0)
ffffffff800000ec:	00754583          	lbu	a1,7(a0)
ffffffff800000f0:	04a2                	slli	s1,s1,0x8
ffffffff800000f2:	8f45                	or	a4,a4,s1
ffffffff800000f4:	07c2                	slli	a5,a5,0x10
ffffffff800000f6:	05e2                	slli	a1,a1,0x18
ffffffff800000f8:	8ddd                	or	a1,a1,a5
ffffffff800000fa:	8dd9                	or	a1,a1,a4
ffffffff800000fc:	1582                	slli	a1,a1,0x20
ffffffff800000fe:	8dd5                	or	a1,a1,a3
ffffffff80000100:	01058763          	beq	a1,a6,ffffffff8000010e <riscv_smp_entry+0x78>
ffffffff80000104:	167d                	addi	a2,a2,-1
ffffffff80000106:	04250513          	addi	a0,a0,66
ffffffff8000010a:	fe4d                	bnez	a2,ffffffff800000c4 <riscv_smp_entry+0x2e>
ffffffff8000010c:	a029                	j	ffffffff80000116 <riscv_smp_entry+0x80>
ffffffff8000010e:	00002097          	auipc	ra,0x2
ffffffff80000112:	74c080e7          	jalr	1868(ra) # ffffffff8000285a <set_cpu_struct>
ffffffff80000116:	00001097          	auipc	ra,0x1
ffffffff8000011a:	b18080e7          	jalr	-1256(ra) # ffffffff80000c2e <arch_interrupt_init_smp>
ffffffff8000011e:	8000a537          	lui	a0,0x8000a
ffffffff80000122:	00850513          	addi	a0,a0,8 # ffffffff8000a008 <ctr>
ffffffff80000126:	4585                	li	a1,1
ffffffff80000128:	06b5302f          	amoadd.d.aqrl	zero,a1,(a0)
ffffffff8000012c:	a001                	j	ffffffff8000012c <riscv_smp_entry+0x96>

ffffffff8000012e <riscv_cpu_init>:
ffffffff8000012e:	7159                	addi	sp,sp,-112
ffffffff80000130:	f486                	sd	ra,104(sp)
ffffffff80000132:	f0a2                	sd	s0,96(sp)
ffffffff80000134:	eca6                	sd	s1,88(sp)
ffffffff80000136:	e8ca                	sd	s2,80(sp)
ffffffff80000138:	e4ce                	sd	s3,72(sp)
ffffffff8000013a:	e0d2                	sd	s4,64(sp)
ffffffff8000013c:	fc56                	sd	s5,56(sp)
ffffffff8000013e:	f85a                	sd	s6,48(sp)
ffffffff80000140:	f45e                	sd	s7,40(sp)
ffffffff80000142:	f062                	sd	s8,32(sp)
ffffffff80000144:	ec66                	sd	s9,24(sp)
ffffffff80000146:	e86a                	sd	s10,16(sp)
ffffffff80000148:	e46e                	sd	s11,8(sp)
ffffffff8000014a:	1880                	addi	s0,sp,112
ffffffff8000014c:	00003097          	auipc	ra,0x3
ffffffff80000150:	a04080e7          	jalr	-1532(ra) # ffffffff80002b50 <limine_get_mp>
ffffffff80000154:	3e050563          	beqz	a0,ffffffff8000053e <riscv_cpu_init+0x410>
ffffffff80000158:	892a                	mv	s2,a0
ffffffff8000015a:	6908                	ld	a0,16(a0)
ffffffff8000015c:	8000aab7          	lui	s5,0x8000a
ffffffff80000160:	018ae583          	lwu	a1,24(s5) # ffffffff8000a018 <cpu_count>
ffffffff80000164:	04200b13          	li	s6,66
ffffffff80000168:	036585b3          	mul	a1,a1,s6
ffffffff8000016c:	8000b637          	lui	a2,0x8000b
ffffffff80000170:	00060c93          	mv	s9,a2
ffffffff80000174:	95e6                	add	a1,a1,s9
ffffffff80000176:	03855613          	srli	a2,a0,0x38
ffffffff8000017a:	00c583a3          	sb	a2,7(a1)
ffffffff8000017e:	03055613          	srli	a2,a0,0x30
ffffffff80000182:	00c58323          	sb	a2,6(a1)
ffffffff80000186:	02855613          	srli	a2,a0,0x28
ffffffff8000018a:	00c582a3          	sb	a2,5(a1)
ffffffff8000018e:	02055613          	srli	a2,a0,0x20
ffffffff80000192:	00c58223          	sb	a2,4(a1)
ffffffff80000196:	01855613          	srli	a2,a0,0x18
ffffffff8000019a:	00c581a3          	sb	a2,3(a1)
ffffffff8000019e:	01055613          	srli	a2,a0,0x10
ffffffff800001a2:	00c58123          	sb	a2,2(a1)
ffffffff800001a6:	00855613          	srli	a2,a0,0x8
ffffffff800001aa:	00c580a3          	sb	a2,1(a1)
ffffffff800001ae:	00a58023          	sb	a0,0(a1)
ffffffff800001b2:	018ae503          	lwu	a0,24(s5)
ffffffff800001b6:	6695                	lui	a3,0x5
ffffffff800001b8:	02d50533          	mul	a0,a0,a3
ffffffff800001bc:	800105b7          	lui	a1,0x80010
ffffffff800001c0:	018ae603          	lwu	a2,24(s5)
ffffffff800001c4:	00058593          	mv	a1,a1
ffffffff800001c8:	f8b43823          	sd	a1,-112(s0)
ffffffff800001cc:	95b6                	add	a1,a1,a3
ffffffff800001ce:	952e                	add	a0,a0,a1
ffffffff800001d0:	036605b3          	mul	a1,a2,s6
ffffffff800001d4:	95e6                	add	a1,a1,s9
ffffffff800001d6:	00a58c23          	sb	a0,24(a1) # ffffffff80010018 <CPUStacks+0x18>
ffffffff800001da:	03855613          	srli	a2,a0,0x38
ffffffff800001de:	00c58fa3          	sb	a2,31(a1)
ffffffff800001e2:	03055613          	srli	a2,a0,0x30
ffffffff800001e6:	00c58f23          	sb	a2,30(a1)
ffffffff800001ea:	02855613          	srli	a2,a0,0x28
ffffffff800001ee:	00c58ea3          	sb	a2,29(a1)
ffffffff800001f2:	02055613          	srli	a2,a0,0x20
ffffffff800001f6:	00c58e23          	sb	a2,28(a1)
ffffffff800001fa:	01855613          	srli	a2,a0,0x18
ffffffff800001fe:	00c58da3          	sb	a2,27(a1)
ffffffff80000202:	01055613          	srli	a2,a0,0x10
ffffffff80000206:	00c58d23          	sb	a2,26(a1)
ffffffff8000020a:	8121                	srli	a0,a0,0x8
ffffffff8000020c:	00a58ca3          	sb	a0,25(a1)
ffffffff80000210:	018ae503          	lwu	a0,24(s5)
ffffffff80000214:	03650533          	mul	a0,a0,s6
ffffffff80000218:	9566                	add	a0,a0,s9
ffffffff8000021a:	020503a3          	sb	zero,39(a0)
ffffffff8000021e:	02050323          	sb	zero,38(a0)
ffffffff80000222:	020502a3          	sb	zero,37(a0)
ffffffff80000226:	02050223          	sb	zero,36(a0)
ffffffff8000022a:	020501a3          	sb	zero,35(a0)
ffffffff8000022e:	02050123          	sb	zero,34(a0)
ffffffff80000232:	020500a3          	sb	zero,33(a0)
ffffffff80000236:	02050023          	sb	zero,32(a0)
ffffffff8000023a:	018ae503          	lwu	a0,24(s5)
ffffffff8000023e:	03650533          	mul	a0,a0,s6
ffffffff80000242:	9566                	add	a0,a0,s9
ffffffff80000244:	0ff00d93          	li	s11,255
ffffffff80000248:	03b507a3          	sb	s11,47(a0)
ffffffff8000024c:	03b50723          	sb	s11,46(a0)
ffffffff80000250:	03b506a3          	sb	s11,45(a0)
ffffffff80000254:	03b50623          	sb	s11,44(a0)
ffffffff80000258:	03b505a3          	sb	s11,43(a0)
ffffffff8000025c:	03b50523          	sb	s11,42(a0)
ffffffff80000260:	03b504a3          	sb	s11,41(a0)
ffffffff80000264:	03b50423          	sb	s11,40(a0)
ffffffff80000268:	018ae503          	lwu	a0,24(s5)
ffffffff8000026c:	03650533          	mul	a0,a0,s6
ffffffff80000270:	9566                	add	a0,a0,s9
ffffffff80000272:	03b50ba3          	sb	s11,55(a0)
ffffffff80000276:	03b50b23          	sb	s11,54(a0)
ffffffff8000027a:	03b50aa3          	sb	s11,53(a0)
ffffffff8000027e:	03b50a23          	sb	s11,52(a0)
ffffffff80000282:	03b509a3          	sb	s11,51(a0)
ffffffff80000286:	03b50923          	sb	s11,50(a0)
ffffffff8000028a:	03b508a3          	sb	s11,49(a0)
ffffffff8000028e:	03b50823          	sb	s11,48(a0)
ffffffff80000292:	018ae503          	lwu	a0,24(s5)
ffffffff80000296:	03650533          	mul	a0,a0,s6
ffffffff8000029a:	9566                	add	a0,a0,s9
ffffffff8000029c:	03b50fa3          	sb	s11,63(a0)
ffffffff800002a0:	03b50f23          	sb	s11,62(a0)
ffffffff800002a4:	03b50ea3          	sb	s11,61(a0)
ffffffff800002a8:	03b50e23          	sb	s11,60(a0)
ffffffff800002ac:	03b50da3          	sb	s11,59(a0)
ffffffff800002b0:	03b50d23          	sb	s11,58(a0)
ffffffff800002b4:	03b50ca3          	sb	s11,57(a0)
ffffffff800002b8:	03b50c23          	sb	s11,56(a0)
ffffffff800002bc:	018ae503          	lwu	a0,24(s5)
ffffffff800002c0:	03650533          	mul	a0,a0,s6
ffffffff800002c4:	9566                	add	a0,a0,s9
ffffffff800002c6:	040500a3          	sb	zero,65(a0)
ffffffff800002ca:	018aa503          	lw	a0,24(s5)
ffffffff800002ce:	0505                	addi	a0,a0,1
ffffffff800002d0:	00aaac23          	sw	a0,24(s5)
ffffffff800002d4:	4505                	li	a0,1
ffffffff800002d6:	04ac80a3          	sb	a0,65(s9)
ffffffff800002da:	8566                	mv	a0,s9
ffffffff800002dc:	00002097          	auipc	ra,0x2
ffffffff800002e0:	57e080e7          	jalr	1406(ra) # ffffffff8000285a <set_cpu_struct>
ffffffff800002e4:	01093583          	ld	a1,16(s2)
ffffffff800002e8:	80008537          	lui	a0,0x80008
ffffffff800002ec:	7e750993          	addi	s3,a0,2023 # ffffffff800087e7 <$d.2+0x46>
ffffffff800002f0:	854e                	mv	a0,s3
ffffffff800002f2:	00007097          	auipc	ra,0x7
ffffffff800002f6:	554080e7          	jalr	1364(ra) # ffffffff80007846 <printf>
ffffffff800002fa:	01893583          	ld	a1,24(s2)
ffffffff800002fe:	20058463          	beqz	a1,ffffffff80000506 <riscv_cpu_init+0x3d8>
ffffffff80000302:	4481                	li	s1,0
ffffffff80000304:	8000a737          	lui	a4,0x8000a
ffffffff80000308:	01073503          	ld	a0,16(a4) # ffffffff8000a010 <cpu_max_hart_id>
ffffffff8000030c:	80008637          	lui	a2,0x80008
ffffffff80000310:	67860a13          	addi	s4,a2,1656 # ffffffff80008678 <$d.1+0x169>
ffffffff80000314:	8000abb7          	lui	s7,0x8000a
ffffffff80000318:	80000637          	lui	a2,0x80000
ffffffff8000031c:	09660c13          	addi	s8,a2,150 # ffffffff80000096 <riscv_smp_entry>
ffffffff80000320:	a021                	j	ffffffff80000328 <riscv_cpu_init+0x1fa>
ffffffff80000322:	0485                	addi	s1,s1,1
ffffffff80000324:	1eb4f163          	bgeu	s1,a1,ffffffff80000506 <riscv_cpu_init+0x3d8>
ffffffff80000328:	02093603          	ld	a2,32(s2)
ffffffff8000032c:	00349693          	slli	a3,s1,0x3
ffffffff80000330:	9636                	add	a2,a2,a3
ffffffff80000332:	00063d03          	ld	s10,0(a2)
ffffffff80000336:	008d3603          	ld	a2,8(s10)
ffffffff8000033a:	00c56763          	bltu	a0,a2,ffffffff80000348 <riscv_cpu_init+0x21a>
ffffffff8000033e:	01093683          	ld	a3,16(s2)
ffffffff80000342:	fed600e3          	beq	a2,a3,ffffffff80000322 <riscv_cpu_init+0x1f4>
ffffffff80000346:	a801                	j	ffffffff80000356 <riscv_cpu_init+0x228>
ffffffff80000348:	00c73823          	sd	a2,16(a4)
ffffffff8000034c:	8532                	mv	a0,a2
ffffffff8000034e:	01093683          	ld	a3,16(s2)
ffffffff80000352:	fcd608e3          	beq	a2,a3,ffffffff80000322 <riscv_cpu_init+0x1f4>
ffffffff80000356:	8552                	mv	a0,s4
ffffffff80000358:	85b2                	mv	a1,a2
ffffffff8000035a:	00007097          	auipc	ra,0x7
ffffffff8000035e:	4ec080e7          	jalr	1260(ra) # ffffffff80007846 <printf>
ffffffff80000362:	008d3503          	ld	a0,8(s10)
ffffffff80000366:	018ae583          	lwu	a1,24(s5)
ffffffff8000036a:	036585b3          	mul	a1,a1,s6
ffffffff8000036e:	95e6                	add	a1,a1,s9
ffffffff80000370:	03855613          	srli	a2,a0,0x38
ffffffff80000374:	00c583a3          	sb	a2,7(a1)
ffffffff80000378:	03055613          	srli	a2,a0,0x30
ffffffff8000037c:	00c58323          	sb	a2,6(a1)
ffffffff80000380:	02855613          	srli	a2,a0,0x28
ffffffff80000384:	00c582a3          	sb	a2,5(a1)
ffffffff80000388:	02055613          	srli	a2,a0,0x20
ffffffff8000038c:	00c58223          	sb	a2,4(a1)
ffffffff80000390:	01855613          	srli	a2,a0,0x18
ffffffff80000394:	00c581a3          	sb	a2,3(a1)
ffffffff80000398:	01055613          	srli	a2,a0,0x10
ffffffff8000039c:	00c58123          	sb	a2,2(a1)
ffffffff800003a0:	00855613          	srli	a2,a0,0x8
ffffffff800003a4:	00c580a3          	sb	a2,1(a1)
ffffffff800003a8:	00a58023          	sb	a0,0(a1)
ffffffff800003ac:	018ae503          	lwu	a0,24(s5)
ffffffff800003b0:	018ae583          	lwu	a1,24(s5)
ffffffff800003b4:	6615                	lui	a2,0x5
ffffffff800003b6:	02c50533          	mul	a0,a0,a2
ffffffff800003ba:	f9043683          	ld	a3,-112(s0)
ffffffff800003be:	9636                	add	a2,a2,a3
ffffffff800003c0:	9532                	add	a0,a0,a2
ffffffff800003c2:	036585b3          	mul	a1,a1,s6
ffffffff800003c6:	95e6                	add	a1,a1,s9
ffffffff800003c8:	00a58c23          	sb	a0,24(a1)
ffffffff800003cc:	01855613          	srli	a2,a0,0x18
ffffffff800003d0:	00c58da3          	sb	a2,27(a1)
ffffffff800003d4:	00855613          	srli	a2,a0,0x8
ffffffff800003d8:	00c58ca3          	sb	a2,25(a1)
ffffffff800003dc:	03055613          	srli	a2,a0,0x30
ffffffff800003e0:	00c58f23          	sb	a2,30(a1)
ffffffff800003e4:	03855613          	srli	a2,a0,0x38
ffffffff800003e8:	00c58fa3          	sb	a2,31(a1)
ffffffff800003ec:	02055613          	srli	a2,a0,0x20
ffffffff800003f0:	00c58e23          	sb	a2,28(a1)
ffffffff800003f4:	02855613          	srli	a2,a0,0x28
ffffffff800003f8:	00c58ea3          	sb	a2,29(a1)
ffffffff800003fc:	8141                	srli	a0,a0,0x10
ffffffff800003fe:	00a58d23          	sb	a0,26(a1)
ffffffff80000402:	018ae503          	lwu	a0,24(s5)
ffffffff80000406:	03650533          	mul	a0,a0,s6
ffffffff8000040a:	9566                	add	a0,a0,s9
ffffffff8000040c:	020501a3          	sb	zero,35(a0)
ffffffff80000410:	02050023          	sb	zero,32(a0)
ffffffff80000414:	020500a3          	sb	zero,33(a0)
ffffffff80000418:	02050323          	sb	zero,38(a0)
ffffffff8000041c:	020503a3          	sb	zero,39(a0)
ffffffff80000420:	02050223          	sb	zero,36(a0)
ffffffff80000424:	020502a3          	sb	zero,37(a0)
ffffffff80000428:	02050123          	sb	zero,34(a0)
ffffffff8000042c:	018ae503          	lwu	a0,24(s5)
ffffffff80000430:	03650533          	mul	a0,a0,s6
ffffffff80000434:	9566                	add	a0,a0,s9
ffffffff80000436:	03b505a3          	sb	s11,43(a0)
ffffffff8000043a:	03b50423          	sb	s11,40(a0)
ffffffff8000043e:	03b504a3          	sb	s11,41(a0)
ffffffff80000442:	03b50723          	sb	s11,46(a0)
ffffffff80000446:	03b507a3          	sb	s11,47(a0)
ffffffff8000044a:	03b50623          	sb	s11,44(a0)
ffffffff8000044e:	03b506a3          	sb	s11,45(a0)
ffffffff80000452:	03b50523          	sb	s11,42(a0)
ffffffff80000456:	018ae503          	lwu	a0,24(s5)
ffffffff8000045a:	03650533          	mul	a0,a0,s6
ffffffff8000045e:	9566                	add	a0,a0,s9
ffffffff80000460:	03b509a3          	sb	s11,51(a0)
ffffffff80000464:	03b50823          	sb	s11,48(a0)
ffffffff80000468:	03b508a3          	sb	s11,49(a0)
ffffffff8000046c:	03b50b23          	sb	s11,54(a0)
ffffffff80000470:	03b50ba3          	sb	s11,55(a0)
ffffffff80000474:	03b50a23          	sb	s11,52(a0)
ffffffff80000478:	03b50aa3          	sb	s11,53(a0)
ffffffff8000047c:	03b50923          	sb	s11,50(a0)
ffffffff80000480:	018ae503          	lwu	a0,24(s5)
ffffffff80000484:	03650533          	mul	a0,a0,s6
ffffffff80000488:	9566                	add	a0,a0,s9
ffffffff8000048a:	03b50da3          	sb	s11,59(a0)
ffffffff8000048e:	03b50c23          	sb	s11,56(a0)
ffffffff80000492:	03b50ca3          	sb	s11,57(a0)
ffffffff80000496:	03b50f23          	sb	s11,62(a0)
ffffffff8000049a:	03b50fa3          	sb	s11,63(a0)
ffffffff8000049e:	03b50e23          	sb	s11,60(a0)
ffffffff800004a2:	03b50ea3          	sb	s11,61(a0)
ffffffff800004a6:	03b50d23          	sb	s11,58(a0)
ffffffff800004aa:	018ae503          	lwu	a0,24(s5)
ffffffff800004ae:	03650533          	mul	a0,a0,s6
ffffffff800004b2:	9566                	add	a0,a0,s9
ffffffff800004b4:	040500a3          	sb	zero,65(a0)
ffffffff800004b8:	018aa503          	lw	a0,24(s5)
ffffffff800004bc:	0505                	addi	a0,a0,1
ffffffff800004be:	00aaac23          	sw	a0,24(s5)
ffffffff800004c2:	0330000f          	fence	rw,rw
ffffffff800004c6:	008bb503          	ld	a0,8(s7) # ffffffff8000a008 <ctr>
ffffffff800004ca:	0230000f          	fence	r,rw
ffffffff800004ce:	0310000f          	fence	rw,w
ffffffff800004d2:	018d3c23          	sd	s8,24(s10)
ffffffff800004d6:	1502                	slli	a0,a0,0x20
ffffffff800004d8:	9101                	srli	a0,a0,0x20
ffffffff800004da:	0330000f          	fence	rw,rw
ffffffff800004de:	008bb583          	ld	a1,8(s7)
ffffffff800004e2:	0230000f          	fence	r,rw
ffffffff800004e6:	fea58ae3          	beq	a1,a0,ffffffff800004da <riscv_cpu_init+0x3ac>
ffffffff800004ea:	008d3583          	ld	a1,8(s10)
ffffffff800004ee:	854e                	mv	a0,s3
ffffffff800004f0:	00007097          	auipc	ra,0x7
ffffffff800004f4:	356080e7          	jalr	854(ra) # ffffffff80007846 <printf>
ffffffff800004f8:	8000a737          	lui	a4,0x8000a
ffffffff800004fc:	01073503          	ld	a0,16(a4) # ffffffff8000a010 <cpu_max_hart_id>
ffffffff80000500:	01893583          	ld	a1,24(s2)
ffffffff80000504:	bd39                	j	ffffffff80000322 <riscv_cpu_init+0x1f4>
ffffffff80000506:	80008537          	lui	a0,0x80008
ffffffff8000050a:	6bf50513          	addi	a0,a0,1727 # ffffffff800086bf <$d.3+0x16>
ffffffff8000050e:	00007097          	auipc	ra,0x7
ffffffff80000512:	338080e7          	jalr	824(ra) # ffffffff80007846 <printf>
ffffffff80000516:	8000a537          	lui	a0,0x8000a
ffffffff8000051a:	4585                	li	a1,1
ffffffff8000051c:	00b52023          	sw	a1,0(a0) # ffffffff8000a000 <cpu_is_inited>
ffffffff80000520:	70a6                	ld	ra,104(sp)
ffffffff80000522:	7406                	ld	s0,96(sp)
ffffffff80000524:	64e6                	ld	s1,88(sp)
ffffffff80000526:	6946                	ld	s2,80(sp)
ffffffff80000528:	69a6                	ld	s3,72(sp)
ffffffff8000052a:	6a06                	ld	s4,64(sp)
ffffffff8000052c:	7ae2                	ld	s5,56(sp)
ffffffff8000052e:	7b42                	ld	s6,48(sp)
ffffffff80000530:	7ba2                	ld	s7,40(sp)
ffffffff80000532:	7c02                	ld	s8,32(sp)
ffffffff80000534:	6ce2                	ld	s9,24(sp)
ffffffff80000536:	6d42                	ld	s10,16(sp)
ffffffff80000538:	6da2                	ld	s11,8(sp)
ffffffff8000053a:	6165                	addi	sp,sp,112
ffffffff8000053c:	8082                	ret
ffffffff8000053e:	80008537          	lui	a0,0x80008
ffffffff80000542:	04450513          	addi	a0,a0,68 # ffffffff80008044 <$d.3>
ffffffff80000546:	00007097          	auipc	ra,0x7
ffffffff8000054a:	300080e7          	jalr	768(ra) # ffffffff80007846 <printf>
ffffffff8000054e:	a001                	j	ffffffff8000054e <riscv_cpu_init+0x420>

ffffffff80000550 <arch_cpu_get_count>:
ffffffff80000550:	1141                	addi	sp,sp,-16
ffffffff80000552:	e406                	sd	ra,8(sp)
ffffffff80000554:	e022                	sd	s0,0(sp)
ffffffff80000556:	0800                	addi	s0,sp,16
ffffffff80000558:	8000a537          	lui	a0,0x8000a
ffffffff8000055c:	01856503          	lwu	a0,24(a0) # ffffffff8000a018 <cpu_count>
ffffffff80000560:	60a2                	ld	ra,8(sp)
ffffffff80000562:	6402                	ld	s0,0(sp)
ffffffff80000564:	0141                	addi	sp,sp,16
ffffffff80000566:	8082                	ret

ffffffff80000568 <arch_cpu_get_maxhartid>:
ffffffff80000568:	1141                	addi	sp,sp,-16
ffffffff8000056a:	e406                	sd	ra,8(sp)
ffffffff8000056c:	e022                	sd	s0,0(sp)
ffffffff8000056e:	0800                	addi	s0,sp,16
ffffffff80000570:	8000a537          	lui	a0,0x8000a
ffffffff80000574:	01053503          	ld	a0,16(a0) # ffffffff8000a010 <cpu_max_hart_id>
ffffffff80000578:	60a2                	ld	ra,8(sp)
ffffffff8000057a:	6402                	ld	s0,0(sp)
ffffffff8000057c:	0141                	addi	sp,sp,16
ffffffff8000057e:	8082                	ret

ffffffff80000580 <arch_cpu_get_index>:
ffffffff80000580:	8000a537          	lui	a0,0x8000a
ffffffff80000584:	00052503          	lw	a0,0(a0) # ffffffff8000a000 <cpu_is_inited>
ffffffff80000588:	c939                	beqz	a0,ffffffff800005de <arch_cpu_get_index+0x5e>
ffffffff8000058a:	1141                	addi	sp,sp,-16
ffffffff8000058c:	e406                	sd	ra,8(sp)
ffffffff8000058e:	e022                	sd	s0,0(sp)
ffffffff80000590:	0800                	addi	s0,sp,16
ffffffff80000592:	00002097          	auipc	ra,0x2
ffffffff80000596:	2c4080e7          	jalr	708(ra) # ffffffff80002856 <get_cpu_struct>
ffffffff8000059a:	00054583          	lbu	a1,0(a0)
ffffffff8000059e:	00154603          	lbu	a2,1(a0)
ffffffff800005a2:	00254683          	lbu	a3,2(a0)
ffffffff800005a6:	00354703          	lbu	a4,3(a0)
ffffffff800005aa:	0622                	slli	a2,a2,0x8
ffffffff800005ac:	8dd1                	or	a1,a1,a2
ffffffff800005ae:	06c2                	slli	a3,a3,0x10
ffffffff800005b0:	0762                	slli	a4,a4,0x18
ffffffff800005b2:	8ed9                	or	a3,a3,a4
ffffffff800005b4:	00454603          	lbu	a2,4(a0)
ffffffff800005b8:	00554703          	lbu	a4,5(a0)
ffffffff800005bc:	8dd5                	or	a1,a1,a3
ffffffff800005be:	00654683          	lbu	a3,6(a0)
ffffffff800005c2:	00754503          	lbu	a0,7(a0)
ffffffff800005c6:	0722                	slli	a4,a4,0x8
ffffffff800005c8:	8e59                	or	a2,a2,a4
ffffffff800005ca:	06c2                	slli	a3,a3,0x10
ffffffff800005cc:	0562                	slli	a0,a0,0x18
ffffffff800005ce:	8d55                	or	a0,a0,a3
ffffffff800005d0:	8d51                	or	a0,a0,a2
ffffffff800005d2:	1502                	slli	a0,a0,0x20
ffffffff800005d4:	8d4d                	or	a0,a0,a1
ffffffff800005d6:	60a2                	ld	ra,8(sp)
ffffffff800005d8:	6402                	ld	s0,0(sp)
ffffffff800005da:	0141                	addi	sp,sp,16
ffffffff800005dc:	8082                	ret
ffffffff800005de:	557d                	li	a0,-1
ffffffff800005e0:	8082                	ret

ffffffff800005e2 <arch_cpu_increment_preempt_counter>:
ffffffff800005e2:	8000a537          	lui	a0,0x8000a
ffffffff800005e6:	00052503          	lw	a0,0(a0) # ffffffff8000a000 <cpu_is_inited>
ffffffff800005ea:	c941                	beqz	a0,ffffffff8000067a <arch_cpu_increment_preempt_counter+0x98>
ffffffff800005ec:	1141                	addi	sp,sp,-16
ffffffff800005ee:	e406                	sd	ra,8(sp)
ffffffff800005f0:	e022                	sd	s0,0(sp)
ffffffff800005f2:	0800                	addi	s0,sp,16
ffffffff800005f4:	00002097          	auipc	ra,0x2
ffffffff800005f8:	262080e7          	jalr	610(ra) # ffffffff80002856 <get_cpu_struct>
ffffffff800005fc:	02054583          	lbu	a1,32(a0)
ffffffff80000600:	02154603          	lbu	a2,33(a0)
ffffffff80000604:	02254683          	lbu	a3,34(a0)
ffffffff80000608:	02354703          	lbu	a4,35(a0)
ffffffff8000060c:	0622                	slli	a2,a2,0x8
ffffffff8000060e:	8dd1                	or	a1,a1,a2
ffffffff80000610:	06c2                	slli	a3,a3,0x10
ffffffff80000612:	0762                	slli	a4,a4,0x18
ffffffff80000614:	8ed9                	or	a3,a3,a4
ffffffff80000616:	02454603          	lbu	a2,36(a0)
ffffffff8000061a:	02554703          	lbu	a4,37(a0)
ffffffff8000061e:	8dd5                	or	a1,a1,a3
ffffffff80000620:	02654683          	lbu	a3,38(a0)
ffffffff80000624:	02754783          	lbu	a5,39(a0)
ffffffff80000628:	0722                	slli	a4,a4,0x8
ffffffff8000062a:	8e59                	or	a2,a2,a4
ffffffff8000062c:	06c2                	slli	a3,a3,0x10
ffffffff8000062e:	07e2                	slli	a5,a5,0x18
ffffffff80000630:	8edd                	or	a3,a3,a5
ffffffff80000632:	8e55                	or	a2,a2,a3
ffffffff80000634:	1602                	slli	a2,a2,0x20
ffffffff80000636:	8dd1                	or	a1,a1,a2
ffffffff80000638:	0585                	addi	a1,a1,1
ffffffff8000063a:	02b50023          	sb	a1,32(a0)
ffffffff8000063e:	0305d613          	srli	a2,a1,0x30
ffffffff80000642:	02c50323          	sb	a2,38(a0)
ffffffff80000646:	0385d613          	srli	a2,a1,0x38
ffffffff8000064a:	02c503a3          	sb	a2,39(a0)
ffffffff8000064e:	0205d613          	srli	a2,a1,0x20
ffffffff80000652:	02c50223          	sb	a2,36(a0)
ffffffff80000656:	0285d613          	srli	a2,a1,0x28
ffffffff8000065a:	02c502a3          	sb	a2,37(a0)
ffffffff8000065e:	0105d613          	srli	a2,a1,0x10
ffffffff80000662:	02c50123          	sb	a2,34(a0)
ffffffff80000666:	0185d613          	srli	a2,a1,0x18
ffffffff8000066a:	02c501a3          	sb	a2,35(a0)
ffffffff8000066e:	81a1                	srli	a1,a1,0x8
ffffffff80000670:	02b500a3          	sb	a1,33(a0)
ffffffff80000674:	60a2                	ld	ra,8(sp)
ffffffff80000676:	6402                	ld	s0,0(sp)
ffffffff80000678:	0141                	addi	sp,sp,16
ffffffff8000067a:	8082                	ret

ffffffff8000067c <arch_cpu_decrement_preempt_counter>:
ffffffff8000067c:	8000a537          	lui	a0,0x8000a
ffffffff80000680:	00052503          	lw	a0,0(a0) # ffffffff8000a000 <cpu_is_inited>
ffffffff80000684:	c941                	beqz	a0,ffffffff80000714 <arch_cpu_decrement_preempt_counter+0x98>
ffffffff80000686:	1141                	addi	sp,sp,-16
ffffffff80000688:	e406                	sd	ra,8(sp)
ffffffff8000068a:	e022                	sd	s0,0(sp)
ffffffff8000068c:	0800                	addi	s0,sp,16
ffffffff8000068e:	00002097          	auipc	ra,0x2
ffffffff80000692:	1c8080e7          	jalr	456(ra) # ffffffff80002856 <get_cpu_struct>
ffffffff80000696:	02054583          	lbu	a1,32(a0)
ffffffff8000069a:	02154603          	lbu	a2,33(a0)
ffffffff8000069e:	02254683          	lbu	a3,34(a0)
ffffffff800006a2:	02354703          	lbu	a4,35(a0)
ffffffff800006a6:	0622                	slli	a2,a2,0x8
ffffffff800006a8:	8dd1                	or	a1,a1,a2
ffffffff800006aa:	06c2                	slli	a3,a3,0x10
ffffffff800006ac:	0762                	slli	a4,a4,0x18
ffffffff800006ae:	8ed9                	or	a3,a3,a4
ffffffff800006b0:	02454603          	lbu	a2,36(a0)
ffffffff800006b4:	02554703          	lbu	a4,37(a0)
ffffffff800006b8:	8dd5                	or	a1,a1,a3
ffffffff800006ba:	02654683          	lbu	a3,38(a0)
ffffffff800006be:	02754783          	lbu	a5,39(a0)
ffffffff800006c2:	0722                	slli	a4,a4,0x8
ffffffff800006c4:	8e59                	or	a2,a2,a4
ffffffff800006c6:	06c2                	slli	a3,a3,0x10
ffffffff800006c8:	07e2                	slli	a5,a5,0x18
ffffffff800006ca:	8edd                	or	a3,a3,a5
ffffffff800006cc:	8e55                	or	a2,a2,a3
ffffffff800006ce:	1602                	slli	a2,a2,0x20
ffffffff800006d0:	8dd1                	or	a1,a1,a2
ffffffff800006d2:	15fd                	addi	a1,a1,-1
ffffffff800006d4:	02b50023          	sb	a1,32(a0)
ffffffff800006d8:	0305d613          	srli	a2,a1,0x30
ffffffff800006dc:	02c50323          	sb	a2,38(a0)
ffffffff800006e0:	0385d613          	srli	a2,a1,0x38
ffffffff800006e4:	02c503a3          	sb	a2,39(a0)
ffffffff800006e8:	0205d613          	srli	a2,a1,0x20
ffffffff800006ec:	02c50223          	sb	a2,36(a0)
ffffffff800006f0:	0285d613          	srli	a2,a1,0x28
ffffffff800006f4:	02c502a3          	sb	a2,37(a0)
ffffffff800006f8:	0105d613          	srli	a2,a1,0x10
ffffffff800006fc:	02c50123          	sb	a2,34(a0)
ffffffff80000700:	0185d613          	srli	a2,a1,0x18
ffffffff80000704:	02c501a3          	sb	a2,35(a0)
ffffffff80000708:	81a1                	srli	a1,a1,0x8
ffffffff8000070a:	02b500a3          	sb	a1,33(a0)
ffffffff8000070e:	60a2                	ld	ra,8(sp)
ffffffff80000710:	6402                	ld	s0,0(sp)
ffffffff80000712:	0141                	addi	sp,sp,16
ffffffff80000714:	8082                	ret

ffffffff80000716 <arch_cpu_get_preempt_counter>:
ffffffff80000716:	8000a537          	lui	a0,0x8000a
ffffffff8000071a:	00052503          	lw	a0,0(a0) # ffffffff8000a000 <cpu_is_inited>
ffffffff8000071e:	c931                	beqz	a0,ffffffff80000772 <arch_cpu_get_preempt_counter+0x5c>
ffffffff80000720:	1141                	addi	sp,sp,-16
ffffffff80000722:	e406                	sd	ra,8(sp)
ffffffff80000724:	e022                	sd	s0,0(sp)
ffffffff80000726:	0800                	addi	s0,sp,16
ffffffff80000728:	00002097          	auipc	ra,0x2
ffffffff8000072c:	12e080e7          	jalr	302(ra) # ffffffff80002856 <get_cpu_struct>
ffffffff80000730:	02054583          	lbu	a1,32(a0)
ffffffff80000734:	02154603          	lbu	a2,33(a0)
ffffffff80000738:	02254683          	lbu	a3,34(a0)
ffffffff8000073c:	02354703          	lbu	a4,35(a0)
ffffffff80000740:	0622                	slli	a2,a2,0x8
ffffffff80000742:	8dd1                	or	a1,a1,a2
ffffffff80000744:	06c2                	slli	a3,a3,0x10
ffffffff80000746:	0762                	slli	a4,a4,0x18
ffffffff80000748:	8ed9                	or	a3,a3,a4
ffffffff8000074a:	02454603          	lbu	a2,36(a0)
ffffffff8000074e:	02554703          	lbu	a4,37(a0)
ffffffff80000752:	8dd5                	or	a1,a1,a3
ffffffff80000754:	02654683          	lbu	a3,38(a0)
ffffffff80000758:	02754503          	lbu	a0,39(a0)
ffffffff8000075c:	0722                	slli	a4,a4,0x8
ffffffff8000075e:	8e59                	or	a2,a2,a4
ffffffff80000760:	06c2                	slli	a3,a3,0x10
ffffffff80000762:	0562                	slli	a0,a0,0x18
ffffffff80000764:	8d55                	or	a0,a0,a3
ffffffff80000766:	8d51                	or	a0,a0,a2
ffffffff80000768:	1502                	slli	a0,a0,0x20
ffffffff8000076a:	8d4d                	or	a0,a0,a1
ffffffff8000076c:	60a2                	ld	ra,8(sp)
ffffffff8000076e:	6402                	ld	s0,0(sp)
ffffffff80000770:	0141                	addi	sp,sp,16
ffffffff80000772:	8082                	ret

ffffffff80000774 <arch_cpu_get_current_pid>:
ffffffff80000774:	8000a537          	lui	a0,0x8000a
ffffffff80000778:	00052503          	lw	a0,0(a0) # ffffffff8000a000 <cpu_is_inited>
ffffffff8000077c:	c939                	beqz	a0,ffffffff800007d2 <arch_cpu_get_current_pid+0x5e>
ffffffff8000077e:	1141                	addi	sp,sp,-16
ffffffff80000780:	e406                	sd	ra,8(sp)
ffffffff80000782:	e022                	sd	s0,0(sp)
ffffffff80000784:	0800                	addi	s0,sp,16
ffffffff80000786:	00002097          	auipc	ra,0x2
ffffffff8000078a:	0d0080e7          	jalr	208(ra) # ffffffff80002856 <get_cpu_struct>
ffffffff8000078e:	02854583          	lbu	a1,40(a0)
ffffffff80000792:	02954603          	lbu	a2,41(a0)
ffffffff80000796:	02a54683          	lbu	a3,42(a0)
ffffffff8000079a:	02b54703          	lbu	a4,43(a0)
ffffffff8000079e:	0622                	slli	a2,a2,0x8
ffffffff800007a0:	8dd1                	or	a1,a1,a2
ffffffff800007a2:	06c2                	slli	a3,a3,0x10
ffffffff800007a4:	0762                	slli	a4,a4,0x18
ffffffff800007a6:	8ed9                	or	a3,a3,a4
ffffffff800007a8:	02c54603          	lbu	a2,44(a0)
ffffffff800007ac:	02d54703          	lbu	a4,45(a0)
ffffffff800007b0:	8dd5                	or	a1,a1,a3
ffffffff800007b2:	02e54683          	lbu	a3,46(a0)
ffffffff800007b6:	02f54503          	lbu	a0,47(a0)
ffffffff800007ba:	0722                	slli	a4,a4,0x8
ffffffff800007bc:	8e59                	or	a2,a2,a4
ffffffff800007be:	06c2                	slli	a3,a3,0x10
ffffffff800007c0:	0562                	slli	a0,a0,0x18
ffffffff800007c2:	8d55                	or	a0,a0,a3
ffffffff800007c4:	8d51                	or	a0,a0,a2
ffffffff800007c6:	1502                	slli	a0,a0,0x20
ffffffff800007c8:	8d4d                	or	a0,a0,a1
ffffffff800007ca:	60a2                	ld	ra,8(sp)
ffffffff800007cc:	6402                	ld	s0,0(sp)
ffffffff800007ce:	0141                	addi	sp,sp,16
ffffffff800007d0:	8082                	ret
ffffffff800007d2:	557d                	li	a0,-1
ffffffff800007d4:	8082                	ret

ffffffff800007d6 <arch_cpu_get_current_tid>:
ffffffff800007d6:	8000a537          	lui	a0,0x8000a
ffffffff800007da:	00052503          	lw	a0,0(a0) # ffffffff8000a000 <cpu_is_inited>
ffffffff800007de:	c939                	beqz	a0,ffffffff80000834 <arch_cpu_get_current_tid+0x5e>
ffffffff800007e0:	1141                	addi	sp,sp,-16
ffffffff800007e2:	e406                	sd	ra,8(sp)
ffffffff800007e4:	e022                	sd	s0,0(sp)
ffffffff800007e6:	0800                	addi	s0,sp,16
ffffffff800007e8:	00002097          	auipc	ra,0x2
ffffffff800007ec:	06e080e7          	jalr	110(ra) # ffffffff80002856 <get_cpu_struct>
ffffffff800007f0:	03054583          	lbu	a1,48(a0)
ffffffff800007f4:	03154603          	lbu	a2,49(a0)
ffffffff800007f8:	03254683          	lbu	a3,50(a0)
ffffffff800007fc:	03354703          	lbu	a4,51(a0)
ffffffff80000800:	0622                	slli	a2,a2,0x8
ffffffff80000802:	8dd1                	or	a1,a1,a2
ffffffff80000804:	06c2                	slli	a3,a3,0x10
ffffffff80000806:	0762                	slli	a4,a4,0x18
ffffffff80000808:	8ed9                	or	a3,a3,a4
ffffffff8000080a:	03454603          	lbu	a2,52(a0)
ffffffff8000080e:	03554703          	lbu	a4,53(a0)
ffffffff80000812:	8dd5                	or	a1,a1,a3
ffffffff80000814:	03654683          	lbu	a3,54(a0)
ffffffff80000818:	03754503          	lbu	a0,55(a0)
ffffffff8000081c:	0722                	slli	a4,a4,0x8
ffffffff8000081e:	8e59                	or	a2,a2,a4
ffffffff80000820:	06c2                	slli	a3,a3,0x10
ffffffff80000822:	0562                	slli	a0,a0,0x18
ffffffff80000824:	8d55                	or	a0,a0,a3
ffffffff80000826:	8d51                	or	a0,a0,a2
ffffffff80000828:	1502                	slli	a0,a0,0x20
ffffffff8000082a:	8d4d                	or	a0,a0,a1
ffffffff8000082c:	60a2                	ld	ra,8(sp)
ffffffff8000082e:	6402                	ld	s0,0(sp)
ffffffff80000830:	0141                	addi	sp,sp,16
ffffffff80000832:	8082                	ret
ffffffff80000834:	557d                	li	a0,-1
ffffffff80000836:	8082                	ret

ffffffff80000838 <arch_cpu_get_current_taskid>:
ffffffff80000838:	8000a537          	lui	a0,0x8000a
ffffffff8000083c:	00052503          	lw	a0,0(a0) # ffffffff8000a000 <cpu_is_inited>
ffffffff80000840:	c939                	beqz	a0,ffffffff80000896 <arch_cpu_get_current_taskid+0x5e>
ffffffff80000842:	1141                	addi	sp,sp,-16
ffffffff80000844:	e406                	sd	ra,8(sp)
ffffffff80000846:	e022                	sd	s0,0(sp)
ffffffff80000848:	0800                	addi	s0,sp,16
ffffffff8000084a:	00002097          	auipc	ra,0x2
ffffffff8000084e:	00c080e7          	jalr	12(ra) # ffffffff80002856 <get_cpu_struct>
ffffffff80000852:	03854583          	lbu	a1,56(a0)
ffffffff80000856:	03954603          	lbu	a2,57(a0)
ffffffff8000085a:	03a54683          	lbu	a3,58(a0)
ffffffff8000085e:	03b54703          	lbu	a4,59(a0)
ffffffff80000862:	0622                	slli	a2,a2,0x8
ffffffff80000864:	8dd1                	or	a1,a1,a2
ffffffff80000866:	06c2                	slli	a3,a3,0x10
ffffffff80000868:	0762                	slli	a4,a4,0x18
ffffffff8000086a:	8ed9                	or	a3,a3,a4
ffffffff8000086c:	03c54603          	lbu	a2,60(a0)
ffffffff80000870:	03d54703          	lbu	a4,61(a0)
ffffffff80000874:	8dd5                	or	a1,a1,a3
ffffffff80000876:	03e54683          	lbu	a3,62(a0)
ffffffff8000087a:	03f54503          	lbu	a0,63(a0)
ffffffff8000087e:	0722                	slli	a4,a4,0x8
ffffffff80000880:	8e59                	or	a2,a2,a4
ffffffff80000882:	06c2                	slli	a3,a3,0x10
ffffffff80000884:	0562                	slli	a0,a0,0x18
ffffffff80000886:	8d55                	or	a0,a0,a3
ffffffff80000888:	8d51                	or	a0,a0,a2
ffffffff8000088a:	1502                	slli	a0,a0,0x20
ffffffff8000088c:	8d4d                	or	a0,a0,a1
ffffffff8000088e:	60a2                	ld	ra,8(sp)
ffffffff80000890:	6402                	ld	s0,0(sp)
ffffffff80000892:	0141                	addi	sp,sp,16
ffffffff80000894:	8082                	ret
ffffffff80000896:	557d                	li	a0,-1
ffffffff80000898:	8082                	ret

ffffffff8000089a <arch_cpu_get_thread_user_stack>:
ffffffff8000089a:	8000a537          	lui	a0,0x8000a
ffffffff8000089e:	00052503          	lw	a0,0(a0) # ffffffff8000a000 <cpu_is_inited>
ffffffff800008a2:	c931                	beqz	a0,ffffffff800008f6 <arch_cpu_get_thread_user_stack+0x5c>
ffffffff800008a4:	1141                	addi	sp,sp,-16
ffffffff800008a6:	e406                	sd	ra,8(sp)
ffffffff800008a8:	e022                	sd	s0,0(sp)
ffffffff800008aa:	0800                	addi	s0,sp,16
ffffffff800008ac:	00002097          	auipc	ra,0x2
ffffffff800008b0:	faa080e7          	jalr	-86(ra) # ffffffff80002856 <get_cpu_struct>
ffffffff800008b4:	00854583          	lbu	a1,8(a0)
ffffffff800008b8:	00954603          	lbu	a2,9(a0)
ffffffff800008bc:	00a54683          	lbu	a3,10(a0)
ffffffff800008c0:	00b54703          	lbu	a4,11(a0)
ffffffff800008c4:	0622                	slli	a2,a2,0x8
ffffffff800008c6:	8dd1                	or	a1,a1,a2
ffffffff800008c8:	06c2                	slli	a3,a3,0x10
ffffffff800008ca:	0762                	slli	a4,a4,0x18
ffffffff800008cc:	8ed9                	or	a3,a3,a4
ffffffff800008ce:	00c54603          	lbu	a2,12(a0)
ffffffff800008d2:	00d54703          	lbu	a4,13(a0)
ffffffff800008d6:	8dd5                	or	a1,a1,a3
ffffffff800008d8:	00e54683          	lbu	a3,14(a0)
ffffffff800008dc:	00f54503          	lbu	a0,15(a0)
ffffffff800008e0:	0722                	slli	a4,a4,0x8
ffffffff800008e2:	8e59                	or	a2,a2,a4
ffffffff800008e4:	06c2                	slli	a3,a3,0x10
ffffffff800008e6:	0562                	slli	a0,a0,0x18
ffffffff800008e8:	8d55                	or	a0,a0,a3
ffffffff800008ea:	8d51                	or	a0,a0,a2
ffffffff800008ec:	1502                	slli	a0,a0,0x20
ffffffff800008ee:	8d4d                	or	a0,a0,a1
ffffffff800008f0:	60a2                	ld	ra,8(sp)
ffffffff800008f2:	6402                	ld	s0,0(sp)
ffffffff800008f4:	0141                	addi	sp,sp,16
ffffffff800008f6:	8082                	ret

ffffffff800008f8 <arch_cpu_get_thread_kernel_stack>:
ffffffff800008f8:	8000a537          	lui	a0,0x8000a
ffffffff800008fc:	00052503          	lw	a0,0(a0) # ffffffff8000a000 <cpu_is_inited>
ffffffff80000900:	c931                	beqz	a0,ffffffff80000954 <arch_cpu_get_thread_kernel_stack+0x5c>
ffffffff80000902:	1141                	addi	sp,sp,-16
ffffffff80000904:	e406                	sd	ra,8(sp)
ffffffff80000906:	e022                	sd	s0,0(sp)
ffffffff80000908:	0800                	addi	s0,sp,16
ffffffff8000090a:	00002097          	auipc	ra,0x2
ffffffff8000090e:	f4c080e7          	jalr	-180(ra) # ffffffff80002856 <get_cpu_struct>
ffffffff80000912:	01054583          	lbu	a1,16(a0)
ffffffff80000916:	01154603          	lbu	a2,17(a0)
ffffffff8000091a:	01254683          	lbu	a3,18(a0)
ffffffff8000091e:	01354703          	lbu	a4,19(a0)
ffffffff80000922:	0622                	slli	a2,a2,0x8
ffffffff80000924:	8dd1                	or	a1,a1,a2
ffffffff80000926:	06c2                	slli	a3,a3,0x10
ffffffff80000928:	0762                	slli	a4,a4,0x18
ffffffff8000092a:	8ed9                	or	a3,a3,a4
ffffffff8000092c:	01454603          	lbu	a2,20(a0)
ffffffff80000930:	01554703          	lbu	a4,21(a0)
ffffffff80000934:	8dd5                	or	a1,a1,a3
ffffffff80000936:	01654683          	lbu	a3,22(a0)
ffffffff8000093a:	01754503          	lbu	a0,23(a0)
ffffffff8000093e:	0722                	slli	a4,a4,0x8
ffffffff80000940:	8e59                	or	a2,a2,a4
ffffffff80000942:	06c2                	slli	a3,a3,0x10
ffffffff80000944:	0562                	slli	a0,a0,0x18
ffffffff80000946:	8d55                	or	a0,a0,a3
ffffffff80000948:	8d51                	or	a0,a0,a2
ffffffff8000094a:	1502                	slli	a0,a0,0x20
ffffffff8000094c:	8d4d                	or	a0,a0,a1
ffffffff8000094e:	60a2                	ld	ra,8(sp)
ffffffff80000950:	6402                	ld	s0,0(sp)
ffffffff80000952:	0141                	addi	sp,sp,16
ffffffff80000954:	8082                	ret

ffffffff80000956 <arch_cpu_set_current_pid>:
ffffffff80000956:	8000a5b7          	lui	a1,0x8000a
ffffffff8000095a:	0005a583          	lw	a1,0(a1) # ffffffff8000a000 <cpu_is_inited>
ffffffff8000095e:	cda9                	beqz	a1,ffffffff800009b8 <arch_cpu_set_current_pid+0x62>
ffffffff80000960:	1101                	addi	sp,sp,-32
ffffffff80000962:	ec06                	sd	ra,24(sp)
ffffffff80000964:	e822                	sd	s0,16(sp)
ffffffff80000966:	e426                	sd	s1,8(sp)
ffffffff80000968:	1000                	addi	s0,sp,32
ffffffff8000096a:	84aa                	mv	s1,a0
ffffffff8000096c:	00002097          	auipc	ra,0x2
ffffffff80000970:	eea080e7          	jalr	-278(ra) # ffffffff80002856 <get_cpu_struct>
ffffffff80000974:	0384d593          	srli	a1,s1,0x38
ffffffff80000978:	02b507a3          	sb	a1,47(a0)
ffffffff8000097c:	0304d593          	srli	a1,s1,0x30
ffffffff80000980:	02b50723          	sb	a1,46(a0)
ffffffff80000984:	0284d593          	srli	a1,s1,0x28
ffffffff80000988:	02b506a3          	sb	a1,45(a0)
ffffffff8000098c:	0204d593          	srli	a1,s1,0x20
ffffffff80000990:	02b50623          	sb	a1,44(a0)
ffffffff80000994:	0184d593          	srli	a1,s1,0x18
ffffffff80000998:	02b505a3          	sb	a1,43(a0)
ffffffff8000099c:	0104d593          	srli	a1,s1,0x10
ffffffff800009a0:	02b50523          	sb	a1,42(a0)
ffffffff800009a4:	0084d593          	srli	a1,s1,0x8
ffffffff800009a8:	02b504a3          	sb	a1,41(a0)
ffffffff800009ac:	02950423          	sb	s1,40(a0)
ffffffff800009b0:	60e2                	ld	ra,24(sp)
ffffffff800009b2:	6442                	ld	s0,16(sp)
ffffffff800009b4:	64a2                	ld	s1,8(sp)
ffffffff800009b6:	6105                	addi	sp,sp,32
ffffffff800009b8:	8082                	ret

ffffffff800009ba <arch_cpu_set_current_tid>:
ffffffff800009ba:	8000a5b7          	lui	a1,0x8000a
ffffffff800009be:	0005a583          	lw	a1,0(a1) # ffffffff8000a000 <cpu_is_inited>
ffffffff800009c2:	cda9                	beqz	a1,ffffffff80000a1c <arch_cpu_set_current_tid+0x62>
ffffffff800009c4:	1101                	addi	sp,sp,-32
ffffffff800009c6:	ec06                	sd	ra,24(sp)
ffffffff800009c8:	e822                	sd	s0,16(sp)
ffffffff800009ca:	e426                	sd	s1,8(sp)
ffffffff800009cc:	1000                	addi	s0,sp,32
ffffffff800009ce:	84aa                	mv	s1,a0
ffffffff800009d0:	00002097          	auipc	ra,0x2
ffffffff800009d4:	e86080e7          	jalr	-378(ra) # ffffffff80002856 <get_cpu_struct>
ffffffff800009d8:	0384d593          	srli	a1,s1,0x38
ffffffff800009dc:	02b50ba3          	sb	a1,55(a0)
ffffffff800009e0:	0304d593          	srli	a1,s1,0x30
ffffffff800009e4:	02b50b23          	sb	a1,54(a0)
ffffffff800009e8:	0284d593          	srli	a1,s1,0x28
ffffffff800009ec:	02b50aa3          	sb	a1,53(a0)
ffffffff800009f0:	0204d593          	srli	a1,s1,0x20
ffffffff800009f4:	02b50a23          	sb	a1,52(a0)
ffffffff800009f8:	0184d593          	srli	a1,s1,0x18
ffffffff800009fc:	02b509a3          	sb	a1,51(a0)
ffffffff80000a00:	0104d593          	srli	a1,s1,0x10
ffffffff80000a04:	02b50923          	sb	a1,50(a0)
ffffffff80000a08:	0084d593          	srli	a1,s1,0x8
ffffffff80000a0c:	02b508a3          	sb	a1,49(a0)
ffffffff80000a10:	02950823          	sb	s1,48(a0)
ffffffff80000a14:	60e2                	ld	ra,24(sp)
ffffffff80000a16:	6442                	ld	s0,16(sp)
ffffffff80000a18:	64a2                	ld	s1,8(sp)
ffffffff80000a1a:	6105                	addi	sp,sp,32
ffffffff80000a1c:	8082                	ret

ffffffff80000a1e <arch_cpu_set_current_taskid>:
ffffffff80000a1e:	8000a5b7          	lui	a1,0x8000a
ffffffff80000a22:	0005a583          	lw	a1,0(a1) # ffffffff8000a000 <cpu_is_inited>
ffffffff80000a26:	cda9                	beqz	a1,ffffffff80000a80 <arch_cpu_set_current_taskid+0x62>
ffffffff80000a28:	1101                	addi	sp,sp,-32
ffffffff80000a2a:	ec06                	sd	ra,24(sp)
ffffffff80000a2c:	e822                	sd	s0,16(sp)
ffffffff80000a2e:	e426                	sd	s1,8(sp)
ffffffff80000a30:	1000                	addi	s0,sp,32
ffffffff80000a32:	84aa                	mv	s1,a0
ffffffff80000a34:	00002097          	auipc	ra,0x2
ffffffff80000a38:	e22080e7          	jalr	-478(ra) # ffffffff80002856 <get_cpu_struct>
ffffffff80000a3c:	0384d593          	srli	a1,s1,0x38
ffffffff80000a40:	02b50fa3          	sb	a1,63(a0)
ffffffff80000a44:	0304d593          	srli	a1,s1,0x30
ffffffff80000a48:	02b50f23          	sb	a1,62(a0)
ffffffff80000a4c:	0284d593          	srli	a1,s1,0x28
ffffffff80000a50:	02b50ea3          	sb	a1,61(a0)
ffffffff80000a54:	0204d593          	srli	a1,s1,0x20
ffffffff80000a58:	02b50e23          	sb	a1,60(a0)
ffffffff80000a5c:	0184d593          	srli	a1,s1,0x18
ffffffff80000a60:	02b50da3          	sb	a1,59(a0)
ffffffff80000a64:	0104d593          	srli	a1,s1,0x10
ffffffff80000a68:	02b50d23          	sb	a1,58(a0)
ffffffff80000a6c:	0084d593          	srli	a1,s1,0x8
ffffffff80000a70:	02b50ca3          	sb	a1,57(a0)
ffffffff80000a74:	02950c23          	sb	s1,56(a0)
ffffffff80000a78:	60e2                	ld	ra,24(sp)
ffffffff80000a7a:	6442                	ld	s0,16(sp)
ffffffff80000a7c:	64a2                	ld	s1,8(sp)
ffffffff80000a7e:	6105                	addi	sp,sp,32
ffffffff80000a80:	8082                	ret

ffffffff80000a82 <arch_cpu_set_thread_user_stack>:
ffffffff80000a82:	8000a5b7          	lui	a1,0x8000a
ffffffff80000a86:	0005a583          	lw	a1,0(a1) # ffffffff8000a000 <cpu_is_inited>
ffffffff80000a8a:	cda9                	beqz	a1,ffffffff80000ae4 <arch_cpu_set_thread_user_stack+0x62>
ffffffff80000a8c:	1101                	addi	sp,sp,-32
ffffffff80000a8e:	ec06                	sd	ra,24(sp)
ffffffff80000a90:	e822                	sd	s0,16(sp)
ffffffff80000a92:	e426                	sd	s1,8(sp)
ffffffff80000a94:	1000                	addi	s0,sp,32
ffffffff80000a96:	84aa                	mv	s1,a0
ffffffff80000a98:	00002097          	auipc	ra,0x2
ffffffff80000a9c:	dbe080e7          	jalr	-578(ra) # ffffffff80002856 <get_cpu_struct>
ffffffff80000aa0:	0384d593          	srli	a1,s1,0x38
ffffffff80000aa4:	00b507a3          	sb	a1,15(a0)
ffffffff80000aa8:	0304d593          	srli	a1,s1,0x30
ffffffff80000aac:	00b50723          	sb	a1,14(a0)
ffffffff80000ab0:	0284d593          	srli	a1,s1,0x28
ffffffff80000ab4:	00b506a3          	sb	a1,13(a0)
ffffffff80000ab8:	0204d593          	srli	a1,s1,0x20
ffffffff80000abc:	00b50623          	sb	a1,12(a0)
ffffffff80000ac0:	0184d593          	srli	a1,s1,0x18
ffffffff80000ac4:	00b505a3          	sb	a1,11(a0)
ffffffff80000ac8:	0104d593          	srli	a1,s1,0x10
ffffffff80000acc:	00b50523          	sb	a1,10(a0)
ffffffff80000ad0:	0084d593          	srli	a1,s1,0x8
ffffffff80000ad4:	00b504a3          	sb	a1,9(a0)
ffffffff80000ad8:	00950423          	sb	s1,8(a0)
ffffffff80000adc:	60e2                	ld	ra,24(sp)
ffffffff80000ade:	6442                	ld	s0,16(sp)
ffffffff80000ae0:	64a2                	ld	s1,8(sp)
ffffffff80000ae2:	6105                	addi	sp,sp,32
ffffffff80000ae4:	8082                	ret

ffffffff80000ae6 <arch_cpu_set_thread_kernel_stack>:
ffffffff80000ae6:	8000a5b7          	lui	a1,0x8000a
ffffffff80000aea:	0005a583          	lw	a1,0(a1) # ffffffff8000a000 <cpu_is_inited>
ffffffff80000aee:	cda9                	beqz	a1,ffffffff80000b48 <arch_cpu_set_thread_kernel_stack+0x62>
ffffffff80000af0:	1101                	addi	sp,sp,-32
ffffffff80000af2:	ec06                	sd	ra,24(sp)
ffffffff80000af4:	e822                	sd	s0,16(sp)
ffffffff80000af6:	e426                	sd	s1,8(sp)
ffffffff80000af8:	1000                	addi	s0,sp,32
ffffffff80000afa:	84aa                	mv	s1,a0
ffffffff80000afc:	00002097          	auipc	ra,0x2
ffffffff80000b00:	d5a080e7          	jalr	-678(ra) # ffffffff80002856 <get_cpu_struct>
ffffffff80000b04:	0384d593          	srli	a1,s1,0x38
ffffffff80000b08:	00b50ba3          	sb	a1,23(a0)
ffffffff80000b0c:	0304d593          	srli	a1,s1,0x30
ffffffff80000b10:	00b50b23          	sb	a1,22(a0)
ffffffff80000b14:	0284d593          	srli	a1,s1,0x28
ffffffff80000b18:	00b50aa3          	sb	a1,21(a0)
ffffffff80000b1c:	0204d593          	srli	a1,s1,0x20
ffffffff80000b20:	00b50a23          	sb	a1,20(a0)
ffffffff80000b24:	0184d593          	srli	a1,s1,0x18
ffffffff80000b28:	00b509a3          	sb	a1,19(a0)
ffffffff80000b2c:	0104d593          	srli	a1,s1,0x10
ffffffff80000b30:	00b50923          	sb	a1,18(a0)
ffffffff80000b34:	0084d593          	srli	a1,s1,0x8
ffffffff80000b38:	00b508a3          	sb	a1,17(a0)
ffffffff80000b3c:	00950823          	sb	s1,16(a0)
ffffffff80000b40:	60e2                	ld	ra,24(sp)
ffffffff80000b42:	6442                	ld	s0,16(sp)
ffffffff80000b44:	64a2                	ld	s1,8(sp)
ffffffff80000b46:	6105                	addi	sp,sp,32
ffffffff80000b48:	8082                	ret

ffffffff80000b4a <arch_enable_interrupts>:
ffffffff80000b4a:	1141                	addi	sp,sp,-16
ffffffff80000b4c:	e406                	sd	ra,8(sp)
ffffffff80000b4e:	e022                	sd	s0,0(sp)
ffffffff80000b50:	0800                	addi	s0,sp,16
ffffffff80000b52:	10002573          	.insn	4, 0x10002573
ffffffff80000b56:	00256513          	ori	a0,a0,2
ffffffff80000b5a:	10051573          	.insn	4, 0x10051573
ffffffff80000b5e:	60a2                	ld	ra,8(sp)
ffffffff80000b60:	6402                	ld	s0,0(sp)
ffffffff80000b62:	0141                	addi	sp,sp,16
ffffffff80000b64:	8082                	ret

ffffffff80000b66 <arch_disable_interrupts>:
ffffffff80000b66:	1141                	addi	sp,sp,-16
ffffffff80000b68:	e406                	sd	ra,8(sp)
ffffffff80000b6a:	e022                	sd	s0,0(sp)
ffffffff80000b6c:	0800                	addi	s0,sp,16
ffffffff80000b6e:	10002573          	.insn	4, 0x10002573
ffffffff80000b72:	100025f3          	.insn	4, 0x100025f3
ffffffff80000b76:	99f5                	andi	a1,a1,-3
ffffffff80000b78:	157a                	slli	a0,a0,0x3e
ffffffff80000b7a:	917d                	srli	a0,a0,0x3f
ffffffff80000b7c:	100595f3          	.insn	4, 0x100595f3
ffffffff80000b80:	60a2                	ld	ra,8(sp)
ffffffff80000b82:	6402                	ld	s0,0(sp)
ffffffff80000b84:	0141                	addi	sp,sp,16
ffffffff80000b86:	8082                	ret

ffffffff80000b88 <arch_interrupts_enabled>:
ffffffff80000b88:	1141                	addi	sp,sp,-16
ffffffff80000b8a:	e406                	sd	ra,8(sp)
ffffffff80000b8c:	e022                	sd	s0,0(sp)
ffffffff80000b8e:	0800                	addi	s0,sp,16
ffffffff80000b90:	10002573          	.insn	4, 0x10002573
ffffffff80000b94:	157a                	slli	a0,a0,0x3e
ffffffff80000b96:	917d                	srli	a0,a0,0x3f
ffffffff80000b98:	60a2                	ld	ra,8(sp)
ffffffff80000b9a:	6402                	ld	s0,0(sp)
ffffffff80000b9c:	0141                	addi	sp,sp,16
ffffffff80000b9e:	8082                	ret

ffffffff80000ba0 <arch_interrupt_init>:
ffffffff80000ba0:	1101                	addi	sp,sp,-32
ffffffff80000ba2:	ec06                	sd	ra,24(sp)
ffffffff80000ba4:	e822                	sd	s0,16(sp)
ffffffff80000ba6:	e426                	sd	s1,8(sp)
ffffffff80000ba8:	e04a                	sd	s2,0(sp)
ffffffff80000baa:	1000                	addi	s0,sp,32
ffffffff80000bac:	4901                	li	s2,0
ffffffff80000bae:	10002573          	.insn	4, 0x10002573
ffffffff80000bb2:	10002573          	.insn	4, 0x10002573
ffffffff80000bb6:	9975                	andi	a0,a0,-3
ffffffff80000bb8:	10051573          	.insn	4, 0x10051573
ffffffff80000bbc:	14091573          	.insn	4, 0x14091573
ffffffff80000bc0:	80003537          	lui	a0,0x80003
ffffffff80000bc4:	88c50513          	addi	a0,a0,-1908 # ffffffff8000288c <riscv_isr>
ffffffff80000bc8:	10551573          	.insn	4, 0x10551573
ffffffff80000bcc:	80008537          	lui	a0,0x80008
ffffffff80000bd0:	3f050513          	addi	a0,a0,1008 # ffffffff800083f0 <$d.3>
ffffffff80000bd4:	00007097          	auipc	ra,0x7
ffffffff80000bd8:	c72080e7          	jalr	-910(ra) # ffffffff80007846 <printf>
ffffffff80000bdc:	10002573          	.insn	4, 0x10002573
ffffffff80000be0:	00256513          	ori	a0,a0,2
ffffffff80000be4:	10051573          	.insn	4, 0x10051573
ffffffff80000be8:	54495537          	lui	a0,0x54495
ffffffff80000bec:	d455049b          	addiw	s1,a0,-699 # 54494d45 <$d.3+0x54489ff7>
ffffffff80000bf0:	567d                	li	a2,-1
ffffffff80000bf2:	8526                	mv	a0,s1
ffffffff80000bf4:	4581                	li	a1,0
ffffffff80000bf6:	00002097          	auipc	ra,0x2
ffffffff80000bfa:	c7a080e7          	jalr	-902(ra) # ffffffff80002870 <riscv_sbicall>
ffffffff80000bfe:	10402573          	.insn	4, 0x10402573
ffffffff80000c02:	02256513          	ori	a0,a0,34
ffffffff80000c06:	10451573          	.insn	4, 0x10451573
ffffffff80000c0a:	8000a537          	lui	a0,0x8000a
ffffffff80000c0e:	6589                	lui	a1,0x2
ffffffff80000c10:	7105861b          	addiw	a2,a1,1808 # 2710 <$d.2+0x35f>
ffffffff80000c14:	02c53023          	sd	a2,32(a0) # ffffffff8000a020 <last_timer_event>
ffffffff80000c18:	8526                	mv	a0,s1
ffffffff80000c1a:	4581                	li	a1,0
ffffffff80000c1c:	60e2                	ld	ra,24(sp)
ffffffff80000c1e:	6442                	ld	s0,16(sp)
ffffffff80000c20:	64a2                	ld	s1,8(sp)
ffffffff80000c22:	6902                	ld	s2,0(sp)
ffffffff80000c24:	6105                	addi	sp,sp,32
ffffffff80000c26:	00002317          	auipc	t1,0x2
ffffffff80000c2a:	c4a30067          	jr	-950(t1) # ffffffff80002870 <riscv_sbicall>

ffffffff80000c2e <arch_interrupt_init_smp>:
ffffffff80000c2e:	1141                	addi	sp,sp,-16
ffffffff80000c30:	e406                	sd	ra,8(sp)
ffffffff80000c32:	e022                	sd	s0,0(sp)
ffffffff80000c34:	0800                	addi	s0,sp,16
ffffffff80000c36:	4501                	li	a0,0
ffffffff80000c38:	100025f3          	.insn	4, 0x100025f3
ffffffff80000c3c:	100025f3          	.insn	4, 0x100025f3
ffffffff80000c40:	99f5                	andi	a1,a1,-3
ffffffff80000c42:	100595f3          	.insn	4, 0x100595f3
ffffffff80000c46:	14051573          	.insn	4, 0x14051573
ffffffff80000c4a:	80003537          	lui	a0,0x80003
ffffffff80000c4e:	88c50513          	addi	a0,a0,-1908 # ffffffff8000288c <riscv_isr>
ffffffff80000c52:	10551573          	.insn	4, 0x10551573
ffffffff80000c56:	10402573          	.insn	4, 0x10402573
ffffffff80000c5a:	00256513          	ori	a0,a0,2
ffffffff80000c5e:	10451573          	.insn	4, 0x10451573
ffffffff80000c62:	10002573          	.insn	4, 0x10002573
ffffffff80000c66:	00256513          	ori	a0,a0,2
ffffffff80000c6a:	10051573          	.insn	4, 0x10051573
ffffffff80000c6e:	60a2                	ld	ra,8(sp)
ffffffff80000c70:	6402                	ld	s0,0(sp)
ffffffff80000c72:	0141                	addi	sp,sp,16
ffffffff80000c74:	8082                	ret

ffffffff80000c76 <riscv_handle_trap>:
ffffffff80000c76:	711d                	addi	sp,sp,-96
ffffffff80000c78:	ec86                	sd	ra,88(sp)
ffffffff80000c7a:	e8a2                	sd	s0,80(sp)
ffffffff80000c7c:	e4a6                	sd	s1,72(sp)
ffffffff80000c7e:	e0ca                	sd	s2,64(sp)
ffffffff80000c80:	fc4e                	sd	s3,56(sp)
ffffffff80000c82:	f852                	sd	s4,48(sp)
ffffffff80000c84:	f456                	sd	s5,40(sp)
ffffffff80000c86:	f05a                	sd	s6,32(sp)
ffffffff80000c88:	ec5e                	sd	s7,24(sp)
ffffffff80000c8a:	e862                	sd	s8,16(sp)
ffffffff80000c8c:	e466                	sd	s9,8(sp)
ffffffff80000c8e:	1080                	addi	s0,sp,96
ffffffff80000c90:	8a2a                	mv	s4,a0
ffffffff80000c92:	10154503          	lbu	a0,257(a0)
ffffffff80000c96:	100a4583          	lbu	a1,256(s4)
ffffffff80000c9a:	102a4603          	lbu	a2,258(s4)
ffffffff80000c9e:	103a4683          	lbu	a3,259(s4)
ffffffff80000ca2:	0522                	slli	a0,a0,0x8
ffffffff80000ca4:	8d4d                	or	a0,a0,a1
ffffffff80000ca6:	0642                	slli	a2,a2,0x10
ffffffff80000ca8:	06e2                	slli	a3,a3,0x18
ffffffff80000caa:	8e55                	or	a2,a2,a3
ffffffff80000cac:	8d51                	or	a0,a0,a2
ffffffff80000cae:	105a4583          	lbu	a1,261(s4)
ffffffff80000cb2:	104a4603          	lbu	a2,260(s4)
ffffffff80000cb6:	106a4683          	lbu	a3,262(s4)
ffffffff80000cba:	107a4703          	lbu	a4,263(s4)
ffffffff80000cbe:	05a2                	slli	a1,a1,0x8
ffffffff80000cc0:	8dd1                	or	a1,a1,a2
ffffffff80000cc2:	06c2                	slli	a3,a3,0x10
ffffffff80000cc4:	0762                	slli	a4,a4,0x18
ffffffff80000cc6:	8ed9                	or	a3,a3,a4
ffffffff80000cc8:	8dd5                	or	a1,a1,a3
ffffffff80000cca:	1582                	slli	a1,a1,0x20
ffffffff80000ccc:	00a5e6b3          	or	a3,a1,a0
ffffffff80000cd0:	0a06c463          	bltz	a3,ffffffff80000d78 <.LBB5_3+0x8a>
ffffffff80000cd4:	fff68513          	addi	a0,a3,-1 # 4fff <$d.13+0x3d2>
ffffffff80000cd8:	45b9                	li	a1,14
ffffffff80000cda:	1ea5e763          	bltu	a1,a0,ffffffff80000ec8 <.LBB5_19>
ffffffff80000cde:	050a                	slli	a0,a0,0x2
ffffffff80000ce0:	800095b7          	lui	a1,0x80009
ffffffff80000ce4:	83858593          	addi	a1,a1,-1992 # ffffffff80008838 <$d.2>
ffffffff80000ce8:	952e                	add	a0,a0,a1
ffffffff80000cea:	4108                	lw	a0,0(a0)
ffffffff80000cec:	8502                	jr	a0

ffffffff80000cee <.LBB5_3>:
ffffffff80000cee:	0f9a4503          	lbu	a0,249(s4)
ffffffff80000cf2:	0f8a4583          	lbu	a1,248(s4)
ffffffff80000cf6:	0faa4603          	lbu	a2,250(s4)
ffffffff80000cfa:	0fba4703          	lbu	a4,251(s4)
ffffffff80000cfe:	0522                	slli	a0,a0,0x8
ffffffff80000d00:	8d4d                	or	a0,a0,a1
ffffffff80000d02:	0642                	slli	a2,a2,0x10
ffffffff80000d04:	0762                	slli	a4,a4,0x18
ffffffff80000d06:	8e59                	or	a2,a2,a4
ffffffff80000d08:	8d51                	or	a0,a0,a2
ffffffff80000d0a:	0fda4583          	lbu	a1,253(s4)
ffffffff80000d0e:	0fca4603          	lbu	a2,252(s4)
ffffffff80000d12:	0fea4703          	lbu	a4,254(s4)
ffffffff80000d16:	0ffa4783          	lbu	a5,255(s4)
ffffffff80000d1a:	05a2                	slli	a1,a1,0x8
ffffffff80000d1c:	8dd1                	or	a1,a1,a2
ffffffff80000d1e:	0742                	slli	a4,a4,0x10
ffffffff80000d20:	07e2                	slli	a5,a5,0x18
ffffffff80000d22:	8f5d                	or	a4,a4,a5
ffffffff80000d24:	8dd9                	or	a1,a1,a4
ffffffff80000d26:	1582                	slli	a1,a1,0x20
ffffffff80000d28:	8dc9                	or	a1,a1,a0
ffffffff80000d2a:	109a4503          	lbu	a0,265(s4)
ffffffff80000d2e:	108a4603          	lbu	a2,264(s4)
ffffffff80000d32:	10aa4703          	lbu	a4,266(s4)
ffffffff80000d36:	10ba4783          	lbu	a5,267(s4)
ffffffff80000d3a:	0522                	slli	a0,a0,0x8
ffffffff80000d3c:	8d51                	or	a0,a0,a2
ffffffff80000d3e:	0742                	slli	a4,a4,0x10
ffffffff80000d40:	07e2                	slli	a5,a5,0x18
ffffffff80000d42:	8f5d                	or	a4,a4,a5
ffffffff80000d44:	8d59                	or	a0,a0,a4
ffffffff80000d46:	10da4603          	lbu	a2,269(s4)
ffffffff80000d4a:	10ca4703          	lbu	a4,268(s4)
ffffffff80000d4e:	10ea4783          	lbu	a5,270(s4)
ffffffff80000d52:	10fa4483          	lbu	s1,271(s4)
ffffffff80000d56:	0622                	slli	a2,a2,0x8
ffffffff80000d58:	8e59                	or	a2,a2,a4
ffffffff80000d5a:	07c2                	slli	a5,a5,0x10
ffffffff80000d5c:	04e2                	slli	s1,s1,0x18
ffffffff80000d5e:	8fc5                	or	a5,a5,s1
ffffffff80000d60:	8e5d                	or	a2,a2,a5
ffffffff80000d62:	1602                	slli	a2,a2,0x20
ffffffff80000d64:	8e49                	or	a2,a2,a0
ffffffff80000d66:	80008537          	lui	a0,0x80008
ffffffff80000d6a:	0e850513          	addi	a0,a0,232 # ffffffff800080e8 <$d.3+0xa4>
ffffffff80000d6e:	00007097          	auipc	ra,0x7
ffffffff80000d72:	ad8080e7          	jalr	-1320(ra) # ffffffff80007846 <printf>
ffffffff80000d76:	a0e5                	j	ffffffff80000e5e <.LBB5_14+0x10>
ffffffff80000d78:	00169513          	slli	a0,a3,0x1
ffffffff80000d7c:	8105                	srli	a0,a0,0x1
ffffffff80000d7e:	45a5                	li	a1,9
ffffffff80000d80:	0ab50863          	beq	a0,a1,ffffffff80000e30 <.LBB5_3+0x142>
ffffffff80000d84:	4595                	li	a1,5
ffffffff80000d86:	04b50a63          	beq	a0,a1,ffffffff80000dda <.LBB5_3+0xec>
ffffffff80000d8a:	4585                	li	a1,1
ffffffff80000d8c:	0ab51763          	bne	a0,a1,ffffffff80000e3a <.LBB5_3+0x14c>
ffffffff80000d90:	00002097          	auipc	ra,0x2
ffffffff80000d94:	ace080e7          	jalr	-1330(ra) # ffffffff8000285e <riscv_clear_soft_interrupt>
ffffffff80000d98:	00002097          	auipc	ra,0x2
ffffffff80000d9c:	abe080e7          	jalr	-1346(ra) # ffffffff80002856 <get_cpu_struct>
ffffffff80000da0:	04050513          	addi	a0,a0,64
ffffffff80000da4:	ffc57593          	andi	a1,a0,-4
ffffffff80000da8:	890d                	andi	a0,a0,3
ffffffff80000daa:	050e                	slli	a0,a0,0x3
ffffffff80000dac:	0ff00613          	li	a2,255
ffffffff80000db0:	00a6163b          	sllw	a2,a2,a0
ffffffff80000db4:	fff64613          	not	a2,a2
ffffffff80000db8:	0fe00693          	li	a3,254
ffffffff80000dbc:	00a696bb          	sllw	a3,a3,a0
ffffffff80000dc0:	8e55                	or	a2,a2,a3
ffffffff80000dc2:	66c5a5af          	amoand.w.aqrl	a1,a2,(a1)
ffffffff80000dc6:	00a5d53b          	srlw	a0,a1,a0
ffffffff80000dca:	8905                	andi	a0,a0,1
ffffffff80000dcc:	c949                	beqz	a0,ffffffff80000e5e <.LBB5_14+0x10>
ffffffff80000dce:	8552                	mv	a0,s4
ffffffff80000dd0:	00003097          	auipc	ra,0x3
ffffffff80000dd4:	404080e7          	jalr	1028(ra) # ffffffff800041d4 <scheduler_schedule>
ffffffff80000dd8:	a059                	j	ffffffff80000e5e <.LBB5_14+0x10>
ffffffff80000dda:	8000a537          	lui	a0,0x8000a
ffffffff80000dde:	02853583          	ld	a1,40(a0) # ffffffff8000a028 <tick_count>
ffffffff80000de2:	80009637          	lui	a2,0x80009
ffffffff80000de6:	21863603          	ld	a2,536(a2) # ffffffff80009218 <$d.1>
ffffffff80000dea:	0585                	addi	a1,a1,1
ffffffff80000dec:	02c58633          	mul	a2,a1,a2
ffffffff80000df0:	800096b7          	lui	a3,0x80009
ffffffff80000df4:	2206b683          	ld	a3,544(a3) # ffffffff80009220 <.LCPI5_1>
ffffffff80000df8:	03d61713          	slli	a4,a2,0x3d
ffffffff80000dfc:	820d                	srli	a2,a2,0x3
ffffffff80000dfe:	8e59                	or	a2,a2,a4
ffffffff80000e00:	02b53423          	sd	a1,40(a0)
ffffffff80000e04:	0cc6fc63          	bgeu	a3,a2,ffffffff80000edc <.LBB5_19+0x14>
ffffffff80000e08:	8000a537          	lui	a0,0x8000a
ffffffff80000e0c:	02053603          	ld	a2,32(a0) # ffffffff8000a020 <last_timer_event>
ffffffff80000e10:	6589                	lui	a1,0x2
ffffffff80000e12:	7105859b          	addiw	a1,a1,1808 # 2710 <$d.2+0x35f>
ffffffff80000e16:	962e                	add	a2,a2,a1
ffffffff80000e18:	02c53023          	sd	a2,32(a0)
ffffffff80000e1c:	54495537          	lui	a0,0x54495
ffffffff80000e20:	d455051b          	addiw	a0,a0,-699 # 54494d45 <$d.3+0x54489ff7>
ffffffff80000e24:	4581                	li	a1,0
ffffffff80000e26:	00002097          	auipc	ra,0x2
ffffffff80000e2a:	a4a080e7          	jalr	-1462(ra) # ffffffff80002870 <riscv_sbicall>
ffffffff80000e2e:	a805                	j	ffffffff80000e5e <.LBB5_14+0x10>
ffffffff80000e30:	80008537          	lui	a0,0x80008
ffffffff80000e34:	19350513          	addi	a0,a0,403 # ffffffff80008193 <$d.2+0x6d>
ffffffff80000e38:	a839                	j	ffffffff80000e56 <.LBB5_14+0x8>
ffffffff80000e3a:	80008537          	lui	a0,0x80008
ffffffff80000e3e:	5a950513          	addi	a0,a0,1449 # ffffffff800085a9 <$d.1+0x9a>
ffffffff80000e42:	85b6                	mv	a1,a3
ffffffff80000e44:	00007097          	auipc	ra,0x7
ffffffff80000e48:	a02080e7          	jalr	-1534(ra) # ffffffff80007846 <printf>
ffffffff80000e4c:	a001                	j	ffffffff80000e4c <.LBB5_3+0x15e>

ffffffff80000e4e <.LBB5_14>:
ffffffff80000e4e:	80008537          	lui	a0,0x80008
ffffffff80000e52:	45b50513          	addi	a0,a0,1115 # ffffffff8000845b <$d.2+0x30>
ffffffff80000e56:	00007097          	auipc	ra,0x7
ffffffff80000e5a:	9f0080e7          	jalr	-1552(ra) # ffffffff80007846 <printf>
ffffffff80000e5e:	8552                	mv	a0,s4
ffffffff80000e60:	60e6                	ld	ra,88(sp)
ffffffff80000e62:	6446                	ld	s0,80(sp)
ffffffff80000e64:	64a6                	ld	s1,72(sp)
ffffffff80000e66:	6906                	ld	s2,64(sp)
ffffffff80000e68:	79e2                	ld	s3,56(sp)
ffffffff80000e6a:	7a42                	ld	s4,48(sp)
ffffffff80000e6c:	7aa2                	ld	s5,40(sp)
ffffffff80000e6e:	7b02                	ld	s6,32(sp)
ffffffff80000e70:	6be2                	ld	s7,24(sp)
ffffffff80000e72:	6c42                	ld	s8,16(sp)
ffffffff80000e74:	6ca2                	ld	s9,8(sp)
ffffffff80000e76:	6125                	addi	sp,sp,96
ffffffff80000e78:	8082                	ret

ffffffff80000e7a <.LBB5_17>:
ffffffff80000e7a:	109a4503          	lbu	a0,265(s4)
ffffffff80000e7e:	108a4583          	lbu	a1,264(s4)
ffffffff80000e82:	10aa4603          	lbu	a2,266(s4)
ffffffff80000e86:	10ba4683          	lbu	a3,267(s4)
ffffffff80000e8a:	0522                	slli	a0,a0,0x8
ffffffff80000e8c:	8d4d                	or	a0,a0,a1
ffffffff80000e8e:	0642                	slli	a2,a2,0x10
ffffffff80000e90:	06e2                	slli	a3,a3,0x18
ffffffff80000e92:	8e55                	or	a2,a2,a3
ffffffff80000e94:	8d51                	or	a0,a0,a2
ffffffff80000e96:	10da4583          	lbu	a1,269(s4)
ffffffff80000e9a:	10ca4603          	lbu	a2,268(s4)
ffffffff80000e9e:	10ea4683          	lbu	a3,270(s4)
ffffffff80000ea2:	10fa4703          	lbu	a4,271(s4)
ffffffff80000ea6:	05a2                	slli	a1,a1,0x8
ffffffff80000ea8:	8dd1                	or	a1,a1,a2
ffffffff80000eaa:	06c2                	slli	a3,a3,0x10
ffffffff80000eac:	0762                	slli	a4,a4,0x18
ffffffff80000eae:	8ed9                	or	a3,a3,a4
ffffffff80000eb0:	8dd5                	or	a1,a1,a3
ffffffff80000eb2:	1582                	slli	a1,a1,0x20
ffffffff80000eb4:	8dc9                	or	a1,a1,a0
ffffffff80000eb6:	80008537          	lui	a0,0x80008
ffffffff80000eba:	46a50513          	addi	a0,a0,1130 # ffffffff8000846a <$d.2+0x3f>
ffffffff80000ebe:	00007097          	auipc	ra,0x7
ffffffff80000ec2:	988080e7          	jalr	-1656(ra) # ffffffff80007846 <printf>
ffffffff80000ec6:	a001                	j	ffffffff80000ec6 <.LBB5_17+0x4c>

ffffffff80000ec8 <.LBB5_19>:
ffffffff80000ec8:	80008537          	lui	a0,0x80008
ffffffff80000ecc:	00050513          	mv	a0,a0
ffffffff80000ed0:	85b6                	mv	a1,a3
ffffffff80000ed2:	00007097          	auipc	ra,0x7
ffffffff80000ed6:	974080e7          	jalr	-1676(ra) # ffffffff80007846 <printf>
ffffffff80000eda:	a001                	j	ffffffff80000eda <.LBB5_19+0x12>
ffffffff80000edc:	80008537          	lui	a0,0x80008
ffffffff80000ee0:	5e550513          	addi	a0,a0,1509 # ffffffff800085e5 <$d.1+0xd6>
ffffffff80000ee4:	00007097          	auipc	ra,0x7
ffffffff80000ee8:	962080e7          	jalr	-1694(ra) # ffffffff80007846 <printf>
ffffffff80000eec:	fffff097          	auipc	ra,0xfffff
ffffffff80000ef0:	664080e7          	jalr	1636(ra) # ffffffff80000550 <arch_cpu_get_count>
ffffffff80000ef4:	892a                	mv	s2,a0
ffffffff80000ef6:	fffff097          	auipc	ra,0xfffff
ffffffff80000efa:	672080e7          	jalr	1650(ra) # ffffffff80000568 <arch_cpu_get_maxhartid>
ffffffff80000efe:	89aa                	mv	s3,a0
ffffffff80000f00:	4c81                	li	s9,0
ffffffff80000f02:	00735537          	lui	a0,0x735
ffffffff80000f06:	04950a9b          	addiw	s5,a0,73 # 735049 <$d.3+0x72a2fb>
ffffffff80000f0a:	8000b537          	lui	a0,0x8000b
ffffffff80000f0e:	04050b13          	addi	s6,a0,64 # ffffffff8000b040 <CPULocals+0x40>
ffffffff80000f12:	03f00b93          	li	s7,63
ffffffff80000f16:	4c05                	li	s8,1
ffffffff80000f18:	a821                	j	ffffffff80000f30 <.LBB5_19+0x68>
ffffffff80000f1a:	8556                	mv	a0,s5
ffffffff80000f1c:	4581                	li	a1,0
ffffffff80000f1e:	86e6                	mv	a3,s9
ffffffff80000f20:	00002097          	auipc	ra,0x2
ffffffff80000f24:	950080e7          	jalr	-1712(ra) # ffffffff80002870 <riscv_sbicall>
ffffffff80000f28:	040c8c93          	addi	s9,s9,64
ffffffff80000f2c:	ed99eee3          	bltu	s3,s9,ffffffff80000e08 <.LBB5_3+0x11a>
ffffffff80000f30:	4601                	li	a2,0
ffffffff80000f32:	fe0904e3          	beqz	s2,ffffffff80000f1a <.LBB5_19+0x52>
ffffffff80000f36:	854a                	mv	a0,s2
ffffffff80000f38:	85da                	mv	a1,s6
ffffffff80000f3a:	a029                	j	ffffffff80000f44 <.LBB5_19+0x7c>
ffffffff80000f3c:	157d                	addi	a0,a0,-1
ffffffff80000f3e:	04258593          	addi	a1,a1,66
ffffffff80000f42:	dd61                	beqz	a0,ffffffff80000f1a <.LBB5_19+0x52>
ffffffff80000f44:	fc05c683          	lbu	a3,-64(a1)
ffffffff80000f48:	fc15c703          	lbu	a4,-63(a1)
ffffffff80000f4c:	fc25c783          	lbu	a5,-62(a1)
ffffffff80000f50:	fc35c483          	lbu	s1,-61(a1)
ffffffff80000f54:	0722                	slli	a4,a4,0x8
ffffffff80000f56:	8ed9                	or	a3,a3,a4
ffffffff80000f58:	07c2                	slli	a5,a5,0x10
ffffffff80000f5a:	04e2                	slli	s1,s1,0x18
ffffffff80000f5c:	8fc5                	or	a5,a5,s1
ffffffff80000f5e:	fc45c703          	lbu	a4,-60(a1)
ffffffff80000f62:	fc55c483          	lbu	s1,-59(a1)
ffffffff80000f66:	00d7e833          	or	a6,a5,a3
ffffffff80000f6a:	fc65c783          	lbu	a5,-58(a1)
ffffffff80000f6e:	fc75c683          	lbu	a3,-57(a1)
ffffffff80000f72:	04a2                	slli	s1,s1,0x8
ffffffff80000f74:	8f45                	or	a4,a4,s1
ffffffff80000f76:	07c2                	slli	a5,a5,0x10
ffffffff80000f78:	06e2                	slli	a3,a3,0x18
ffffffff80000f7a:	8edd                	or	a3,a3,a5
ffffffff80000f7c:	8ed9                	or	a3,a3,a4
ffffffff80000f7e:	1682                	slli	a3,a3,0x20
ffffffff80000f80:	0106e6b3          	or	a3,a3,a6
ffffffff80000f84:	fb96ece3          	bltu	a3,s9,ffffffff80000f3c <.LBB5_19+0x74>
ffffffff80000f88:	419686b3          	sub	a3,a3,s9
ffffffff80000f8c:	fadbc8e3          	blt	s7,a3,ffffffff80000f3c <.LBB5_19+0x74>
ffffffff80000f90:	0310000f          	fence	rw,w
ffffffff80000f94:	01858023          	sb	s8,0(a1)
ffffffff80000f98:	00dc16bb          	sllw	a3,s8,a3
ffffffff80000f9c:	8e55                	or	a2,a2,a3
ffffffff80000f9e:	bf79                	j	ffffffff80000f3c <.LBB5_19+0x74>

ffffffff80000fa0 <riscv64_get_boot_dtb>:
ffffffff80000fa0:	80009537          	lui	a0,0x80009
ffffffff80000fa4:	13853583          	ld	a1,312(a0) # ffffffff80009138 <limine_dtb_request+0x28>
ffffffff80000fa8:	c589                	beqz	a1,ffffffff80000fb2 <riscv64_get_boot_dtb+0x12>
ffffffff80000faa:	13853503          	ld	a0,312(a0)
ffffffff80000fae:	6508                	ld	a0,8(a0)
ffffffff80000fb0:	8082                	ret
ffffffff80000fb2:	1141                	addi	sp,sp,-16
ffffffff80000fb4:	e406                	sd	ra,8(sp)
ffffffff80000fb6:	e022                	sd	s0,0(sp)
ffffffff80000fb8:	0800                	addi	s0,sp,16
ffffffff80000fba:	80008537          	lui	a0,0x80008
ffffffff80000fbe:	12650513          	addi	a0,a0,294 # ffffffff80008126 <$d.2>
ffffffff80000fc2:	00007097          	auipc	ra,0x7
ffffffff80000fc6:	884080e7          	jalr	-1916(ra) # ffffffff80007846 <printf>
ffffffff80000fca:	4501                	li	a0,0
ffffffff80000fcc:	60a2                	ld	ra,8(sp)
ffffffff80000fce:	6402                	ld	s0,0(sp)
ffffffff80000fd0:	0141                	addi	sp,sp,16
ffffffff80000fd2:	8082                	ret

ffffffff80000fd4 <plic_init>:
ffffffff80000fd4:	7179                	addi	sp,sp,-48
ffffffff80000fd6:	f406                	sd	ra,40(sp)
ffffffff80000fd8:	f022                	sd	s0,32(sp)
ffffffff80000fda:	ec26                	sd	s1,24(sp)
ffffffff80000fdc:	e84a                	sd	s2,16(sp)
ffffffff80000fde:	1800                	addi	s0,sp,48
ffffffff80000fe0:	80008537          	lui	a0,0x80008
ffffffff80000fe4:	6cf50513          	addi	a0,a0,1743 # ffffffff800086cf <$d.3+0x26>
ffffffff80000fe8:	4581                	li	a1,0
ffffffff80000fea:	4601                	li	a2,0
ffffffff80000fec:	00004097          	auipc	ra,0x4
ffffffff80000ff0:	84a080e7          	jalr	-1974(ra) # ffffffff80004836 <dtb_find_node>
ffffffff80000ff4:	84aa                	mv	s1,a0
ffffffff80000ff6:	80008537          	lui	a0,0x80008
ffffffff80000ffa:	59150513          	addi	a0,a0,1425 # ffffffff80008591 <$d.1+0x82>
ffffffff80000ffe:	4581                	li	a1,0
ffffffff80001000:	4601                	li	a2,0
ffffffff80001002:	00004097          	auipc	ra,0x4
ffffffff80001006:	834080e7          	jalr	-1996(ra) # ffffffff80004836 <dtb_find_node>
ffffffff8000100a:	c579                	beqz	a0,ffffffff800010d8 <plic_init+0x104>
ffffffff8000100c:	c4f1                	beqz	s1,ffffffff800010d8 <plic_init+0x104>
ffffffff8000100e:	892a                	mv	s2,a0
ffffffff80001010:	fc042c23          	sw	zero,-40(s0)
ffffffff80001014:	80008537          	lui	a0,0x80008
ffffffff80001018:	26e50593          	addi	a1,a0,622 # ffffffff8000826e <$d.2+0x148>
ffffffff8000101c:	fdc40613          	addi	a2,s0,-36
ffffffff80001020:	8526                	mv	a0,s1
ffffffff80001022:	4681                	li	a3,0
ffffffff80001024:	00004097          	auipc	ra,0x4
ffffffff80001028:	9e8080e7          	jalr	-1560(ra) # ffffffff80004a0c <dtb_prop_read_u32>
ffffffff8000102c:	0a054663          	bltz	a0,ffffffff800010d8 <plic_init+0x104>
ffffffff80001030:	80008537          	lui	a0,0x80008
ffffffff80001034:	4ac50593          	addi	a1,a0,1196 # ffffffff800084ac <$d.2+0x81>
ffffffff80001038:	fd840613          	addi	a2,s0,-40
ffffffff8000103c:	8526                	mv	a0,s1
ffffffff8000103e:	4681                	li	a3,0
ffffffff80001040:	00004097          	auipc	ra,0x4
ffffffff80001044:	9cc080e7          	jalr	-1588(ra) # ffffffff80004a0c <dtb_prop_read_u32>
ffffffff80001048:	08054863          	bltz	a0,ffffffff800010d8 <plic_init+0x104>
ffffffff8000104c:	fdc42603          	lw	a2,-36(s0)
ffffffff80001050:	fd842683          	lw	a3,-40(s0)
ffffffff80001054:	80008537          	lui	a0,0x80008
ffffffff80001058:	15050593          	addi	a1,a0,336 # ffffffff80008150 <$d.2+0x2a>
ffffffff8000105c:	8000a537          	lui	a0,0x8000a
ffffffff80001060:	03050713          	addi	a4,a0,48 # ffffffff8000a030 <plic_address>
ffffffff80001064:	8000a537          	lui	a0,0x8000a
ffffffff80001068:	03850793          	addi	a5,a0,56 # ffffffff8000a038 <plic_size>
ffffffff8000106c:	854a                	mv	a0,s2
ffffffff8000106e:	00004097          	auipc	ra,0x4
ffffffff80001072:	b46080e7          	jalr	-1210(ra) # ffffffff80004bb4 <dtb_prop_read_address_range>
ffffffff80001076:	06054163          	bltz	a0,ffffffff800010d8 <plic_init+0x104>
ffffffff8000107a:	80008537          	lui	a0,0x80008
ffffffff8000107e:	13d50593          	addi	a1,a0,317 # ffffffff8000813d <$d.2+0x17>
ffffffff80001082:	8000a537          	lui	a0,0x8000a
ffffffff80001086:	04050613          	addi	a2,a0,64 # ffffffff8000a040 <plic_ndev>
ffffffff8000108a:	854a                	mv	a0,s2
ffffffff8000108c:	4681                	li	a3,0
ffffffff8000108e:	00004097          	auipc	ra,0x4
ffffffff80001092:	97e080e7          	jalr	-1666(ra) # ffffffff80004a0c <dtb_prop_read_u32>
ffffffff80001096:	04054163          	bltz	a0,ffffffff800010d8 <plic_init+0x104>
ffffffff8000109a:	8000a4b7          	lui	s1,0x8000a
ffffffff8000109e:	0304b583          	ld	a1,48(s1) # ffffffff8000a030 <plic_address>
ffffffff800010a2:	8000a537          	lui	a0,0x8000a
ffffffff800010a6:	03853603          	ld	a2,56(a0) # ffffffff8000a038 <plic_size>
ffffffff800010aa:	80008537          	lui	a0,0x80008
ffffffff800010ae:	06550513          	addi	a0,a0,101 # ffffffff80008065 <$d.3+0x21>
ffffffff800010b2:	00006097          	auipc	ra,0x6
ffffffff800010b6:	794080e7          	jalr	1940(ra) # ffffffff80007846 <printf>
ffffffff800010ba:	80009537          	lui	a0,0x80009
ffffffff800010be:	23053503          	ld	a0,560(a0) # ffffffff80009230 <MEM_PHYS_OFFSET>
ffffffff800010c2:	0304b583          	ld	a1,48(s1)
ffffffff800010c6:	952e                	add	a0,a0,a1
ffffffff800010c8:	02a4b823          	sd	a0,48(s1)
ffffffff800010cc:	70a2                	ld	ra,40(sp)
ffffffff800010ce:	7402                	ld	s0,32(sp)
ffffffff800010d0:	64e2                	ld	s1,24(sp)
ffffffff800010d2:	6942                	ld	s2,16(sp)
ffffffff800010d4:	6145                	addi	sp,sp,48
ffffffff800010d6:	8082                	ret
ffffffff800010d8:	80008537          	lui	a0,0x80008
ffffffff800010dc:	29b50513          	addi	a0,a0,667 # ffffffff8000829b <$d.1>
ffffffff800010e0:	00006097          	auipc	ra,0x6
ffffffff800010e4:	766080e7          	jalr	1894(ra) # ffffffff80007846 <printf>
ffffffff800010e8:	a001                	j	ffffffff800010e8 <plic_init+0x114>

ffffffff800010ea <plic_claim>:
ffffffff800010ea:	1141                	addi	sp,sp,-16
ffffffff800010ec:	e406                	sd	ra,8(sp)
ffffffff800010ee:	e022                	sd	s0,0(sp)
ffffffff800010f0:	0800                	addi	s0,sp,16
ffffffff800010f2:	8000a537          	lui	a0,0x8000a
ffffffff800010f6:	03053503          	ld	a0,48(a0) # ffffffff8000a030 <plic_address>
ffffffff800010fa:	002005b7          	lui	a1,0x200
ffffffff800010fe:	952e                	add	a0,a0,a1
ffffffff80001100:	4148                	lw	a0,4(a0)
ffffffff80001102:	60a2                	ld	ra,8(sp)
ffffffff80001104:	6402                	ld	s0,0(sp)
ffffffff80001106:	0141                	addi	sp,sp,16
ffffffff80001108:	8082                	ret

ffffffff8000110a <arch_interrupt_max>:
ffffffff8000110a:	1141                	addi	sp,sp,-16
ffffffff8000110c:	e406                	sd	ra,8(sp)
ffffffff8000110e:	e022                	sd	s0,0(sp)
ffffffff80001110:	0800                	addi	s0,sp,16
ffffffff80001112:	8000a537          	lui	a0,0x8000a
ffffffff80001116:	04052503          	lw	a0,64(a0) # ffffffff8000a040 <plic_ndev>
ffffffff8000111a:	357d                	addiw	a0,a0,-1
ffffffff8000111c:	60a2                	ld	ra,8(sp)
ffffffff8000111e:	6402                	ld	s0,0(sp)
ffffffff80001120:	0141                	addi	sp,sp,16
ffffffff80001122:	8082                	ret

ffffffff80001124 <arch_interrupt_min>:
ffffffff80001124:	1141                	addi	sp,sp,-16
ffffffff80001126:	e406                	sd	ra,8(sp)
ffffffff80001128:	e022                	sd	s0,0(sp)
ffffffff8000112a:	0800                	addi	s0,sp,16
ffffffff8000112c:	4501                	li	a0,0
ffffffff8000112e:	60a2                	ld	ra,8(sp)
ffffffff80001130:	6402                	ld	s0,0(sp)
ffffffff80001132:	0141                	addi	sp,sp,16
ffffffff80001134:	8082                	ret

ffffffff80001136 <arch_interrupt_enable>:
ffffffff80001136:	1141                	addi	sp,sp,-16
ffffffff80001138:	e406                	sd	ra,8(sp)
ffffffff8000113a:	e022                	sd	s0,0(sp)
ffffffff8000113c:	0800                	addi	s0,sp,16
ffffffff8000113e:	8000a5b7          	lui	a1,0x8000a
ffffffff80001142:	0305b583          	ld	a1,48(a1) # ffffffff8000a030 <plic_address>
ffffffff80001146:	02251613          	slli	a2,a0,0x22
ffffffff8000114a:	9201                	srli	a2,a2,0x20
ffffffff8000114c:	962e                	add	a2,a2,a1
ffffffff8000114e:	4685                	li	a3,1
ffffffff80001150:	c214                	sw	a3,0(a2)
ffffffff80001152:	0055561b          	srliw	a2,a0,0x5
ffffffff80001156:	060a                	slli	a2,a2,0x2
ffffffff80001158:	6709                	lui	a4,0x2
ffffffff8000115a:	963a                	add	a2,a2,a4
ffffffff8000115c:	95b2                	add	a1,a1,a2
ffffffff8000115e:	4190                	lw	a2,0(a1)
ffffffff80001160:	00a6953b          	sllw	a0,a3,a0
ffffffff80001164:	8d51                	or	a0,a0,a2
ffffffff80001166:	c188                	sw	a0,0(a1)
ffffffff80001168:	60a2                	ld	ra,8(sp)
ffffffff8000116a:	6402                	ld	s0,0(sp)
ffffffff8000116c:	0141                	addi	sp,sp,16
ffffffff8000116e:	8082                	ret

ffffffff80001170 <arch_interrupt_disable>:
ffffffff80001170:	1141                	addi	sp,sp,-16
ffffffff80001172:	e406                	sd	ra,8(sp)
ffffffff80001174:	e022                	sd	s0,0(sp)
ffffffff80001176:	0800                	addi	s0,sp,16
ffffffff80001178:	8000a5b7          	lui	a1,0x8000a
ffffffff8000117c:	0305b583          	ld	a1,48(a1) # ffffffff8000a030 <plic_address>
ffffffff80001180:	02251613          	slli	a2,a0,0x22
ffffffff80001184:	9201                	srli	a2,a2,0x20
ffffffff80001186:	962e                	add	a2,a2,a1
ffffffff80001188:	4685                	li	a3,1
ffffffff8000118a:	c214                	sw	a3,0(a2)
ffffffff8000118c:	0055561b          	srliw	a2,a0,0x5
ffffffff80001190:	060a                	slli	a2,a2,0x2
ffffffff80001192:	6709                	lui	a4,0x2
ffffffff80001194:	963a                	add	a2,a2,a4
ffffffff80001196:	95b2                	add	a1,a1,a2
ffffffff80001198:	4190                	lw	a2,0(a1)
ffffffff8000119a:	00a6953b          	sllw	a0,a3,a0
ffffffff8000119e:	fff54513          	not	a0,a0
ffffffff800011a2:	8d71                	and	a0,a0,a2
ffffffff800011a4:	c188                	sw	a0,0(a1)
ffffffff800011a6:	60a2                	ld	ra,8(sp)
ffffffff800011a8:	6402                	ld	s0,0(sp)
ffffffff800011aa:	0141                	addi	sp,sp,16
ffffffff800011ac:	8082                	ret

ffffffff800011ae <arch_interrupt_complete>:
ffffffff800011ae:	1141                	addi	sp,sp,-16
ffffffff800011b0:	e406                	sd	ra,8(sp)
ffffffff800011b2:	e022                	sd	s0,0(sp)
ffffffff800011b4:	0800                	addi	s0,sp,16
ffffffff800011b6:	8000a5b7          	lui	a1,0x8000a
ffffffff800011ba:	0305b583          	ld	a1,48(a1) # ffffffff8000a030 <plic_address>
ffffffff800011be:	00200637          	lui	a2,0x200
ffffffff800011c2:	95b2                	add	a1,a1,a2
ffffffff800011c4:	c1c8                	sw	a0,4(a1)
ffffffff800011c6:	60a2                	ld	ra,8(sp)
ffffffff800011c8:	6402                	ld	s0,0(sp)
ffffffff800011ca:	0141                	addi	sp,sp,16
ffffffff800011cc:	8082                	ret

ffffffff800011ce <arch_scheduler_idle>:
ffffffff800011ce:	1141                	addi	sp,sp,-16
ffffffff800011d0:	e406                	sd	ra,8(sp)
ffffffff800011d2:	e022                	sd	s0,0(sp)
ffffffff800011d4:	0800                	addi	s0,sp,16
ffffffff800011d6:	8000a537          	lui	a0,0x8000a
ffffffff800011da:	06853503          	ld	a0,104(a0) # ffffffff8000a068 <KernelPageMap>
ffffffff800011de:	00001097          	auipc	ra,0x1
ffffffff800011e2:	33a080e7          	jalr	826(ra) # ffffffff80002518 <vmm_set_pt>
ffffffff800011e6:	01823103          	ld	sp,24(tp) # 18 <kernel_symbols_start+0x18>
ffffffff800011ea:	a0fd                	j	ffffffff800012d8 <arch_scheduler_idle_halt>
ffffffff800011ec:	00000097          	auipc	ra,0x0
ffffffff800011f0:	0ec080e7          	jalr	236(ra) # ffffffff800012d8 <arch_scheduler_idle_halt>

ffffffff800011f4 <arch_scheduler_switch_task>:
ffffffff800011f4:	1101                	addi	sp,sp,-32
ffffffff800011f6:	ec06                	sd	ra,24(sp)
ffffffff800011f8:	e822                	sd	s0,16(sp)
ffffffff800011fa:	e426                	sd	s1,8(sp)
ffffffff800011fc:	e04a                	sd	s2,0(sp)
ffffffff800011fe:	1000                	addi	s0,sp,32
ffffffff80001200:	892e                	mv	s2,a1
ffffffff80001202:	84aa                	mv	s1,a0
ffffffff80001204:	fffff097          	auipc	ra,0xfffff
ffffffff80001208:	37c080e7          	jalr	892(ra) # ffffffff80000580 <arch_cpu_get_index>
ffffffff8000120c:	85aa                	mv	a1,a0
ffffffff8000120e:	80008537          	lui	a0,0x80008
ffffffff80001212:	2b650513          	addi	a0,a0,694 # ffffffff800082b6 <$d.1>
ffffffff80001216:	00006097          	auipc	ra,0x6
ffffffff8000121a:	6ce080e7          	jalr	1742(ra) # ffffffff800078e4 <printf_scheduler>
ffffffff8000121e:	00001097          	auipc	ra,0x1
ffffffff80001222:	638080e7          	jalr	1592(ra) # ffffffff80002856 <get_cpu_struct>
ffffffff80001226:	04154503          	lbu	a0,65(a0)
ffffffff8000122a:	1114c803          	lbu	a6,273(s1)
ffffffff8000122e:	1134c883          	lbu	a7,275(s1)
ffffffff80001232:	1124c283          	lbu	t0,274(s1)
ffffffff80001236:	1154c703          	lbu	a4,277(s1)
ffffffff8000123a:	1144c783          	lbu	a5,276(s1)
ffffffff8000123e:	1174c583          	lbu	a1,279(s1)
ffffffff80001242:	1164c603          	lbu	a2,278(s1)
ffffffff80001246:	1104c683          	lbu	a3,272(s1)
ffffffff8000124a:	0df6f693          	andi	a3,a3,223
ffffffff8000124e:	157e                	slli	a0,a0,0x3f
ffffffff80001250:	9169                	srli	a0,a0,0x3a
ffffffff80001252:	8d55                	or	a0,a0,a3
ffffffff80001254:	10c48b23          	sb	a2,278(s1)
ffffffff80001258:	10b48ba3          	sb	a1,279(s1)
ffffffff8000125c:	10f48a23          	sb	a5,276(s1)
ffffffff80001260:	10e48aa3          	sb	a4,277(s1)
ffffffff80001264:	10548923          	sb	t0,274(s1)
ffffffff80001268:	111489a3          	sb	a7,275(s1)
ffffffff8000126c:	110488a3          	sb	a6,273(s1)
ffffffff80001270:	10a48823          	sb	a0,272(s1)
ffffffff80001274:	00091d63          	bnez	s2,ffffffff8000128e <arch_scheduler_switch_task+0x9a>
ffffffff80001278:	4501                	li	a0,0
ffffffff8000127a:	00001097          	auipc	ra,0x1
ffffffff8000127e:	27a080e7          	jalr	634(ra) # ffffffff800024f4 <riscv_vmm_create_satp>
ffffffff80001282:	85aa                	mv	a1,a0
ffffffff80001284:	8526                	mv	a0,s1
ffffffff80001286:	00001097          	auipc	ra,0x1
ffffffff8000128a:	76e080e7          	jalr	1902(ra) # ffffffff800029f4 <arch_scheduler_context_switch>
ffffffff8000128e:	8526                	mv	a0,s1
ffffffff80001290:	4581                	li	a1,0
ffffffff80001292:	00001097          	auipc	ra,0x1
ffffffff80001296:	762080e7          	jalr	1890(ra) # ffffffff800029f4 <arch_scheduler_context_switch>

ffffffff8000129a <arch_scheduler_unlock_locks>:
ffffffff8000129a:	1141                	addi	sp,sp,-16
ffffffff8000129c:	e406                	sd	ra,8(sp)
ffffffff8000129e:	e022                	sd	s0,0(sp)
ffffffff800012a0:	0800                	addi	s0,sp,16
ffffffff800012a2:	fffff097          	auipc	ra,0xfffff
ffffffff800012a6:	340080e7          	jalr	832(ra) # ffffffff800005e2 <arch_cpu_increment_preempt_counter>
ffffffff800012aa:	80009537          	lui	a0,0x80009
ffffffff800012ae:	05050513          	addi	a0,a0,80 # ffffffff80009050 <SchedulerLock>
ffffffff800012b2:	00001097          	auipc	ra,0x1
ffffffff800012b6:	f16080e7          	jalr	-234(ra) # ffffffff800021c8 <spinlock_unlock>
ffffffff800012ba:	fffff097          	auipc	ra,0xfffff
ffffffff800012be:	328080e7          	jalr	808(ra) # ffffffff800005e2 <arch_cpu_increment_preempt_counter>
ffffffff800012c2:	80009537          	lui	a0,0x80009
ffffffff800012c6:	02850513          	addi	a0,a0,40 # ffffffff80009028 <EntrySchedulerLock>
ffffffff800012ca:	60a2                	ld	ra,8(sp)
ffffffff800012cc:	6402                	ld	s0,0(sp)
ffffffff800012ce:	0141                	addi	sp,sp,16
ffffffff800012d0:	00001317          	auipc	t1,0x1
ffffffff800012d4:	ef830067          	jr	-264(t1) # ffffffff800021c8 <spinlock_unlock>

ffffffff800012d8 <arch_scheduler_idle_halt>:
ffffffff800012d8:	1141                	addi	sp,sp,-16
ffffffff800012da:	e406                	sd	ra,8(sp)
ffffffff800012dc:	e022                	sd	s0,0(sp)
ffffffff800012de:	0800                	addi	s0,sp,16
ffffffff800012e0:	fffff097          	auipc	ra,0xfffff
ffffffff800012e4:	2a0080e7          	jalr	672(ra) # ffffffff80000580 <arch_cpu_get_index>
ffffffff800012e8:	85aa                	mv	a1,a0
ffffffff800012ea:	80008537          	lui	a0,0x80008
ffffffff800012ee:	08a50513          	addi	a0,a0,138 # ffffffff8000808a <$d.3+0x46>
ffffffff800012f2:	00006097          	auipc	ra,0x6
ffffffff800012f6:	5f2080e7          	jalr	1522(ra) # ffffffff800078e4 <printf_scheduler>
ffffffff800012fa:	557d                	li	a0,-1
ffffffff800012fc:	fffff097          	auipc	ra,0xfffff
ffffffff80001300:	722080e7          	jalr	1826(ra) # ffffffff80000a1e <arch_cpu_set_current_taskid>
ffffffff80001304:	557d                	li	a0,-1
ffffffff80001306:	fffff097          	auipc	ra,0xfffff
ffffffff8000130a:	650080e7          	jalr	1616(ra) # ffffffff80000956 <arch_cpu_set_current_pid>
ffffffff8000130e:	557d                	li	a0,-1
ffffffff80001310:	fffff097          	auipc	ra,0xfffff
ffffffff80001314:	6aa080e7          	jalr	1706(ra) # ffffffff800009ba <arch_cpu_set_current_tid>
ffffffff80001318:	fffff097          	auipc	ra,0xfffff
ffffffff8000131c:	2ca080e7          	jalr	714(ra) # ffffffff800005e2 <arch_cpu_increment_preempt_counter>
ffffffff80001320:	80009537          	lui	a0,0x80009
ffffffff80001324:	05050513          	addi	a0,a0,80 # ffffffff80009050 <SchedulerLock>
ffffffff80001328:	00001097          	auipc	ra,0x1
ffffffff8000132c:	ea0080e7          	jalr	-352(ra) # ffffffff800021c8 <spinlock_unlock>
ffffffff80001330:	fffff097          	auipc	ra,0xfffff
ffffffff80001334:	2b2080e7          	jalr	690(ra) # ffffffff800005e2 <arch_cpu_increment_preempt_counter>
ffffffff80001338:	80009537          	lui	a0,0x80009
ffffffff8000133c:	02850513          	addi	a0,a0,40 # ffffffff80009028 <EntrySchedulerLock>
ffffffff80001340:	00001097          	auipc	ra,0x1
ffffffff80001344:	e88080e7          	jalr	-376(ra) # ffffffff800021c8 <spinlock_unlock>
ffffffff80001348:	00000097          	auipc	ra,0x0
ffffffff8000134c:	802080e7          	jalr	-2046(ra) # ffffffff80000b4a <arch_enable_interrupts>
ffffffff80001350:	10500073          	wfi
ffffffff80001354:	bff5                	j	ffffffff80001350 <arch_scheduler_idle_halt+0x78>

ffffffff80001356 <locked_read>:
ffffffff80001356:	1141                	addi	sp,sp,-16
ffffffff80001358:	e406                	sd	ra,8(sp)
ffffffff8000135a:	e022                	sd	s0,0(sp)
ffffffff8000135c:	0800                	addi	s0,sp,16
ffffffff8000135e:	0330000f          	fence	rw,rw
ffffffff80001362:	4108                	lw	a0,0(a0)
ffffffff80001364:	0230000f          	fence	r,rw
ffffffff80001368:	60a2                	ld	ra,8(sp)
ffffffff8000136a:	6402                	ld	s0,0(sp)
ffffffff8000136c:	0141                	addi	sp,sp,16
ffffffff8000136e:	8082                	ret

ffffffff80001370 <locked_write>:
ffffffff80001370:	1141                	addi	sp,sp,-16
ffffffff80001372:	e406                	sd	ra,8(sp)
ffffffff80001374:	e022                	sd	s0,0(sp)
ffffffff80001376:	0800                	addi	s0,sp,16
ffffffff80001378:	0eb5252f          	amoswap.w.aqrl	a0,a1,(a0)
ffffffff8000137c:	60a2                	ld	ra,8(sp)
ffffffff8000137e:	6402                	ld	s0,0(sp)
ffffffff80001380:	0141                	addi	sp,sp,16
ffffffff80001382:	8082                	ret

ffffffff80001384 <locked_inc>:
ffffffff80001384:	1141                	addi	sp,sp,-16
ffffffff80001386:	e406                	sd	ra,8(sp)
ffffffff80001388:	e022                	sd	s0,0(sp)
ffffffff8000138a:	0800                	addi	s0,sp,16
ffffffff8000138c:	4585                	li	a1,1
ffffffff8000138e:	06b5252f          	amoadd.w.aqrl	a0,a1,(a0)
ffffffff80001392:	2505                	addiw	a0,a0,1
ffffffff80001394:	60a2                	ld	ra,8(sp)
ffffffff80001396:	6402                	ld	s0,0(sp)
ffffffff80001398:	0141                	addi	sp,sp,16
ffffffff8000139a:	8082                	ret

ffffffff8000139c <locked_dec>:
ffffffff8000139c:	1141                	addi	sp,sp,-16
ffffffff8000139e:	e406                	sd	ra,8(sp)
ffffffff800013a0:	e022                	sd	s0,0(sp)
ffffffff800013a2:	0800                	addi	s0,sp,16
ffffffff800013a4:	55fd                	li	a1,-1
ffffffff800013a6:	06b5252f          	amoadd.w.aqrl	a0,a1,(a0)
ffffffff800013aa:	357d                	addiw	a0,a0,-1
ffffffff800013ac:	60a2                	ld	ra,8(sp)
ffffffff800013ae:	6402                	ld	s0,0(sp)
ffffffff800013b0:	0141                	addi	sp,sp,16
ffffffff800013b2:	8082                	ret

ffffffff800013b4 <spinlock_try_lock_debug>:
ffffffff800013b4:	7139                	addi	sp,sp,-64
ffffffff800013b6:	fc06                	sd	ra,56(sp)
ffffffff800013b8:	f822                	sd	s0,48(sp)
ffffffff800013ba:	f426                	sd	s1,40(sp)
ffffffff800013bc:	f04a                	sd	s2,32(sp)
ffffffff800013be:	ec4e                	sd	s3,24(sp)
ffffffff800013c0:	e852                	sd	s4,16(sp)
ffffffff800013c2:	e456                	sd	s5,8(sp)
ffffffff800013c4:	e05a                	sd	s6,0(sp)
ffffffff800013c6:	0080                	addi	s0,sp,64
ffffffff800013c8:	89b6                	mv	s3,a3
ffffffff800013ca:	8ab2                	mv	s5,a2
ffffffff800013cc:	8b2e                	mv	s6,a1
ffffffff800013ce:	84aa                	mv	s1,a0
ffffffff800013d0:	fffff097          	auipc	ra,0xfffff
ffffffff800013d4:	796080e7          	jalr	1942(ra) # ffffffff80000b66 <arch_disable_interrupts>
ffffffff800013d8:	4585                	li	a1,1
ffffffff800013da:	0eb4a92f          	amoswap.w.aqrl	s2,a1,(s1)
ffffffff800013de:	8a2a                	mv	s4,a0
ffffffff800013e0:	02091163          	bnez	s2,ffffffff80001402 <spinlock_try_lock_debug+0x4e>
ffffffff800013e4:	0164b423          	sd	s6,8(s1)
ffffffff800013e8:	0154b823          	sd	s5,16(s1)
ffffffff800013ec:	0134ac23          	sw	s3,24(s1)
ffffffff800013f0:	fffff097          	auipc	ra,0xfffff
ffffffff800013f4:	190080e7          	jalr	400(ra) # ffffffff80000580 <arch_cpu_get_index>
ffffffff800013f8:	f088                	sd	a0,32(s1)
ffffffff800013fa:	fffff097          	auipc	ra,0xfffff
ffffffff800013fe:	1e8080e7          	jalr	488(ra) # ffffffff800005e2 <arch_cpu_increment_preempt_counter>
ffffffff80001402:	000a0663          	beqz	s4,ffffffff8000140e <spinlock_try_lock_debug+0x5a>
ffffffff80001406:	fffff097          	auipc	ra,0xfffff
ffffffff8000140a:	744080e7          	jalr	1860(ra) # ffffffff80000b4a <arch_enable_interrupts>
ffffffff8000140e:	854a                	mv	a0,s2
ffffffff80001410:	70e2                	ld	ra,56(sp)
ffffffff80001412:	7442                	ld	s0,48(sp)
ffffffff80001414:	74a2                	ld	s1,40(sp)
ffffffff80001416:	7902                	ld	s2,32(sp)
ffffffff80001418:	69e2                	ld	s3,24(sp)
ffffffff8000141a:	6a42                	ld	s4,16(sp)
ffffffff8000141c:	6aa2                	ld	s5,8(sp)
ffffffff8000141e:	6b02                	ld	s6,0(sp)
ffffffff80001420:	6121                	addi	sp,sp,64
ffffffff80001422:	8082                	ret

ffffffff80001424 <spinlock_lock_debug>:
ffffffff80001424:	711d                	addi	sp,sp,-96
ffffffff80001426:	ec86                	sd	ra,88(sp)
ffffffff80001428:	e8a2                	sd	s0,80(sp)
ffffffff8000142a:	e4a6                	sd	s1,72(sp)
ffffffff8000142c:	e0ca                	sd	s2,64(sp)
ffffffff8000142e:	fc4e                	sd	s3,56(sp)
ffffffff80001430:	f852                	sd	s4,48(sp)
ffffffff80001432:	f456                	sd	s5,40(sp)
ffffffff80001434:	f05a                	sd	s6,32(sp)
ffffffff80001436:	ec5e                	sd	s7,24(sp)
ffffffff80001438:	e862                	sd	s8,16(sp)
ffffffff8000143a:	e466                	sd	s9,8(sp)
ffffffff8000143c:	e06a                	sd	s10,0(sp)
ffffffff8000143e:	1080                	addi	s0,sp,96
ffffffff80001440:	89ba                	mv	s3,a4
ffffffff80001442:	8936                	mv	s2,a3
ffffffff80001444:	8a32                	mv	s4,a2
ffffffff80001446:	8aae                	mv	s5,a1
ffffffff80001448:	8b2a                	mv	s6,a0
ffffffff8000144a:	4c81                	li	s9,0
ffffffff8000144c:	4b85                	li	s7,1
ffffffff8000144e:	04000c37          	lui	s8,0x4000
ffffffff80001452:	fffff097          	auipc	ra,0xfffff
ffffffff80001456:	714080e7          	jalr	1812(ra) # ffffffff80000b66 <arch_disable_interrupts>
ffffffff8000145a:	0f7b24af          	amoswap.w.aqrl	s1,s7,(s6)
ffffffff8000145e:	8d2a                	mv	s10,a0
ffffffff80001460:	c495                	beqz	s1,ffffffff8000148c <spinlock_lock_debug+0x68>
ffffffff80001462:	000d0663          	beqz	s10,ffffffff8000146e <spinlock_lock_debug+0x4a>
ffffffff80001466:	fffff097          	auipc	ra,0xfffff
ffffffff8000146a:	6e4080e7          	jalr	1764(ra) # ffffffff80000b4a <arch_enable_interrupts>
ffffffff8000146e:	c0b1                	beqz	s1,ffffffff800014b2 <spinlock_lock_debug+0x8e>
ffffffff80001470:	0c85                	addi	s9,s9,1
ffffffff80001472:	ff8c90e3          	bne	s9,s8,ffffffff80001452 <spinlock_lock_debug+0x2e>
ffffffff80001476:	8556                	mv	a0,s5
ffffffff80001478:	85d2                	mv	a1,s4
ffffffff8000147a:	864e                	mv	a2,s3
ffffffff8000147c:	86ca                	mv	a3,s2
ffffffff8000147e:	875a                	mv	a4,s6
ffffffff80001480:	00000097          	auipc	ra,0x0
ffffffff80001484:	04e080e7          	jalr	78(ra) # ffffffff800014ce <deadlock_detect>
ffffffff80001488:	4c81                	li	s9,0
ffffffff8000148a:	b7e1                	j	ffffffff80001452 <spinlock_lock_debug+0x2e>
ffffffff8000148c:	015b3423          	sd	s5,8(s6)
ffffffff80001490:	014b3823          	sd	s4,16(s6)
ffffffff80001494:	013b2c23          	sw	s3,24(s6)
ffffffff80001498:	fffff097          	auipc	ra,0xfffff
ffffffff8000149c:	0e8080e7          	jalr	232(ra) # ffffffff80000580 <arch_cpu_get_index>
ffffffff800014a0:	02ab3023          	sd	a0,32(s6)
ffffffff800014a4:	fffff097          	auipc	ra,0xfffff
ffffffff800014a8:	13e080e7          	jalr	318(ra) # ffffffff800005e2 <arch_cpu_increment_preempt_counter>
ffffffff800014ac:	fa0d1de3          	bnez	s10,ffffffff80001466 <spinlock_lock_debug+0x42>
ffffffff800014b0:	bf7d                	j	ffffffff8000146e <spinlock_lock_debug+0x4a>
ffffffff800014b2:	60e6                	ld	ra,88(sp)
ffffffff800014b4:	6446                	ld	s0,80(sp)
ffffffff800014b6:	64a6                	ld	s1,72(sp)
ffffffff800014b8:	6906                	ld	s2,64(sp)
ffffffff800014ba:	79e2                	ld	s3,56(sp)
ffffffff800014bc:	7a42                	ld	s4,48(sp)
ffffffff800014be:	7aa2                	ld	s5,40(sp)
ffffffff800014c0:	7b02                	ld	s6,32(sp)
ffffffff800014c2:	6be2                	ld	s7,24(sp)
ffffffff800014c4:	6c42                	ld	s8,16(sp)
ffffffff800014c6:	6ca2                	ld	s9,8(sp)
ffffffff800014c8:	6d02                	ld	s10,0(sp)
ffffffff800014ca:	6125                	addi	sp,sp,96
ffffffff800014cc:	8082                	ret

ffffffff800014ce <deadlock_detect>:
ffffffff800014ce:	7139                	addi	sp,sp,-64
ffffffff800014d0:	fc06                	sd	ra,56(sp)
ffffffff800014d2:	f822                	sd	s0,48(sp)
ffffffff800014d4:	f426                	sd	s1,40(sp)
ffffffff800014d6:	f04a                	sd	s2,32(sp)
ffffffff800014d8:	ec4e                	sd	s3,24(sp)
ffffffff800014da:	0080                	addi	s0,sp,64
ffffffff800014dc:	893a                	mv	s2,a4
ffffffff800014de:	8000a737          	lui	a4,0x8000a
ffffffff800014e2:	04470713          	addi	a4,a4,68 # ffffffff8000a044 <deadlock_detect_lock>
ffffffff800014e6:	4785                	li	a5,1
ffffffff800014e8:	0ef724af          	amoswap.w.aqrl	s1,a5,(a4)
ffffffff800014ec:	fcf5                	bnez	s1,ffffffff800014e8 <deadlock_detect+0x1a>
ffffffff800014ee:	4301                	li	t1,0
ffffffff800014f0:	8000a7b7          	lui	a5,0x8000a
ffffffff800014f4:	04878793          	addi	a5,a5,72 # ffffffff8000a048 <block>
ffffffff800014f8:	4485                	li	s1,1
ffffffff800014fa:	0697a02f          	amoadd.w.aqrl	zero,s1,(a5)
ffffffff800014fe:	42a9                	li	t0,10
ffffffff80001500:	100007b7          	lui	a5,0x10000
ffffffff80001504:	800084b7          	lui	s1,0x80008
ffffffff80001508:	01a48813          	addi	a6,s1,26 # ffffffff8000801a <$d.2>
ffffffff8000150c:	02900893          	li	a7,41
ffffffff80001510:	0057c483          	lbu	s1,5(a5) # 10000005 <$d.3+0xfff52b7>
ffffffff80001514:	0204f493          	andi	s1,s1,32
ffffffff80001518:	dce5                	beqz	s1,ffffffff80001510 <deadlock_detect+0x42>
ffffffff8000151a:	00578023          	sb	t0,0(a5)
ffffffff8000151e:	0305                	addi	t1,t1,1
ffffffff80001520:	00680733          	add	a4,a6,t1
ffffffff80001524:	00074283          	lbu	t0,0(a4)
ffffffff80001528:	ff1314e3          	bne	t1,a7,ffffffff80001510 <deadlock_detect+0x42>
ffffffff8000152c:	8000a737          	lui	a4,0x8000a
ffffffff80001530:	04870293          	addi	t0,a4,72 # ffffffff8000a048 <block>
ffffffff80001534:	587d                	li	a6,-1
ffffffff80001536:	0702a02f          	amoadd.w.aqrl	zero,a6,(t0)
ffffffff8000153a:	4885                	li	a7,1
ffffffff8000153c:	0712a02f          	amoadd.w.aqrl	zero,a7,(t0)
ffffffff80001540:	0006c303          	lbu	t1,0(a3)
ffffffff80001544:	02030363          	beqz	t1,ffffffff8000156a <deadlock_detect+0x9c>
ffffffff80001548:	4481                	li	s1,0
ffffffff8000154a:	10000737          	lui	a4,0x10000
ffffffff8000154e:	00574783          	lbu	a5,5(a4) # 10000005 <$d.3+0xfff52b7>
ffffffff80001552:	0207f793          	andi	a5,a5,32
ffffffff80001556:	dfe5                	beqz	a5,ffffffff8000154e <deadlock_detect+0x80>
ffffffff80001558:	00670023          	sb	t1,0(a4)
ffffffff8000155c:	0485                	addi	s1,s1,1
ffffffff8000155e:	009687b3          	add	a5,a3,s1
ffffffff80001562:	0007c303          	lbu	t1,0(a5)
ffffffff80001566:	fe0314e3          	bnez	t1,ffffffff8000154e <deadlock_detect+0x80>
ffffffff8000156a:	0702a02f          	amoadd.w.aqrl	zero,a6,(t0)
ffffffff8000156e:	0712a02f          	amoadd.w.aqrl	zero,a7,(t0)
ffffffff80001572:	100006b7          	lui	a3,0x10000
ffffffff80001576:	0056c703          	lbu	a4,5(a3) # 10000005 <$d.3+0xfff52b7>
ffffffff8000157a:	02077713          	andi	a4,a4,32
ffffffff8000157e:	df65                	beqz	a4,ffffffff80001576 <deadlock_detect+0xa8>
ffffffff80001580:	100006b7          	lui	a3,0x10000
ffffffff80001584:	02900713          	li	a4,41
ffffffff80001588:	00e68023          	sb	a4,0(a3) # 10000000 <$d.3+0xfff52b2>
ffffffff8000158c:	0056c703          	lbu	a4,5(a3)
ffffffff80001590:	02077713          	andi	a4,a4,32
ffffffff80001594:	df65                	beqz	a4,ffffffff8000158c <deadlock_detect+0xbe>
ffffffff80001596:	100006b7          	lui	a3,0x10000
ffffffff8000159a:	03b00713          	li	a4,59
ffffffff8000159e:	00e68023          	sb	a4,0(a3) # 10000000 <$d.3+0xfff52b2>
ffffffff800015a2:	8000a737          	lui	a4,0x8000a
ffffffff800015a6:	04870713          	addi	a4,a4,72 # ffffffff8000a048 <block>
ffffffff800015aa:	57fd                	li	a5,-1
ffffffff800015ac:	06f7202f          	amoadd.w.aqrl	zero,a5,(a4)
ffffffff800015b0:	4785                	li	a5,1
ffffffff800015b2:	06f7202f          	amoadd.w.aqrl	zero,a5,(a4)
ffffffff800015b6:	0056c703          	lbu	a4,5(a3)
ffffffff800015ba:	02077713          	andi	a4,a4,32
ffffffff800015be:	df65                	beqz	a4,ffffffff800015b6 <deadlock_detect+0xe8>
ffffffff800015c0:	100006b7          	lui	a3,0x10000
ffffffff800015c4:	4729                	li	a4,10
ffffffff800015c6:	00e68023          	sb	a4,0(a3) # 10000000 <$d.3+0xfff52b2>
ffffffff800015ca:	0056c703          	lbu	a4,5(a3)
ffffffff800015ce:	02077713          	andi	a4,a4,32
ffffffff800015d2:	df65                	beqz	a4,ffffffff800015ca <deadlock_detect+0xfc>
ffffffff800015d4:	100006b7          	lui	a3,0x10000
ffffffff800015d8:	06600713          	li	a4,102
ffffffff800015dc:	00e68023          	sb	a4,0(a3) # 10000000 <$d.3+0xfff52b2>
ffffffff800015e0:	0056c703          	lbu	a4,5(a3)
ffffffff800015e4:	02077713          	andi	a4,a4,32
ffffffff800015e8:	df65                	beqz	a4,ffffffff800015e0 <deadlock_detect+0x112>
ffffffff800015ea:	100006b7          	lui	a3,0x10000
ffffffff800015ee:	06900713          	li	a4,105
ffffffff800015f2:	00e68023          	sb	a4,0(a3) # 10000000 <$d.3+0xfff52b2>
ffffffff800015f6:	0056c703          	lbu	a4,5(a3)
ffffffff800015fa:	02077713          	andi	a4,a4,32
ffffffff800015fe:	df65                	beqz	a4,ffffffff800015f6 <deadlock_detect+0x128>
ffffffff80001600:	100006b7          	lui	a3,0x10000
ffffffff80001604:	06c00713          	li	a4,108
ffffffff80001608:	00e68023          	sb	a4,0(a3) # 10000000 <$d.3+0xfff52b2>
ffffffff8000160c:	0056c703          	lbu	a4,5(a3)
ffffffff80001610:	02077713          	andi	a4,a4,32
ffffffff80001614:	df65                	beqz	a4,ffffffff8000160c <deadlock_detect+0x13e>
ffffffff80001616:	100006b7          	lui	a3,0x10000
ffffffff8000161a:	06500713          	li	a4,101
ffffffff8000161e:	00e68023          	sb	a4,0(a3) # 10000000 <$d.3+0xfff52b2>
ffffffff80001622:	0056c703          	lbu	a4,5(a3)
ffffffff80001626:	02077713          	andi	a4,a4,32
ffffffff8000162a:	df65                	beqz	a4,ffffffff80001622 <deadlock_detect+0x154>
ffffffff8000162c:	100006b7          	lui	a3,0x10000
ffffffff80001630:	03a00713          	li	a4,58
ffffffff80001634:	00e68023          	sb	a4,0(a3) # 10000000 <$d.3+0xfff52b2>
ffffffff80001638:	0056c703          	lbu	a4,5(a3)
ffffffff8000163c:	02077713          	andi	a4,a4,32
ffffffff80001640:	df65                	beqz	a4,ffffffff80001638 <deadlock_detect+0x16a>
ffffffff80001642:	100006b7          	lui	a3,0x10000
ffffffff80001646:	02000713          	li	a4,32
ffffffff8000164a:	00e68023          	sb	a4,0(a3) # 10000000 <$d.3+0xfff52b2>
ffffffff8000164e:	8000a737          	lui	a4,0x8000a
ffffffff80001652:	04870293          	addi	t0,a4,72 # ffffffff8000a048 <block>
ffffffff80001656:	587d                	li	a6,-1
ffffffff80001658:	0702a02f          	amoadd.w.aqrl	zero,a6,(t0)
ffffffff8000165c:	4885                	li	a7,1
ffffffff8000165e:	0712a02f          	amoadd.w.aqrl	zero,a7,(t0)
ffffffff80001662:	00054783          	lbu	a5,0(a0)
ffffffff80001666:	cf99                	beqz	a5,ffffffff80001684 <deadlock_detect+0x1b6>
ffffffff80001668:	4481                	li	s1,0
ffffffff8000166a:	0056c703          	lbu	a4,5(a3)
ffffffff8000166e:	02077713          	andi	a4,a4,32
ffffffff80001672:	df65                	beqz	a4,ffffffff8000166a <deadlock_detect+0x19c>
ffffffff80001674:	00f68023          	sb	a5,0(a3)
ffffffff80001678:	0485                	addi	s1,s1,1
ffffffff8000167a:	00950733          	add	a4,a0,s1
ffffffff8000167e:	00074783          	lbu	a5,0(a4)
ffffffff80001682:	f7e5                	bnez	a5,ffffffff8000166a <deadlock_detect+0x19c>
ffffffff80001684:	0702a02f          	amoadd.w.aqrl	zero,a6,(t0)
ffffffff80001688:	0712a02f          	amoadd.w.aqrl	zero,a7,(t0)
ffffffff8000168c:	0056c503          	lbu	a0,5(a3)
ffffffff80001690:	02057513          	andi	a0,a0,32
ffffffff80001694:	dd65                	beqz	a0,ffffffff8000168c <deadlock_detect+0x1be>
ffffffff80001696:	10000537          	lui	a0,0x10000
ffffffff8000169a:	46a9                	li	a3,10
ffffffff8000169c:	00d50023          	sb	a3,0(a0) # 10000000 <$d.3+0xfff52b2>
ffffffff800016a0:	00554683          	lbu	a3,5(a0)
ffffffff800016a4:	0206f693          	andi	a3,a3,32
ffffffff800016a8:	dee5                	beqz	a3,ffffffff800016a0 <deadlock_detect+0x1d2>
ffffffff800016aa:	10000537          	lui	a0,0x10000
ffffffff800016ae:	06600693          	li	a3,102
ffffffff800016b2:	00d50023          	sb	a3,0(a0) # 10000000 <$d.3+0xfff52b2>
ffffffff800016b6:	00554683          	lbu	a3,5(a0)
ffffffff800016ba:	0206f693          	andi	a3,a3,32
ffffffff800016be:	dee5                	beqz	a3,ffffffff800016b6 <deadlock_detect+0x1e8>
ffffffff800016c0:	10000537          	lui	a0,0x10000
ffffffff800016c4:	07500693          	li	a3,117
ffffffff800016c8:	00d50023          	sb	a3,0(a0) # 10000000 <$d.3+0xfff52b2>
ffffffff800016cc:	00554683          	lbu	a3,5(a0)
ffffffff800016d0:	0206f693          	andi	a3,a3,32
ffffffff800016d4:	dee5                	beqz	a3,ffffffff800016cc <deadlock_detect+0x1fe>
ffffffff800016d6:	10000537          	lui	a0,0x10000
ffffffff800016da:	06e00693          	li	a3,110
ffffffff800016de:	00d50023          	sb	a3,0(a0) # 10000000 <$d.3+0xfff52b2>
ffffffff800016e2:	00554683          	lbu	a3,5(a0)
ffffffff800016e6:	0206f693          	andi	a3,a3,32
ffffffff800016ea:	dee5                	beqz	a3,ffffffff800016e2 <deadlock_detect+0x214>
ffffffff800016ec:	10000537          	lui	a0,0x10000
ffffffff800016f0:	06300693          	li	a3,99
ffffffff800016f4:	00d50023          	sb	a3,0(a0) # 10000000 <$d.3+0xfff52b2>
ffffffff800016f8:	00554683          	lbu	a3,5(a0)
ffffffff800016fc:	0206f693          	andi	a3,a3,32
ffffffff80001700:	dee5                	beqz	a3,ffffffff800016f8 <deadlock_detect+0x22a>
ffffffff80001702:	10000537          	lui	a0,0x10000
ffffffff80001706:	07400693          	li	a3,116
ffffffff8000170a:	00d50023          	sb	a3,0(a0) # 10000000 <$d.3+0xfff52b2>
ffffffff8000170e:	00554683          	lbu	a3,5(a0)
ffffffff80001712:	0206f693          	andi	a3,a3,32
ffffffff80001716:	dee5                	beqz	a3,ffffffff8000170e <deadlock_detect+0x240>
ffffffff80001718:	10000537          	lui	a0,0x10000
ffffffff8000171c:	06900693          	li	a3,105
ffffffff80001720:	00d50023          	sb	a3,0(a0) # 10000000 <$d.3+0xfff52b2>
ffffffff80001724:	00554683          	lbu	a3,5(a0)
ffffffff80001728:	0206f693          	andi	a3,a3,32
ffffffff8000172c:	dee5                	beqz	a3,ffffffff80001724 <deadlock_detect+0x256>
ffffffff8000172e:	10000537          	lui	a0,0x10000
ffffffff80001732:	06f00693          	li	a3,111
ffffffff80001736:	00d50023          	sb	a3,0(a0) # 10000000 <$d.3+0xfff52b2>
ffffffff8000173a:	00554683          	lbu	a3,5(a0)
ffffffff8000173e:	0206f693          	andi	a3,a3,32
ffffffff80001742:	dee5                	beqz	a3,ffffffff8000173a <deadlock_detect+0x26c>
ffffffff80001744:	10000537          	lui	a0,0x10000
ffffffff80001748:	06e00693          	li	a3,110
ffffffff8000174c:	00d50023          	sb	a3,0(a0) # 10000000 <$d.3+0xfff52b2>
ffffffff80001750:	00554683          	lbu	a3,5(a0)
ffffffff80001754:	0206f693          	andi	a3,a3,32
ffffffff80001758:	dee5                	beqz	a3,ffffffff80001750 <deadlock_detect+0x282>
ffffffff8000175a:	10000537          	lui	a0,0x10000
ffffffff8000175e:	03a00693          	li	a3,58
ffffffff80001762:	00d50023          	sb	a3,0(a0) # 10000000 <$d.3+0xfff52b2>
ffffffff80001766:	00554683          	lbu	a3,5(a0)
ffffffff8000176a:	0206f693          	andi	a3,a3,32
ffffffff8000176e:	dee5                	beqz	a3,ffffffff80001766 <deadlock_detect+0x298>
ffffffff80001770:	10000537          	lui	a0,0x10000
ffffffff80001774:	02000693          	li	a3,32
ffffffff80001778:	00d50023          	sb	a3,0(a0) # 10000000 <$d.3+0xfff52b2>
ffffffff8000177c:	8000a6b7          	lui	a3,0x8000a
ffffffff80001780:	04868693          	addi	a3,a3,72 # ffffffff8000a048 <block>
ffffffff80001784:	587d                	li	a6,-1
ffffffff80001786:	0706a02f          	amoadd.w.aqrl	zero,a6,(a3)
ffffffff8000178a:	4885                	li	a7,1
ffffffff8000178c:	0716a02f          	amoadd.w.aqrl	zero,a7,(a3)
ffffffff80001790:	0005c483          	lbu	s1,0(a1)
ffffffff80001794:	cc99                	beqz	s1,ffffffff800017b2 <deadlock_detect+0x2e4>
ffffffff80001796:	4701                	li	a4,0
ffffffff80001798:	00554783          	lbu	a5,5(a0)
ffffffff8000179c:	0207f793          	andi	a5,a5,32
ffffffff800017a0:	dfe5                	beqz	a5,ffffffff80001798 <deadlock_detect+0x2ca>
ffffffff800017a2:	00950023          	sb	s1,0(a0)
ffffffff800017a6:	0705                	addi	a4,a4,1
ffffffff800017a8:	00e587b3          	add	a5,a1,a4
ffffffff800017ac:	0007c483          	lbu	s1,0(a5)
ffffffff800017b0:	f4e5                	bnez	s1,ffffffff80001798 <deadlock_detect+0x2ca>
ffffffff800017b2:	0706a02f          	amoadd.w.aqrl	zero,a6,(a3)
ffffffff800017b6:	0716a02f          	amoadd.w.aqrl	zero,a7,(a3)
ffffffff800017ba:	00554583          	lbu	a1,5(a0)
ffffffff800017be:	0205f593          	andi	a1,a1,32
ffffffff800017c2:	dde5                	beqz	a1,ffffffff800017ba <deadlock_detect+0x2ec>
ffffffff800017c4:	10000537          	lui	a0,0x10000
ffffffff800017c8:	45a9                	li	a1,10
ffffffff800017ca:	00b50023          	sb	a1,0(a0) # 10000000 <$d.3+0xfff52b2>
ffffffff800017ce:	00554583          	lbu	a1,5(a0)
ffffffff800017d2:	0205f593          	andi	a1,a1,32
ffffffff800017d6:	dde5                	beqz	a1,ffffffff800017ce <deadlock_detect+0x300>
ffffffff800017d8:	10000537          	lui	a0,0x10000
ffffffff800017dc:	06c00593          	li	a1,108
ffffffff800017e0:	00b50023          	sb	a1,0(a0) # 10000000 <$d.3+0xfff52b2>
ffffffff800017e4:	00554583          	lbu	a1,5(a0)
ffffffff800017e8:	0205f593          	andi	a1,a1,32
ffffffff800017ec:	dde5                	beqz	a1,ffffffff800017e4 <deadlock_detect+0x316>
ffffffff800017ee:	10000537          	lui	a0,0x10000
ffffffff800017f2:	06900593          	li	a1,105
ffffffff800017f6:	00b50023          	sb	a1,0(a0) # 10000000 <$d.3+0xfff52b2>
ffffffff800017fa:	00554583          	lbu	a1,5(a0)
ffffffff800017fe:	0205f593          	andi	a1,a1,32
ffffffff80001802:	dde5                	beqz	a1,ffffffff800017fa <deadlock_detect+0x32c>
ffffffff80001804:	10000537          	lui	a0,0x10000
ffffffff80001808:	06e00593          	li	a1,110
ffffffff8000180c:	00b50023          	sb	a1,0(a0) # 10000000 <$d.3+0xfff52b2>
ffffffff80001810:	00554583          	lbu	a1,5(a0)
ffffffff80001814:	0205f593          	andi	a1,a1,32
ffffffff80001818:	dde5                	beqz	a1,ffffffff80001810 <deadlock_detect+0x342>
ffffffff8000181a:	10000537          	lui	a0,0x10000
ffffffff8000181e:	06500593          	li	a1,101
ffffffff80001822:	00b50023          	sb	a1,0(a0) # 10000000 <$d.3+0xfff52b2>
ffffffff80001826:	00554583          	lbu	a1,5(a0)
ffffffff8000182a:	0205f593          	andi	a1,a1,32
ffffffff8000182e:	dde5                	beqz	a1,ffffffff80001826 <deadlock_detect+0x358>
ffffffff80001830:	10000537          	lui	a0,0x10000
ffffffff80001834:	03a00593          	li	a1,58
ffffffff80001838:	00b50023          	sb	a1,0(a0) # 10000000 <$d.3+0xfff52b2>
ffffffff8000183c:	00554583          	lbu	a1,5(a0)
ffffffff80001840:	0205f593          	andi	a1,a1,32
ffffffff80001844:	dde5                	beqz	a1,ffffffff8000183c <deadlock_detect+0x36e>
ffffffff80001846:	557d                	li	a0,-1
ffffffff80001848:	02051993          	slli	s3,a0,0x20
ffffffff8000184c:	100005b7          	lui	a1,0x10000
ffffffff80001850:	02000693          	li	a3,32
ffffffff80001854:	00d58023          	sb	a3,0(a1) # 10000000 <$d.3+0xfff52b2>
ffffffff80001858:	8000a5b7          	lui	a1,0x8000a
ffffffff8000185c:	04858593          	addi	a1,a1,72 # ffffffff8000a048 <block>
ffffffff80001860:	06a5a02f          	amoadd.w.aqrl	zero,a0,(a1)
ffffffff80001864:	fc040a23          	sb	zero,-44(s0)
ffffffff80001868:	fc042823          	sw	zero,-48(s0)
ffffffff8000186c:	fc043423          	sd	zero,-56(s0)
ffffffff80001870:	fc043023          	sd	zero,-64(s0)
ffffffff80001874:	c231                	beqz	a2,ffffffff800018b8 <deadlock_detect+0x3ea>
ffffffff80001876:	fd340513          	addi	a0,s0,-45
ffffffff8000187a:	4595                	li	a1,5
ffffffff8000187c:	158a                	slli	a1,a1,0x22
ffffffff8000187e:	666666b7          	lui	a3,0x66666
ffffffff80001882:	6676869b          	addiw	a3,a3,1639 # 66666667 <$d.3+0x6665b919>
ffffffff80001886:	4829                	li	a6,10
ffffffff80001888:	47c9                	li	a5,18
ffffffff8000188a:	02d604b3          	mul	s1,a2,a3
ffffffff8000188e:	03f4d713          	srli	a4,s1,0x3f
ffffffff80001892:	9489                	srai	s1,s1,0x22
ffffffff80001894:	9f25                	addw	a4,a4,s1
ffffffff80001896:	030704b3          	mul	s1,a4,a6
ffffffff8000189a:	409604bb          	subw	s1,a2,s1
ffffffff8000189e:	03048493          	addi	s1,s1,48
ffffffff800018a2:	00950023          	sb	s1,0(a0)
ffffffff800018a6:	0096049b          	addiw	s1,a2,9 # 200009 <$d.3+0x1f52bb>
ffffffff800018aa:	95ce                	add	a1,a1,s3
ffffffff800018ac:	157d                	addi	a0,a0,-1
ffffffff800018ae:	863a                	mv	a2,a4
ffffffff800018b0:	fc97ede3          	bltu	a5,s1,ffffffff8000188a <deadlock_detect+0x3bc>
ffffffff800018b4:	9581                	srai	a1,a1,0x20
ffffffff800018b6:	a031                	j	ffffffff800018c2 <deadlock_detect+0x3f4>
ffffffff800018b8:	4581                	li	a1,0
ffffffff800018ba:	03000513          	li	a0,48
ffffffff800018be:	fca40023          	sb	a0,-64(s0)
ffffffff800018c2:	fc040613          	addi	a2,s0,-64
ffffffff800018c6:	962e                	add	a2,a2,a1
ffffffff800018c8:	8000a537          	lui	a0,0x8000a
ffffffff800018cc:	04850513          	addi	a0,a0,72 # ffffffff8000a048 <block>
ffffffff800018d0:	4585                	li	a1,1
ffffffff800018d2:	06b5202f          	amoadd.w.aqrl	zero,a1,(a0)
ffffffff800018d6:	00064683          	lbu	a3,0(a2)
ffffffff800018da:	c28d                	beqz	a3,ffffffff800018fc <deadlock_detect+0x42e>
ffffffff800018dc:	4701                	li	a4,0
ffffffff800018de:	100007b7          	lui	a5,0x10000
ffffffff800018e2:	0057c483          	lbu	s1,5(a5) # 10000005 <$d.3+0xfff52b7>
ffffffff800018e6:	0204f493          	andi	s1,s1,32
ffffffff800018ea:	dce5                	beqz	s1,ffffffff800018e2 <deadlock_detect+0x414>
ffffffff800018ec:	00d78023          	sb	a3,0(a5)
ffffffff800018f0:	0705                	addi	a4,a4,1
ffffffff800018f2:	00e606b3          	add	a3,a2,a4
ffffffff800018f6:	0006c683          	lbu	a3,0(a3)
ffffffff800018fa:	f6e5                	bnez	a3,ffffffff800018e2 <deadlock_detect+0x414>
ffffffff800018fc:	567d                	li	a2,-1
ffffffff800018fe:	06c5202f          	amoadd.w.aqrl	zero,a2,(a0)
ffffffff80001902:	06b5202f          	amoadd.w.aqrl	zero,a1,(a0)
ffffffff80001906:	10000537          	lui	a0,0x10000
ffffffff8000190a:	00554583          	lbu	a1,5(a0) # 10000005 <$d.3+0xfff52b7>
ffffffff8000190e:	0205f593          	andi	a1,a1,32
ffffffff80001912:	dde5                	beqz	a1,ffffffff8000190a <deadlock_detect+0x43c>
ffffffff80001914:	10000537          	lui	a0,0x10000
ffffffff80001918:	45a9                	li	a1,10
ffffffff8000191a:	00b50023          	sb	a1,0(a0) # 10000000 <$d.3+0xfff52b2>
ffffffff8000191e:	00554583          	lbu	a1,5(a0)
ffffffff80001922:	0205f593          	andi	a1,a1,32
ffffffff80001926:	dde5                	beqz	a1,ffffffff8000191e <deadlock_detect+0x450>
ffffffff80001928:	10000537          	lui	a0,0x10000
ffffffff8000192c:	06300593          	li	a1,99
ffffffff80001930:	00b50023          	sb	a1,0(a0) # 10000000 <$d.3+0xfff52b2>
ffffffff80001934:	00554583          	lbu	a1,5(a0)
ffffffff80001938:	0205f593          	andi	a1,a1,32
ffffffff8000193c:	dde5                	beqz	a1,ffffffff80001934 <deadlock_detect+0x466>
ffffffff8000193e:	10000537          	lui	a0,0x10000
ffffffff80001942:	07000593          	li	a1,112
ffffffff80001946:	00b50023          	sb	a1,0(a0) # 10000000 <$d.3+0xfff52b2>
ffffffff8000194a:	00554583          	lbu	a1,5(a0)
ffffffff8000194e:	0205f593          	andi	a1,a1,32
ffffffff80001952:	dde5                	beqz	a1,ffffffff8000194a <deadlock_detect+0x47c>
ffffffff80001954:	10000537          	lui	a0,0x10000
ffffffff80001958:	07500593          	li	a1,117
ffffffff8000195c:	00b50023          	sb	a1,0(a0) # 10000000 <$d.3+0xfff52b2>
ffffffff80001960:	00554583          	lbu	a1,5(a0)
ffffffff80001964:	0205f593          	andi	a1,a1,32
ffffffff80001968:	dde5                	beqz	a1,ffffffff80001960 <deadlock_detect+0x492>
ffffffff8000196a:	10000537          	lui	a0,0x10000
ffffffff8000196e:	03a00593          	li	a1,58
ffffffff80001972:	00b50023          	sb	a1,0(a0) # 10000000 <$d.3+0xfff52b2>
ffffffff80001976:	00554583          	lbu	a1,5(a0)
ffffffff8000197a:	0205f593          	andi	a1,a1,32
ffffffff8000197e:	dde5                	beqz	a1,ffffffff80001976 <deadlock_detect+0x4a8>
ffffffff80001980:	10000537          	lui	a0,0x10000
ffffffff80001984:	02000593          	li	a1,32
ffffffff80001988:	00b50023          	sb	a1,0(a0) # 10000000 <$d.3+0xfff52b2>
ffffffff8000198c:	8000a537          	lui	a0,0x8000a
ffffffff80001990:	04850513          	addi	a0,a0,72 # ffffffff8000a048 <block>
ffffffff80001994:	55fd                	li	a1,-1
ffffffff80001996:	06b5202f          	amoadd.w.aqrl	zero,a1,(a0)
ffffffff8000199a:	fc040a23          	sb	zero,-44(s0)
ffffffff8000199e:	fc042823          	sw	zero,-48(s0)
ffffffff800019a2:	fc043423          	sd	zero,-56(s0)
ffffffff800019a6:	fc043023          	sd	zero,-64(s0)
ffffffff800019aa:	fffff097          	auipc	ra,0xfffff
ffffffff800019ae:	bd6080e7          	jalr	-1066(ra) # ffffffff80000580 <arch_cpu_get_index>
ffffffff800019b2:	0005059b          	sext.w	a1,a0
ffffffff800019b6:	c5a1                	beqz	a1,ffffffff800019fe <deadlock_detect+0x530>
ffffffff800019b8:	fd340593          	addi	a1,s0,-45
ffffffff800019bc:	4615                	li	a2,5
ffffffff800019be:	160a                	slli	a2,a2,0x22
ffffffff800019c0:	666666b7          	lui	a3,0x66666
ffffffff800019c4:	6676869b          	addiw	a3,a3,1639 # 66666667 <$d.3+0x6665b919>
ffffffff800019c8:	4829                	li	a6,10
ffffffff800019ca:	47c9                	li	a5,18
ffffffff800019cc:	0005049b          	sext.w	s1,a0
ffffffff800019d0:	02d484b3          	mul	s1,s1,a3
ffffffff800019d4:	03f4d713          	srli	a4,s1,0x3f
ffffffff800019d8:	9489                	srai	s1,s1,0x22
ffffffff800019da:	9726                	add	a4,a4,s1
ffffffff800019dc:	030704b3          	mul	s1,a4,a6
ffffffff800019e0:	409504bb          	subw	s1,a0,s1
ffffffff800019e4:	03048493          	addi	s1,s1,48
ffffffff800019e8:	00958023          	sb	s1,0(a1)
ffffffff800019ec:	0095049b          	addiw	s1,a0,9
ffffffff800019f0:	964e                	add	a2,a2,s3
ffffffff800019f2:	15fd                	addi	a1,a1,-1
ffffffff800019f4:	853a                	mv	a0,a4
ffffffff800019f6:	fc97ebe3          	bltu	a5,s1,ffffffff800019cc <deadlock_detect+0x4fe>
ffffffff800019fa:	9601                	srai	a2,a2,0x20
ffffffff800019fc:	a031                	j	ffffffff80001a08 <deadlock_detect+0x53a>
ffffffff800019fe:	4601                	li	a2,0
ffffffff80001a00:	03000513          	li	a0,48
ffffffff80001a04:	fca41023          	sh	a0,-64(s0)
ffffffff80001a08:	fc040513          	addi	a0,s0,-64
ffffffff80001a0c:	962a                	add	a2,a2,a0
ffffffff80001a0e:	8000a537          	lui	a0,0x8000a
ffffffff80001a12:	04850513          	addi	a0,a0,72 # ffffffff8000a048 <block>
ffffffff80001a16:	4585                	li	a1,1
ffffffff80001a18:	06b5202f          	amoadd.w.aqrl	zero,a1,(a0)
ffffffff80001a1c:	00064683          	lbu	a3,0(a2)
ffffffff80001a20:	c28d                	beqz	a3,ffffffff80001a42 <deadlock_detect+0x574>
ffffffff80001a22:	4701                	li	a4,0
ffffffff80001a24:	100007b7          	lui	a5,0x10000
ffffffff80001a28:	0057c483          	lbu	s1,5(a5) # 10000005 <$d.3+0xfff52b7>
ffffffff80001a2c:	0204f493          	andi	s1,s1,32
ffffffff80001a30:	dce5                	beqz	s1,ffffffff80001a28 <deadlock_detect+0x55a>
ffffffff80001a32:	00d78023          	sb	a3,0(a5)
ffffffff80001a36:	0705                	addi	a4,a4,1
ffffffff80001a38:	00e606b3          	add	a3,a2,a4
ffffffff80001a3c:	0006c683          	lbu	a3,0(a3)
ffffffff80001a40:	f6e5                	bnez	a3,ffffffff80001a28 <deadlock_detect+0x55a>
ffffffff80001a42:	4601                	li	a2,0
ffffffff80001a44:	56fd                	li	a3,-1
ffffffff80001a46:	06d5202f          	amoadd.w.aqrl	zero,a3,(a0)
ffffffff80001a4a:	06b5202f          	amoadd.w.aqrl	zero,a1,(a0)
ffffffff80001a4e:	46a9                	li	a3,10
ffffffff80001a50:	10000537          	lui	a0,0x10000
ffffffff80001a54:	800085b7          	lui	a1,0x80008
ffffffff80001a58:	1e858593          	addi	a1,a1,488 # ffffffff800081e8 <$d.2+0xc2>
ffffffff80001a5c:	474d                	li	a4,19
ffffffff80001a5e:	00554783          	lbu	a5,5(a0) # 10000005 <$d.3+0xfff52b7>
ffffffff80001a62:	0207f793          	andi	a5,a5,32
ffffffff80001a66:	dfe5                	beqz	a5,ffffffff80001a5e <deadlock_detect+0x590>
ffffffff80001a68:	00d50023          	sb	a3,0(a0)
ffffffff80001a6c:	0605                	addi	a2,a2,1
ffffffff80001a6e:	00c586b3          	add	a3,a1,a2
ffffffff80001a72:	0006c683          	lbu	a3,0(a3)
ffffffff80001a76:	fee614e3          	bne	a2,a4,ffffffff80001a5e <deadlock_detect+0x590>
ffffffff80001a7a:	8000a537          	lui	a0,0x8000a
ffffffff80001a7e:	04850513          	addi	a0,a0,72 # ffffffff8000a048 <block>
ffffffff80001a82:	55fd                	li	a1,-1
ffffffff80001a84:	06b5202f          	amoadd.w.aqrl	zero,a1,(a0)
ffffffff80001a88:	4585                	li	a1,1
ffffffff80001a8a:	06b5202f          	amoadd.w.aqrl	zero,a1,(a0)
ffffffff80001a8e:	10000537          	lui	a0,0x10000
ffffffff80001a92:	00554583          	lbu	a1,5(a0) # 10000005 <$d.3+0xfff52b7>
ffffffff80001a96:	0205f593          	andi	a1,a1,32
ffffffff80001a9a:	dde5                	beqz	a1,ffffffff80001a92 <deadlock_detect+0x5c4>
ffffffff80001a9c:	10000537          	lui	a0,0x10000
ffffffff80001aa0:	45a9                	li	a1,10
ffffffff80001aa2:	00b50023          	sb	a1,0(a0) # 10000000 <$d.3+0xfff52b2>
ffffffff80001aa6:	00554583          	lbu	a1,5(a0)
ffffffff80001aaa:	0205f593          	andi	a1,a1,32
ffffffff80001aae:	dde5                	beqz	a1,ffffffff80001aa6 <deadlock_detect+0x5d8>
ffffffff80001ab0:	10000537          	lui	a0,0x10000
ffffffff80001ab4:	06600593          	li	a1,102
ffffffff80001ab8:	00b50023          	sb	a1,0(a0) # 10000000 <$d.3+0xfff52b2>
ffffffff80001abc:	00554583          	lbu	a1,5(a0)
ffffffff80001ac0:	0205f593          	andi	a1,a1,32
ffffffff80001ac4:	dde5                	beqz	a1,ffffffff80001abc <deadlock_detect+0x5ee>
ffffffff80001ac6:	10000537          	lui	a0,0x10000
ffffffff80001aca:	06900593          	li	a1,105
ffffffff80001ace:	00b50023          	sb	a1,0(a0) # 10000000 <$d.3+0xfff52b2>
ffffffff80001ad2:	00554583          	lbu	a1,5(a0)
ffffffff80001ad6:	0205f593          	andi	a1,a1,32
ffffffff80001ada:	dde5                	beqz	a1,ffffffff80001ad2 <deadlock_detect+0x604>
ffffffff80001adc:	10000537          	lui	a0,0x10000
ffffffff80001ae0:	06c00593          	li	a1,108
ffffffff80001ae4:	00b50023          	sb	a1,0(a0) # 10000000 <$d.3+0xfff52b2>
ffffffff80001ae8:	00554583          	lbu	a1,5(a0)
ffffffff80001aec:	0205f593          	andi	a1,a1,32
ffffffff80001af0:	dde5                	beqz	a1,ffffffff80001ae8 <deadlock_detect+0x61a>
ffffffff80001af2:	10000537          	lui	a0,0x10000
ffffffff80001af6:	06500593          	li	a1,101
ffffffff80001afa:	00b50023          	sb	a1,0(a0) # 10000000 <$d.3+0xfff52b2>
ffffffff80001afe:	00554583          	lbu	a1,5(a0)
ffffffff80001b02:	0205f593          	andi	a1,a1,32
ffffffff80001b06:	dde5                	beqz	a1,ffffffff80001afe <deadlock_detect+0x630>
ffffffff80001b08:	10000537          	lui	a0,0x10000
ffffffff80001b0c:	03a00593          	li	a1,58
ffffffff80001b10:	00b50023          	sb	a1,0(a0) # 10000000 <$d.3+0xfff52b2>
ffffffff80001b14:	00554583          	lbu	a1,5(a0)
ffffffff80001b18:	0205f593          	andi	a1,a1,32
ffffffff80001b1c:	dde5                	beqz	a1,ffffffff80001b14 <deadlock_detect+0x646>
ffffffff80001b1e:	10000537          	lui	a0,0x10000
ffffffff80001b22:	02000593          	li	a1,32
ffffffff80001b26:	00b50023          	sb	a1,0(a0) # 10000000 <$d.3+0xfff52b2>
ffffffff80001b2a:	8000a5b7          	lui	a1,0x8000a
ffffffff80001b2e:	04858593          	addi	a1,a1,72 # ffffffff8000a048 <block>
ffffffff80001b32:	587d                	li	a6,-1
ffffffff80001b34:	0705a02f          	amoadd.w.aqrl	zero,a6,(a1)
ffffffff80001b38:	00893703          	ld	a4,8(s2)
ffffffff80001b3c:	4685                	li	a3,1
ffffffff80001b3e:	06d5a02f          	amoadd.w.aqrl	zero,a3,(a1)
ffffffff80001b42:	00074783          	lbu	a5,0(a4)
ffffffff80001b46:	cf99                	beqz	a5,ffffffff80001b64 <deadlock_detect+0x696>
ffffffff80001b48:	4601                	li	a2,0
ffffffff80001b4a:	00554483          	lbu	s1,5(a0)
ffffffff80001b4e:	0204f493          	andi	s1,s1,32
ffffffff80001b52:	dce5                	beqz	s1,ffffffff80001b4a <deadlock_detect+0x67c>
ffffffff80001b54:	00f50023          	sb	a5,0(a0)
ffffffff80001b58:	0605                	addi	a2,a2,1
ffffffff80001b5a:	00c707b3          	add	a5,a4,a2
ffffffff80001b5e:	0007c783          	lbu	a5,0(a5)
ffffffff80001b62:	f7e5                	bnez	a5,ffffffff80001b4a <deadlock_detect+0x67c>
ffffffff80001b64:	0705a02f          	amoadd.w.aqrl	zero,a6,(a1)
ffffffff80001b68:	06d5a02f          	amoadd.w.aqrl	zero,a3,(a1)
ffffffff80001b6c:	00554583          	lbu	a1,5(a0)
ffffffff80001b70:	0205f593          	andi	a1,a1,32
ffffffff80001b74:	dde5                	beqz	a1,ffffffff80001b6c <deadlock_detect+0x69e>
ffffffff80001b76:	10000537          	lui	a0,0x10000
ffffffff80001b7a:	45a9                	li	a1,10
ffffffff80001b7c:	00b50023          	sb	a1,0(a0) # 10000000 <$d.3+0xfff52b2>
ffffffff80001b80:	00554583          	lbu	a1,5(a0)
ffffffff80001b84:	0205f593          	andi	a1,a1,32
ffffffff80001b88:	dde5                	beqz	a1,ffffffff80001b80 <deadlock_detect+0x6b2>
ffffffff80001b8a:	10000537          	lui	a0,0x10000
ffffffff80001b8e:	06600593          	li	a1,102
ffffffff80001b92:	00b50023          	sb	a1,0(a0) # 10000000 <$d.3+0xfff52b2>
ffffffff80001b96:	00554583          	lbu	a1,5(a0)
ffffffff80001b9a:	0205f593          	andi	a1,a1,32
ffffffff80001b9e:	dde5                	beqz	a1,ffffffff80001b96 <deadlock_detect+0x6c8>
ffffffff80001ba0:	10000537          	lui	a0,0x10000
ffffffff80001ba4:	07500593          	li	a1,117
ffffffff80001ba8:	00b50023          	sb	a1,0(a0) # 10000000 <$d.3+0xfff52b2>
ffffffff80001bac:	00554583          	lbu	a1,5(a0)
ffffffff80001bb0:	0205f593          	andi	a1,a1,32
ffffffff80001bb4:	dde5                	beqz	a1,ffffffff80001bac <deadlock_detect+0x6de>
ffffffff80001bb6:	10000537          	lui	a0,0x10000
ffffffff80001bba:	06e00593          	li	a1,110
ffffffff80001bbe:	00b50023          	sb	a1,0(a0) # 10000000 <$d.3+0xfff52b2>
ffffffff80001bc2:	00554583          	lbu	a1,5(a0)
ffffffff80001bc6:	0205f593          	andi	a1,a1,32
ffffffff80001bca:	dde5                	beqz	a1,ffffffff80001bc2 <deadlock_detect+0x6f4>
ffffffff80001bcc:	10000537          	lui	a0,0x10000
ffffffff80001bd0:	06300593          	li	a1,99
ffffffff80001bd4:	00b50023          	sb	a1,0(a0) # 10000000 <$d.3+0xfff52b2>
ffffffff80001bd8:	00554583          	lbu	a1,5(a0)
ffffffff80001bdc:	0205f593          	andi	a1,a1,32
ffffffff80001be0:	dde5                	beqz	a1,ffffffff80001bd8 <deadlock_detect+0x70a>
ffffffff80001be2:	10000537          	lui	a0,0x10000
ffffffff80001be6:	07400593          	li	a1,116
ffffffff80001bea:	00b50023          	sb	a1,0(a0) # 10000000 <$d.3+0xfff52b2>
ffffffff80001bee:	00554583          	lbu	a1,5(a0)
ffffffff80001bf2:	0205f593          	andi	a1,a1,32
ffffffff80001bf6:	dde5                	beqz	a1,ffffffff80001bee <deadlock_detect+0x720>
ffffffff80001bf8:	10000537          	lui	a0,0x10000
ffffffff80001bfc:	06900593          	li	a1,105
ffffffff80001c00:	00b50023          	sb	a1,0(a0) # 10000000 <$d.3+0xfff52b2>
ffffffff80001c04:	00554583          	lbu	a1,5(a0)
ffffffff80001c08:	0205f593          	andi	a1,a1,32
ffffffff80001c0c:	dde5                	beqz	a1,ffffffff80001c04 <deadlock_detect+0x736>
ffffffff80001c0e:	10000537          	lui	a0,0x10000
ffffffff80001c12:	06f00593          	li	a1,111
ffffffff80001c16:	00b50023          	sb	a1,0(a0) # 10000000 <$d.3+0xfff52b2>
ffffffff80001c1a:	00554583          	lbu	a1,5(a0)
ffffffff80001c1e:	0205f593          	andi	a1,a1,32
ffffffff80001c22:	dde5                	beqz	a1,ffffffff80001c1a <deadlock_detect+0x74c>
ffffffff80001c24:	10000537          	lui	a0,0x10000
ffffffff80001c28:	06e00593          	li	a1,110
ffffffff80001c2c:	00b50023          	sb	a1,0(a0) # 10000000 <$d.3+0xfff52b2>
ffffffff80001c30:	00554583          	lbu	a1,5(a0)
ffffffff80001c34:	0205f593          	andi	a1,a1,32
ffffffff80001c38:	dde5                	beqz	a1,ffffffff80001c30 <deadlock_detect+0x762>
ffffffff80001c3a:	10000537          	lui	a0,0x10000
ffffffff80001c3e:	03a00593          	li	a1,58
ffffffff80001c42:	00b50023          	sb	a1,0(a0) # 10000000 <$d.3+0xfff52b2>
ffffffff80001c46:	00554583          	lbu	a1,5(a0)
ffffffff80001c4a:	0205f593          	andi	a1,a1,32
ffffffff80001c4e:	dde5                	beqz	a1,ffffffff80001c46 <deadlock_detect+0x778>
ffffffff80001c50:	10000537          	lui	a0,0x10000
ffffffff80001c54:	02000593          	li	a1,32
ffffffff80001c58:	00b50023          	sb	a1,0(a0) # 10000000 <$d.3+0xfff52b2>
ffffffff80001c5c:	8000a5b7          	lui	a1,0x8000a
ffffffff80001c60:	04858593          	addi	a1,a1,72 # ffffffff8000a048 <block>
ffffffff80001c64:	587d                	li	a6,-1
ffffffff80001c66:	0705a02f          	amoadd.w.aqrl	zero,a6,(a1)
ffffffff80001c6a:	01093703          	ld	a4,16(s2)
ffffffff80001c6e:	4685                	li	a3,1
ffffffff80001c70:	06d5a02f          	amoadd.w.aqrl	zero,a3,(a1)
ffffffff80001c74:	00074783          	lbu	a5,0(a4)
ffffffff80001c78:	cf99                	beqz	a5,ffffffff80001c96 <deadlock_detect+0x7c8>
ffffffff80001c7a:	4601                	li	a2,0
ffffffff80001c7c:	00554483          	lbu	s1,5(a0)
ffffffff80001c80:	0204f493          	andi	s1,s1,32
ffffffff80001c84:	dce5                	beqz	s1,ffffffff80001c7c <deadlock_detect+0x7ae>
ffffffff80001c86:	00f50023          	sb	a5,0(a0)
ffffffff80001c8a:	0605                	addi	a2,a2,1
ffffffff80001c8c:	00c707b3          	add	a5,a4,a2
ffffffff80001c90:	0007c783          	lbu	a5,0(a5)
ffffffff80001c94:	f7e5                	bnez	a5,ffffffff80001c7c <deadlock_detect+0x7ae>
ffffffff80001c96:	0705a02f          	amoadd.w.aqrl	zero,a6,(a1)
ffffffff80001c9a:	06d5a02f          	amoadd.w.aqrl	zero,a3,(a1)
ffffffff80001c9e:	00554583          	lbu	a1,5(a0)
ffffffff80001ca2:	0205f593          	andi	a1,a1,32
ffffffff80001ca6:	dde5                	beqz	a1,ffffffff80001c9e <deadlock_detect+0x7d0>
ffffffff80001ca8:	10000537          	lui	a0,0x10000
ffffffff80001cac:	45a9                	li	a1,10
ffffffff80001cae:	00b50023          	sb	a1,0(a0) # 10000000 <$d.3+0xfff52b2>
ffffffff80001cb2:	00554583          	lbu	a1,5(a0)
ffffffff80001cb6:	0205f593          	andi	a1,a1,32
ffffffff80001cba:	dde5                	beqz	a1,ffffffff80001cb2 <deadlock_detect+0x7e4>
ffffffff80001cbc:	10000537          	lui	a0,0x10000
ffffffff80001cc0:	06c00593          	li	a1,108
ffffffff80001cc4:	00b50023          	sb	a1,0(a0) # 10000000 <$d.3+0xfff52b2>
ffffffff80001cc8:	00554583          	lbu	a1,5(a0)
ffffffff80001ccc:	0205f593          	andi	a1,a1,32
ffffffff80001cd0:	dde5                	beqz	a1,ffffffff80001cc8 <deadlock_detect+0x7fa>
ffffffff80001cd2:	10000537          	lui	a0,0x10000
ffffffff80001cd6:	06900593          	li	a1,105
ffffffff80001cda:	00b50023          	sb	a1,0(a0) # 10000000 <$d.3+0xfff52b2>
ffffffff80001cde:	00554583          	lbu	a1,5(a0)
ffffffff80001ce2:	0205f593          	andi	a1,a1,32
ffffffff80001ce6:	dde5                	beqz	a1,ffffffff80001cde <deadlock_detect+0x810>
ffffffff80001ce8:	10000537          	lui	a0,0x10000
ffffffff80001cec:	06e00593          	li	a1,110
ffffffff80001cf0:	00b50023          	sb	a1,0(a0) # 10000000 <$d.3+0xfff52b2>
ffffffff80001cf4:	00554583          	lbu	a1,5(a0)
ffffffff80001cf8:	0205f593          	andi	a1,a1,32
ffffffff80001cfc:	dde5                	beqz	a1,ffffffff80001cf4 <deadlock_detect+0x826>
ffffffff80001cfe:	10000537          	lui	a0,0x10000
ffffffff80001d02:	06500593          	li	a1,101
ffffffff80001d06:	00b50023          	sb	a1,0(a0) # 10000000 <$d.3+0xfff52b2>
ffffffff80001d0a:	00554583          	lbu	a1,5(a0)
ffffffff80001d0e:	0205f593          	andi	a1,a1,32
ffffffff80001d12:	dde5                	beqz	a1,ffffffff80001d0a <deadlock_detect+0x83c>
ffffffff80001d14:	10000537          	lui	a0,0x10000
ffffffff80001d18:	03a00593          	li	a1,58
ffffffff80001d1c:	00b50023          	sb	a1,0(a0) # 10000000 <$d.3+0xfff52b2>
ffffffff80001d20:	00554583          	lbu	a1,5(a0)
ffffffff80001d24:	0205f593          	andi	a1,a1,32
ffffffff80001d28:	dde5                	beqz	a1,ffffffff80001d20 <deadlock_detect+0x852>
ffffffff80001d2a:	10000537          	lui	a0,0x10000
ffffffff80001d2e:	02000593          	li	a1,32
ffffffff80001d32:	00b50023          	sb	a1,0(a0) # 10000000 <$d.3+0xfff52b2>
ffffffff80001d36:	8000a537          	lui	a0,0x8000a
ffffffff80001d3a:	04850513          	addi	a0,a0,72 # ffffffff8000a048 <block>
ffffffff80001d3e:	55fd                	li	a1,-1
ffffffff80001d40:	06b5202f          	amoadd.w.aqrl	zero,a1,(a0)
ffffffff80001d44:	fc040a23          	sb	zero,-44(s0)
ffffffff80001d48:	fc042823          	sw	zero,-48(s0)
ffffffff80001d4c:	fc043423          	sd	zero,-56(s0)
ffffffff80001d50:	fc043023          	sd	zero,-64(s0)
ffffffff80001d54:	01892703          	lw	a4,24(s2)
ffffffff80001d58:	c331                	beqz	a4,ffffffff80001d9c <deadlock_detect+0x8ce>
ffffffff80001d5a:	fd340513          	addi	a0,s0,-45
ffffffff80001d5e:	4595                	li	a1,5
ffffffff80001d60:	158a                	slli	a1,a1,0x22
ffffffff80001d62:	666666b7          	lui	a3,0x66666
ffffffff80001d66:	6676869b          	addiw	a3,a3,1639 # 66666667 <$d.3+0x6665b919>
ffffffff80001d6a:	4829                	li	a6,10
ffffffff80001d6c:	48c9                	li	a7,18
ffffffff80001d6e:	02d704b3          	mul	s1,a4,a3
ffffffff80001d72:	03f4d793          	srli	a5,s1,0x3f
ffffffff80001d76:	9489                	srai	s1,s1,0x22
ffffffff80001d78:	9fa5                	addw	a5,a5,s1
ffffffff80001d7a:	030784b3          	mul	s1,a5,a6
ffffffff80001d7e:	4097063b          	subw	a2,a4,s1
ffffffff80001d82:	03060613          	addi	a2,a2,48
ffffffff80001d86:	00c50023          	sb	a2,0(a0)
ffffffff80001d8a:	0097061b          	addiw	a2,a4,9
ffffffff80001d8e:	95ce                	add	a1,a1,s3
ffffffff80001d90:	157d                	addi	a0,a0,-1
ffffffff80001d92:	873e                	mv	a4,a5
ffffffff80001d94:	fcc8ede3          	bltu	a7,a2,ffffffff80001d6e <deadlock_detect+0x8a0>
ffffffff80001d98:	9581                	srai	a1,a1,0x20
ffffffff80001d9a:	a031                	j	ffffffff80001da6 <deadlock_detect+0x8d8>
ffffffff80001d9c:	4581                	li	a1,0
ffffffff80001d9e:	03000513          	li	a0,48
ffffffff80001da2:	fca41023          	sh	a0,-64(s0)
ffffffff80001da6:	fc040613          	addi	a2,s0,-64
ffffffff80001daa:	962e                	add	a2,a2,a1
ffffffff80001dac:	8000a537          	lui	a0,0x8000a
ffffffff80001db0:	04850513          	addi	a0,a0,72 # ffffffff8000a048 <block>
ffffffff80001db4:	4585                	li	a1,1
ffffffff80001db6:	06b5202f          	amoadd.w.aqrl	zero,a1,(a0)
ffffffff80001dba:	00064683          	lbu	a3,0(a2)
ffffffff80001dbe:	c28d                	beqz	a3,ffffffff80001de0 <deadlock_detect+0x912>
ffffffff80001dc0:	4701                	li	a4,0
ffffffff80001dc2:	100007b7          	lui	a5,0x10000
ffffffff80001dc6:	0057c483          	lbu	s1,5(a5) # 10000005 <$d.3+0xfff52b7>
ffffffff80001dca:	0204f493          	andi	s1,s1,32
ffffffff80001dce:	dce5                	beqz	s1,ffffffff80001dc6 <deadlock_detect+0x8f8>
ffffffff80001dd0:	00d78023          	sb	a3,0(a5)
ffffffff80001dd4:	0705                	addi	a4,a4,1
ffffffff80001dd6:	00e606b3          	add	a3,a2,a4
ffffffff80001dda:	0006c683          	lbu	a3,0(a3)
ffffffff80001dde:	f6e5                	bnez	a3,ffffffff80001dc6 <deadlock_detect+0x8f8>
ffffffff80001de0:	567d                	li	a2,-1
ffffffff80001de2:	06c5202f          	amoadd.w.aqrl	zero,a2,(a0)
ffffffff80001de6:	06b5202f          	amoadd.w.aqrl	zero,a1,(a0)
ffffffff80001dea:	10000537          	lui	a0,0x10000
ffffffff80001dee:	00554583          	lbu	a1,5(a0) # 10000005 <$d.3+0xfff52b7>
ffffffff80001df2:	0205f593          	andi	a1,a1,32
ffffffff80001df6:	dde5                	beqz	a1,ffffffff80001dee <deadlock_detect+0x920>
ffffffff80001df8:	10000537          	lui	a0,0x10000
ffffffff80001dfc:	45a9                	li	a1,10
ffffffff80001dfe:	00b50023          	sb	a1,0(a0) # 10000000 <$d.3+0xfff52b2>
ffffffff80001e02:	00554583          	lbu	a1,5(a0)
ffffffff80001e06:	0205f593          	andi	a1,a1,32
ffffffff80001e0a:	dde5                	beqz	a1,ffffffff80001e02 <deadlock_detect+0x934>
ffffffff80001e0c:	10000537          	lui	a0,0x10000
ffffffff80001e10:	06300593          	li	a1,99
ffffffff80001e14:	00b50023          	sb	a1,0(a0) # 10000000 <$d.3+0xfff52b2>
ffffffff80001e18:	00554583          	lbu	a1,5(a0)
ffffffff80001e1c:	0205f593          	andi	a1,a1,32
ffffffff80001e20:	dde5                	beqz	a1,ffffffff80001e18 <deadlock_detect+0x94a>
ffffffff80001e22:	10000537          	lui	a0,0x10000
ffffffff80001e26:	07000593          	li	a1,112
ffffffff80001e2a:	00b50023          	sb	a1,0(a0) # 10000000 <$d.3+0xfff52b2>
ffffffff80001e2e:	00554583          	lbu	a1,5(a0)
ffffffff80001e32:	0205f593          	andi	a1,a1,32
ffffffff80001e36:	dde5                	beqz	a1,ffffffff80001e2e <deadlock_detect+0x960>
ffffffff80001e38:	10000537          	lui	a0,0x10000
ffffffff80001e3c:	07500593          	li	a1,117
ffffffff80001e40:	00b50023          	sb	a1,0(a0) # 10000000 <$d.3+0xfff52b2>
ffffffff80001e44:	00554583          	lbu	a1,5(a0)
ffffffff80001e48:	0205f593          	andi	a1,a1,32
ffffffff80001e4c:	dde5                	beqz	a1,ffffffff80001e44 <deadlock_detect+0x976>
ffffffff80001e4e:	10000537          	lui	a0,0x10000
ffffffff80001e52:	03a00593          	li	a1,58
ffffffff80001e56:	00b50023          	sb	a1,0(a0) # 10000000 <$d.3+0xfff52b2>
ffffffff80001e5a:	00554583          	lbu	a1,5(a0)
ffffffff80001e5e:	0205f593          	andi	a1,a1,32
ffffffff80001e62:	dde5                	beqz	a1,ffffffff80001e5a <deadlock_detect+0x98c>
ffffffff80001e64:	10000537          	lui	a0,0x10000
ffffffff80001e68:	02000593          	li	a1,32
ffffffff80001e6c:	00b50023          	sb	a1,0(a0) # 10000000 <$d.3+0xfff52b2>
ffffffff80001e70:	8000a537          	lui	a0,0x8000a
ffffffff80001e74:	04850513          	addi	a0,a0,72 # ffffffff8000a048 <block>
ffffffff80001e78:	55fd                	li	a1,-1
ffffffff80001e7a:	06b5202f          	amoadd.w.aqrl	zero,a1,(a0)
ffffffff80001e7e:	fc040a23          	sb	zero,-44(s0)
ffffffff80001e82:	fc042823          	sw	zero,-48(s0)
ffffffff80001e86:	fc043423          	sd	zero,-56(s0)
ffffffff80001e8a:	fc043023          	sd	zero,-64(s0)
ffffffff80001e8e:	02092703          	lw	a4,32(s2)
ffffffff80001e92:	c331                	beqz	a4,ffffffff80001ed6 <deadlock_detect+0xa08>
ffffffff80001e94:	fd340513          	addi	a0,s0,-45
ffffffff80001e98:	4615                	li	a2,5
ffffffff80001e9a:	160a                	slli	a2,a2,0x22
ffffffff80001e9c:	666666b7          	lui	a3,0x66666
ffffffff80001ea0:	6676869b          	addiw	a3,a3,1639 # 66666667 <$d.3+0x6665b919>
ffffffff80001ea4:	4829                	li	a6,10
ffffffff80001ea6:	48c9                	li	a7,18
ffffffff80001ea8:	02d704b3          	mul	s1,a4,a3
ffffffff80001eac:	03f4d793          	srli	a5,s1,0x3f
ffffffff80001eb0:	9489                	srai	s1,s1,0x22
ffffffff80001eb2:	9fa5                	addw	a5,a5,s1
ffffffff80001eb4:	030784b3          	mul	s1,a5,a6
ffffffff80001eb8:	409705bb          	subw	a1,a4,s1
ffffffff80001ebc:	03058593          	addi	a1,a1,48
ffffffff80001ec0:	00b50023          	sb	a1,0(a0)
ffffffff80001ec4:	0097059b          	addiw	a1,a4,9
ffffffff80001ec8:	964e                	add	a2,a2,s3
ffffffff80001eca:	157d                	addi	a0,a0,-1
ffffffff80001ecc:	873e                	mv	a4,a5
ffffffff80001ece:	fcb8ede3          	bltu	a7,a1,ffffffff80001ea8 <deadlock_detect+0x9da>
ffffffff80001ed2:	9601                	srai	a2,a2,0x20
ffffffff80001ed4:	a031                	j	ffffffff80001ee0 <deadlock_detect+0xa12>
ffffffff80001ed6:	4601                	li	a2,0
ffffffff80001ed8:	03000513          	li	a0,48
ffffffff80001edc:	fca41023          	sh	a0,-64(s0)
ffffffff80001ee0:	fc040513          	addi	a0,s0,-64
ffffffff80001ee4:	962a                	add	a2,a2,a0
ffffffff80001ee6:	8000a537          	lui	a0,0x8000a
ffffffff80001eea:	04850513          	addi	a0,a0,72 # ffffffff8000a048 <block>
ffffffff80001eee:	4585                	li	a1,1
ffffffff80001ef0:	06b5202f          	amoadd.w.aqrl	zero,a1,(a0)
ffffffff80001ef4:	00064683          	lbu	a3,0(a2)
ffffffff80001ef8:	c28d                	beqz	a3,ffffffff80001f1a <deadlock_detect+0xa4c>
ffffffff80001efa:	4701                	li	a4,0
ffffffff80001efc:	100007b7          	lui	a5,0x10000
ffffffff80001f00:	0057c483          	lbu	s1,5(a5) # 10000005 <$d.3+0xfff52b7>
ffffffff80001f04:	0204f493          	andi	s1,s1,32
ffffffff80001f08:	dce5                	beqz	s1,ffffffff80001f00 <deadlock_detect+0xa32>
ffffffff80001f0a:	00d78023          	sb	a3,0(a5)
ffffffff80001f0e:	0705                	addi	a4,a4,1
ffffffff80001f10:	00e606b3          	add	a3,a2,a4
ffffffff80001f14:	0006c683          	lbu	a3,0(a3)
ffffffff80001f18:	f6e5                	bnez	a3,ffffffff80001f00 <deadlock_detect+0xa32>
ffffffff80001f1a:	4601                	li	a2,0
ffffffff80001f1c:	56fd                	li	a3,-1
ffffffff80001f1e:	06d5202f          	amoadd.w.aqrl	zero,a3,(a0)
ffffffff80001f22:	06b5202f          	amoadd.w.aqrl	zero,a1,(a0)
ffffffff80001f26:	46a9                	li	a3,10
ffffffff80001f28:	10000537          	lui	a0,0x10000
ffffffff80001f2c:	800085b7          	lui	a1,0x80008
ffffffff80001f30:	1fc58593          	addi	a1,a1,508 # ffffffff800081fc <$d.2+0xd6>
ffffffff80001f34:	02600713          	li	a4,38
ffffffff80001f38:	00554783          	lbu	a5,5(a0) # 10000005 <$d.3+0xfff52b7>
ffffffff80001f3c:	0207f793          	andi	a5,a5,32
ffffffff80001f40:	dfe5                	beqz	a5,ffffffff80001f38 <deadlock_detect+0xa6a>
ffffffff80001f42:	00d50023          	sb	a3,0(a0)
ffffffff80001f46:	0605                	addi	a2,a2,1
ffffffff80001f48:	00c586b3          	add	a3,a1,a2
ffffffff80001f4c:	0006c683          	lbu	a3,0(a3)
ffffffff80001f50:	fee614e3          	bne	a2,a4,ffffffff80001f38 <deadlock_detect+0xa6a>
ffffffff80001f54:	8000a537          	lui	a0,0x8000a
ffffffff80001f58:	04850513          	addi	a0,a0,72 # ffffffff8000a048 <block>
ffffffff80001f5c:	587d                	li	a6,-1
ffffffff80001f5e:	0705202f          	amoadd.w.aqrl	zero,a6,(a0)
ffffffff80001f62:	fc043423          	sd	zero,-56(s0)
ffffffff80001f66:	fc040a23          	sb	zero,-44(s0)
ffffffff80001f6a:	fc043023          	sd	zero,-64(s0)
ffffffff80001f6e:	34364637          	lui	a2,0x34364
ffffffff80001f72:	83860613          	addi	a2,a2,-1992 # 34363838 <$d.3+0x34358aea>
ffffffff80001f76:	fcc42823          	sw	a2,-48(s0)
ffffffff80001f7a:	30313637          	lui	a2,0x30313
ffffffff80001f7e:	73660613          	addi	a2,a2,1846 # 30313736 <$d.3+0x303089e8>
ffffffff80001f82:	fcc42623          	sw	a2,-52(s0)
ffffffff80001f86:	4605                	li	a2,1
ffffffff80001f88:	06c5202f          	amoadd.w.aqrl	zero,a2,(a0)
ffffffff80001f8c:	fcc44683          	lbu	a3,-52(s0)
ffffffff80001f90:	c29d                	beqz	a3,ffffffff80001fb6 <deadlock_detect+0xae8>
ffffffff80001f92:	4701                	li	a4,0
ffffffff80001f94:	fcc40793          	addi	a5,s0,-52
ffffffff80001f98:	100004b7          	lui	s1,0x10000
ffffffff80001f9c:	0054c583          	lbu	a1,5(s1) # 10000005 <$d.3+0xfff52b7>
ffffffff80001fa0:	0205f593          	andi	a1,a1,32
ffffffff80001fa4:	dde5                	beqz	a1,ffffffff80001f9c <deadlock_detect+0xace>
ffffffff80001fa6:	00d48023          	sb	a3,0(s1)
ffffffff80001faa:	0705                	addi	a4,a4,1
ffffffff80001fac:	00e785b3          	add	a1,a5,a4
ffffffff80001fb0:	0005c683          	lbu	a3,0(a1)
ffffffff80001fb4:	f6e5                	bnez	a3,ffffffff80001f9c <deadlock_detect+0xace>
ffffffff80001fb6:	0705202f          	amoadd.w.aqrl	zero,a6,(a0)
ffffffff80001fba:	06c5202f          	amoadd.w.aqrl	zero,a2,(a0)
ffffffff80001fbe:	10000537          	lui	a0,0x10000
ffffffff80001fc2:	00554583          	lbu	a1,5(a0) # 10000005 <$d.3+0xfff52b7>
ffffffff80001fc6:	0205f593          	andi	a1,a1,32
ffffffff80001fca:	dde5                	beqz	a1,ffffffff80001fc2 <deadlock_detect+0xaf4>
ffffffff80001fcc:	10000537          	lui	a0,0x10000
ffffffff80001fd0:	02000593          	li	a1,32
ffffffff80001fd4:	00b50023          	sb	a1,0(a0) # 10000000 <$d.3+0xfff52b2>
ffffffff80001fd8:	00554583          	lbu	a1,5(a0)
ffffffff80001fdc:	0205f593          	andi	a1,a1,32
ffffffff80001fe0:	dde5                	beqz	a1,ffffffff80001fd8 <deadlock_detect+0xb0a>
ffffffff80001fe2:	10000537          	lui	a0,0x10000
ffffffff80001fe6:	06900593          	li	a1,105
ffffffff80001fea:	00b50023          	sb	a1,0(a0) # 10000000 <$d.3+0xfff52b2>
ffffffff80001fee:	00554583          	lbu	a1,5(a0)
ffffffff80001ff2:	0205f593          	andi	a1,a1,32
ffffffff80001ff6:	dde5                	beqz	a1,ffffffff80001fee <deadlock_detect+0xb20>
ffffffff80001ff8:	10000537          	lui	a0,0x10000
ffffffff80001ffc:	07400593          	li	a1,116
ffffffff80002000:	00b50023          	sb	a1,0(a0) # 10000000 <$d.3+0xfff52b2>
ffffffff80002004:	00554583          	lbu	a1,5(a0)
ffffffff80002008:	0205f593          	andi	a1,a1,32
ffffffff8000200c:	dde5                	beqz	a1,ffffffff80002004 <deadlock_detect+0xb36>
ffffffff8000200e:	10000537          	lui	a0,0x10000
ffffffff80002012:	06500593          	li	a1,101
ffffffff80002016:	00b50023          	sb	a1,0(a0) # 10000000 <$d.3+0xfff52b2>
ffffffff8000201a:	00554583          	lbu	a1,5(a0)
ffffffff8000201e:	0205f593          	andi	a1,a1,32
ffffffff80002022:	dde5                	beqz	a1,ffffffff8000201a <deadlock_detect+0xb4c>
ffffffff80002024:	10000537          	lui	a0,0x10000
ffffffff80002028:	07200593          	li	a1,114
ffffffff8000202c:	00b50023          	sb	a1,0(a0) # 10000000 <$d.3+0xfff52b2>
ffffffff80002030:	00554583          	lbu	a1,5(a0)
ffffffff80002034:	0205f593          	andi	a1,a1,32
ffffffff80002038:	dde5                	beqz	a1,ffffffff80002030 <deadlock_detect+0xb62>
ffffffff8000203a:	10000537          	lui	a0,0x10000
ffffffff8000203e:	06100593          	li	a1,97
ffffffff80002042:	00b50023          	sb	a1,0(a0) # 10000000 <$d.3+0xfff52b2>
ffffffff80002046:	00554583          	lbu	a1,5(a0)
ffffffff8000204a:	0205f593          	andi	a1,a1,32
ffffffff8000204e:	dde5                	beqz	a1,ffffffff80002046 <deadlock_detect+0xb78>
ffffffff80002050:	10000537          	lui	a0,0x10000
ffffffff80002054:	07400593          	li	a1,116
ffffffff80002058:	00b50023          	sb	a1,0(a0) # 10000000 <$d.3+0xfff52b2>
ffffffff8000205c:	00554583          	lbu	a1,5(a0)
ffffffff80002060:	0205f593          	andi	a1,a1,32
ffffffff80002064:	dde5                	beqz	a1,ffffffff8000205c <deadlock_detect+0xb8e>
ffffffff80002066:	10000537          	lui	a0,0x10000
ffffffff8000206a:	06900593          	li	a1,105
ffffffff8000206e:	00b50023          	sb	a1,0(a0) # 10000000 <$d.3+0xfff52b2>
ffffffff80002072:	00554583          	lbu	a1,5(a0)
ffffffff80002076:	0205f593          	andi	a1,a1,32
ffffffff8000207a:	dde5                	beqz	a1,ffffffff80002072 <deadlock_detect+0xba4>
ffffffff8000207c:	10000537          	lui	a0,0x10000
ffffffff80002080:	06f00593          	li	a1,111
ffffffff80002084:	00b50023          	sb	a1,0(a0) # 10000000 <$d.3+0xfff52b2>
ffffffff80002088:	00554583          	lbu	a1,5(a0)
ffffffff8000208c:	0205f593          	andi	a1,a1,32
ffffffff80002090:	dde5                	beqz	a1,ffffffff80002088 <deadlock_detect+0xbba>
ffffffff80002092:	10000537          	lui	a0,0x10000
ffffffff80002096:	06e00593          	li	a1,110
ffffffff8000209a:	00b50023          	sb	a1,0(a0) # 10000000 <$d.3+0xfff52b2>
ffffffff8000209e:	00554583          	lbu	a1,5(a0)
ffffffff800020a2:	0205f593          	andi	a1,a1,32
ffffffff800020a6:	dde5                	beqz	a1,ffffffff8000209e <deadlock_detect+0xbd0>
ffffffff800020a8:	10000537          	lui	a0,0x10000
ffffffff800020ac:	07300593          	li	a1,115
ffffffff800020b0:	00b50023          	sb	a1,0(a0) # 10000000 <$d.3+0xfff52b2>
ffffffff800020b4:	00554583          	lbu	a1,5(a0)
ffffffff800020b8:	0205f593          	andi	a1,a1,32
ffffffff800020bc:	dde5                	beqz	a1,ffffffff800020b4 <deadlock_detect+0xbe6>
ffffffff800020be:	10000537          	lui	a0,0x10000
ffffffff800020c2:	45a9                	li	a1,10
ffffffff800020c4:	00b50023          	sb	a1,0(a0) # 10000000 <$d.3+0xfff52b2>
ffffffff800020c8:	00554583          	lbu	a1,5(a0)
ffffffff800020cc:	0205f593          	andi	a1,a1,32
ffffffff800020d0:	dde5                	beqz	a1,ffffffff800020c8 <deadlock_detect+0xbfa>
ffffffff800020d2:	10000537          	lui	a0,0x10000
ffffffff800020d6:	02d00593          	li	a1,45
ffffffff800020da:	00b50023          	sb	a1,0(a0) # 10000000 <$d.3+0xfff52b2>
ffffffff800020de:	00554583          	lbu	a1,5(a0)
ffffffff800020e2:	0205f593          	andi	a1,a1,32
ffffffff800020e6:	dde5                	beqz	a1,ffffffff800020de <deadlock_detect+0xc10>
ffffffff800020e8:	10000537          	lui	a0,0x10000
ffffffff800020ec:	02d00593          	li	a1,45
ffffffff800020f0:	00b50023          	sb	a1,0(a0) # 10000000 <$d.3+0xfff52b2>
ffffffff800020f4:	00554583          	lbu	a1,5(a0)
ffffffff800020f8:	0205f593          	andi	a1,a1,32
ffffffff800020fc:	dde5                	beqz	a1,ffffffff800020f4 <deadlock_detect+0xc26>
ffffffff800020fe:	10000537          	lui	a0,0x10000
ffffffff80002102:	02d00593          	li	a1,45
ffffffff80002106:	00b50023          	sb	a1,0(a0) # 10000000 <$d.3+0xfff52b2>
ffffffff8000210a:	00554583          	lbu	a1,5(a0)
ffffffff8000210e:	0205f593          	andi	a1,a1,32
ffffffff80002112:	dde5                	beqz	a1,ffffffff8000210a <deadlock_detect+0xc3c>
ffffffff80002114:	10000537          	lui	a0,0x10000
ffffffff80002118:	45a9                	li	a1,10
ffffffff8000211a:	00b50023          	sb	a1,0(a0) # 10000000 <$d.3+0xfff52b2>
ffffffff8000211e:	8000a537          	lui	a0,0x8000a
ffffffff80002122:	04850513          	addi	a0,a0,72 # ffffffff8000a048 <block>
ffffffff80002126:	55fd                	li	a1,-1
ffffffff80002128:	06b5202f          	amoadd.w.aqrl	zero,a1,(a0)
ffffffff8000212c:	8000a537          	lui	a0,0x8000a
ffffffff80002130:	04450513          	addi	a0,a0,68 # ffffffff8000a044 <deadlock_detect_lock>
ffffffff80002134:	0e05202f          	amoswap.w.aqrl	zero,zero,(a0)
ffffffff80002138:	70e2                	ld	ra,56(sp)
ffffffff8000213a:	7442                	ld	s0,48(sp)
ffffffff8000213c:	74a2                	ld	s1,40(sp)
ffffffff8000213e:	7902                	ld	s2,32(sp)
ffffffff80002140:	69e2                	ld	s3,24(sp)
ffffffff80002142:	6121                	addi	sp,sp,64
ffffffff80002144:	8082                	ret

ffffffff80002146 <spinlock_try_lock_normal>:
ffffffff80002146:	1101                	addi	sp,sp,-32
ffffffff80002148:	ec06                	sd	ra,24(sp)
ffffffff8000214a:	e822                	sd	s0,16(sp)
ffffffff8000214c:	e426                	sd	s1,8(sp)
ffffffff8000214e:	e04a                	sd	s2,0(sp)
ffffffff80002150:	1000                	addi	s0,sp,32
ffffffff80002152:	84aa                	mv	s1,a0
ffffffff80002154:	fffff097          	auipc	ra,0xfffff
ffffffff80002158:	a12080e7          	jalr	-1518(ra) # ffffffff80000b66 <arch_disable_interrupts>
ffffffff8000215c:	4585                	li	a1,1
ffffffff8000215e:	0eb4a4af          	amoswap.w.aqrl	s1,a1,(s1)
ffffffff80002162:	892a                	mv	s2,a0
ffffffff80002164:	e489                	bnez	s1,ffffffff8000216e <spinlock_try_lock_normal+0x28>
ffffffff80002166:	ffffe097          	auipc	ra,0xffffe
ffffffff8000216a:	47c080e7          	jalr	1148(ra) # ffffffff800005e2 <arch_cpu_increment_preempt_counter>
ffffffff8000216e:	00090663          	beqz	s2,ffffffff8000217a <spinlock_try_lock_normal+0x34>
ffffffff80002172:	fffff097          	auipc	ra,0xfffff
ffffffff80002176:	9d8080e7          	jalr	-1576(ra) # ffffffff80000b4a <arch_enable_interrupts>
ffffffff8000217a:	8526                	mv	a0,s1
ffffffff8000217c:	60e2                	ld	ra,24(sp)
ffffffff8000217e:	6442                	ld	s0,16(sp)
ffffffff80002180:	64a2                	ld	s1,8(sp)
ffffffff80002182:	6902                	ld	s2,0(sp)
ffffffff80002184:	6105                	addi	sp,sp,32
ffffffff80002186:	8082                	ret

ffffffff80002188 <spinlock_lock_normal>:
ffffffff80002188:	1101                	addi	sp,sp,-32
ffffffff8000218a:	ec06                	sd	ra,24(sp)
ffffffff8000218c:	e822                	sd	s0,16(sp)
ffffffff8000218e:	e426                	sd	s1,8(sp)
ffffffff80002190:	e04a                	sd	s2,0(sp)
ffffffff80002192:	1000                	addi	s0,sp,32
ffffffff80002194:	84aa                	mv	s1,a0
ffffffff80002196:	fffff097          	auipc	ra,0xfffff
ffffffff8000219a:	9d0080e7          	jalr	-1584(ra) # ffffffff80000b66 <arch_disable_interrupts>
ffffffff8000219e:	892a                	mv	s2,a0
ffffffff800021a0:	ffffe097          	auipc	ra,0xffffe
ffffffff800021a4:	442080e7          	jalr	1090(ra) # ffffffff800005e2 <arch_cpu_increment_preempt_counter>
ffffffff800021a8:	00090663          	beqz	s2,ffffffff800021b4 <spinlock_lock_normal+0x2c>
ffffffff800021ac:	fffff097          	auipc	ra,0xfffff
ffffffff800021b0:	99e080e7          	jalr	-1634(ra) # ffffffff80000b4a <arch_enable_interrupts>
ffffffff800021b4:	4505                	li	a0,1
ffffffff800021b6:	0ea4a5af          	amoswap.w.aqrl	a1,a0,(s1)
ffffffff800021ba:	fdf5                	bnez	a1,ffffffff800021b6 <spinlock_lock_normal+0x2e>
ffffffff800021bc:	60e2                	ld	ra,24(sp)
ffffffff800021be:	6442                	ld	s0,16(sp)
ffffffff800021c0:	64a2                	ld	s1,8(sp)
ffffffff800021c2:	6902                	ld	s2,0(sp)
ffffffff800021c4:	6105                	addi	sp,sp,32
ffffffff800021c6:	8082                	ret

ffffffff800021c8 <spinlock_unlock>:
ffffffff800021c8:	1101                	addi	sp,sp,-32
ffffffff800021ca:	ec06                	sd	ra,24(sp)
ffffffff800021cc:	e822                	sd	s0,16(sp)
ffffffff800021ce:	e426                	sd	s1,8(sp)
ffffffff800021d0:	e04a                	sd	s2,0(sp)
ffffffff800021d2:	1000                	addi	s0,sp,32
ffffffff800021d4:	84aa                	mv	s1,a0
ffffffff800021d6:	fffff097          	auipc	ra,0xfffff
ffffffff800021da:	990080e7          	jalr	-1648(ra) # ffffffff80000b66 <arch_disable_interrupts>
ffffffff800021de:	892a                	mv	s2,a0
ffffffff800021e0:	0310000f          	fence	rw,w
ffffffff800021e4:	0004a023          	sw	zero,0(s1)
ffffffff800021e8:	ffffe097          	auipc	ra,0xffffe
ffffffff800021ec:	494080e7          	jalr	1172(ra) # ffffffff8000067c <arch_cpu_decrement_preempt_counter>
ffffffff800021f0:	00090b63          	beqz	s2,ffffffff80002206 <spinlock_unlock+0x3e>
ffffffff800021f4:	60e2                	ld	ra,24(sp)
ffffffff800021f6:	6442                	ld	s0,16(sp)
ffffffff800021f8:	64a2                	ld	s1,8(sp)
ffffffff800021fa:	6902                	ld	s2,0(sp)
ffffffff800021fc:	6105                	addi	sp,sp,32
ffffffff800021fe:	fffff317          	auipc	t1,0xfffff
ffffffff80002202:	94c30067          	jr	-1716(t1) # ffffffff80000b4a <arch_enable_interrupts>
ffffffff80002206:	60e2                	ld	ra,24(sp)
ffffffff80002208:	6442                	ld	s0,16(sp)
ffffffff8000220a:	64a2                	ld	s1,8(sp)
ffffffff8000220c:	6902                	ld	s2,0(sp)
ffffffff8000220e:	6105                	addi	sp,sp,32
ffffffff80002210:	8082                	ret

ffffffff80002212 <arch_thread_init_regs>:
ffffffff80002212:	7179                	addi	sp,sp,-48
ffffffff80002214:	f406                	sd	ra,40(sp)
ffffffff80002216:	f022                	sd	s0,32(sp)
ffffffff80002218:	ec26                	sd	s1,24(sp)
ffffffff8000221a:	e84a                	sd	s2,16(sp)
ffffffff8000221c:	e44e                	sd	s3,8(sp)
ffffffff8000221e:	1800                	addi	s0,sp,48
ffffffff80002220:	8932                	mv	s2,a2
ffffffff80002222:	89ae                	mv	s3,a1
ffffffff80002224:	84aa                	mv	s1,a0
ffffffff80002226:	00000097          	auipc	ra,0x0
ffffffff8000222a:	630080e7          	jalr	1584(ra) # ffffffff80002856 <get_cpu_struct>
ffffffff8000222e:	00a48c23          	sb	a0,24(s1)
ffffffff80002232:	03855593          	srli	a1,a0,0x38
ffffffff80002236:	00b48fa3          	sb	a1,31(s1)
ffffffff8000223a:	03055593          	srli	a1,a0,0x30
ffffffff8000223e:	00b48f23          	sb	a1,30(s1)
ffffffff80002242:	02855593          	srli	a1,a0,0x28
ffffffff80002246:	00b48ea3          	sb	a1,29(s1)
ffffffff8000224a:	02055593          	srli	a1,a0,0x20
ffffffff8000224e:	00b48e23          	sb	a1,28(s1)
ffffffff80002252:	01855593          	srli	a1,a0,0x18
ffffffff80002256:	00b48da3          	sb	a1,27(s1)
ffffffff8000225a:	01055593          	srli	a1,a0,0x10
ffffffff8000225e:	00b48d23          	sb	a1,26(s1)
ffffffff80002262:	8121                	srli	a0,a0,0x8
ffffffff80002264:	00a48ca3          	sb	a0,25(s1)
ffffffff80002268:	00000097          	auipc	ra,0x0
ffffffff8000226c:	5fe080e7          	jalr	1534(ra) # ffffffff80002866 <get_kernel_gp>
ffffffff80002270:	00a48823          	sb	a0,16(s1)
ffffffff80002274:	03855593          	srli	a1,a0,0x38
ffffffff80002278:	00b48ba3          	sb	a1,23(s1)
ffffffff8000227c:	03055593          	srli	a1,a0,0x30
ffffffff80002280:	00b48b23          	sb	a1,22(s1)
ffffffff80002284:	02855593          	srli	a1,a0,0x28
ffffffff80002288:	00b48aa3          	sb	a1,21(s1)
ffffffff8000228c:	02055593          	srli	a1,a0,0x20
ffffffff80002290:	00b48a23          	sb	a1,20(s1)
ffffffff80002294:	01855593          	srli	a1,a0,0x18
ffffffff80002298:	00b489a3          	sb	a1,19(s1)
ffffffff8000229c:	01055593          	srli	a1,a0,0x10
ffffffff800022a0:	00b48923          	sb	a1,18(s1)
ffffffff800022a4:	8121                	srli	a0,a0,0x8
ffffffff800022a6:	00a488a3          	sb	a0,17(s1)
ffffffff800022aa:	1104c503          	lbu	a0,272(s1)
ffffffff800022ae:	1114c583          	lbu	a1,273(s1)
ffffffff800022b2:	1124c883          	lbu	a7,274(s1)
ffffffff800022b6:	1134c283          	lbu	t0,275(s1)
ffffffff800022ba:	05a2                	slli	a1,a1,0x8
ffffffff800022bc:	8d4d                	or	a0,a0,a1
ffffffff800022be:	01089593          	slli	a1,a7,0x10
ffffffff800022c2:	01829713          	slli	a4,t0,0x18
ffffffff800022c6:	8dd9                	or	a1,a1,a4
ffffffff800022c8:	1144c703          	lbu	a4,276(s1)
ffffffff800022cc:	1154c303          	lbu	t1,277(s1)
ffffffff800022d0:	00a5e833          	or	a6,a1,a0
ffffffff800022d4:	1164c583          	lbu	a1,278(s1)
ffffffff800022d8:	1174c603          	lbu	a2,279(s1)
ffffffff800022dc:	00831793          	slli	a5,t1,0x8
ffffffff800022e0:	8fd9                	or	a5,a5,a4
ffffffff800022e2:	01059693          	slli	a3,a1,0x10
ffffffff800022e6:	01861513          	slli	a0,a2,0x18
ffffffff800022ea:	8d55                	or	a0,a0,a3
ffffffff800022ec:	8d5d                	or	a0,a0,a5
ffffffff800022ee:	1502                	slli	a0,a0,0x20
ffffffff800022f0:	01056533          	or	a0,a0,a6
ffffffff800022f4:	12256513          	ori	a0,a0,290
ffffffff800022f8:	10b48b23          	sb	a1,278(s1)
ffffffff800022fc:	10c48ba3          	sb	a2,279(s1)
ffffffff80002300:	10e48a23          	sb	a4,276(s1)
ffffffff80002304:	10648aa3          	sb	t1,277(s1)
ffffffff80002308:	11148923          	sb	a7,274(s1)
ffffffff8000230c:	105489a3          	sb	t0,275(s1)
ffffffff80002310:	10a48823          	sb	a0,272(s1)
ffffffff80002314:	8121                	srli	a0,a0,0x8
ffffffff80002316:	10a488a3          	sb	a0,273(s1)
ffffffff8000231a:	08099063          	bnez	s3,ffffffff8000239a <arch_thread_init_regs+0x188>
ffffffff8000231e:	00093503          	ld	a0,0(s2)
ffffffff80002322:	0ea48c23          	sb	a0,248(s1)
ffffffff80002326:	03855593          	srli	a1,a0,0x38
ffffffff8000232a:	0eb48fa3          	sb	a1,255(s1)
ffffffff8000232e:	03055593          	srli	a1,a0,0x30
ffffffff80002332:	0eb48f23          	sb	a1,254(s1)
ffffffff80002336:	02855593          	srli	a1,a0,0x28
ffffffff8000233a:	0eb48ea3          	sb	a1,253(s1)
ffffffff8000233e:	02055593          	srli	a1,a0,0x20
ffffffff80002342:	0eb48e23          	sb	a1,252(s1)
ffffffff80002346:	01855593          	srli	a1,a0,0x18
ffffffff8000234a:	0eb48da3          	sb	a1,251(s1)
ffffffff8000234e:	01055593          	srli	a1,a0,0x10
ffffffff80002352:	0eb48d23          	sb	a1,250(s1)
ffffffff80002356:	8121                	srli	a0,a0,0x8
ffffffff80002358:	0ea48ca3          	sb	a0,249(s1)
ffffffff8000235c:	00893503          	ld	a0,8(s2)
ffffffff80002360:	03055593          	srli	a1,a0,0x30
ffffffff80002364:	04b48723          	sb	a1,78(s1)
ffffffff80002368:	03855593          	srli	a1,a0,0x38
ffffffff8000236c:	04b487a3          	sb	a1,79(s1)
ffffffff80002370:	02055593          	srli	a1,a0,0x20
ffffffff80002374:	04b48623          	sb	a1,76(s1)
ffffffff80002378:	02855593          	srli	a1,a0,0x28
ffffffff8000237c:	04b486a3          	sb	a1,77(s1)
ffffffff80002380:	01055593          	srli	a1,a0,0x10
ffffffff80002384:	04b48523          	sb	a1,74(s1)
ffffffff80002388:	01855593          	srli	a1,a0,0x18
ffffffff8000238c:	04b485a3          	sb	a1,75(s1)
ffffffff80002390:	04a48423          	sb	a0,72(s1)
ffffffff80002394:	8121                	srli	a0,a0,0x8
ffffffff80002396:	04a484a3          	sb	a0,73(s1)
ffffffff8000239a:	70a2                	ld	ra,40(sp)
ffffffff8000239c:	7402                	ld	s0,32(sp)
ffffffff8000239e:	64e2                	ld	s1,24(sp)
ffffffff800023a0:	6942                	ld	s2,16(sp)
ffffffff800023a2:	69a2                	ld	s3,8(sp)
ffffffff800023a4:	6145                	addi	sp,sp,48
ffffffff800023a6:	8082                	ret

ffffffff800023a8 <arch_thread_set_stack>:
ffffffff800023a8:	1141                	addi	sp,sp,-16
ffffffff800023aa:	e406                	sd	ra,8(sp)
ffffffff800023ac:	e022                	sd	s0,0(sp)
ffffffff800023ae:	0800                	addi	s0,sp,16
ffffffff800023b0:	00b50423          	sb	a1,8(a0)
ffffffff800023b4:	0385d613          	srli	a2,a1,0x38
ffffffff800023b8:	00c507a3          	sb	a2,15(a0)
ffffffff800023bc:	0305d613          	srli	a2,a1,0x30
ffffffff800023c0:	00c50723          	sb	a2,14(a0)
ffffffff800023c4:	0285d613          	srli	a2,a1,0x28
ffffffff800023c8:	00c506a3          	sb	a2,13(a0)
ffffffff800023cc:	0205d613          	srli	a2,a1,0x20
ffffffff800023d0:	00c50623          	sb	a2,12(a0)
ffffffff800023d4:	0185d613          	srli	a2,a1,0x18
ffffffff800023d8:	00c505a3          	sb	a2,11(a0)
ffffffff800023dc:	0105d613          	srli	a2,a1,0x10
ffffffff800023e0:	00c50523          	sb	a2,10(a0)
ffffffff800023e4:	81a1                	srli	a1,a1,0x8
ffffffff800023e6:	00b504a3          	sb	a1,9(a0)
ffffffff800023ea:	60a2                	ld	ra,8(sp)
ffffffff800023ec:	6402                	ld	s0,0(sp)
ffffffff800023ee:	0141                	addi	sp,sp,16
ffffffff800023f0:	8082                	ret

ffffffff800023f2 <arch_vmm_preinit>:
ffffffff800023f2:	1141                	addi	sp,sp,-16
ffffffff800023f4:	e406                	sd	ra,8(sp)
ffffffff800023f6:	e022                	sd	s0,0(sp)
ffffffff800023f8:	0800                	addi	s0,sp,16
ffffffff800023fa:	80009537          	lui	a0,0x80009
ffffffff800023fe:	23053503          	ld	a0,560(a0) # ffffffff80009230 <MEM_PHYS_OFFSET>
ffffffff80002402:	55fd                	li	a1,-1
ffffffff80002404:	03859613          	slli	a2,a1,0x38
ffffffff80002408:	00c50d63          	beq	a0,a2,ffffffff80002422 <arch_vmm_preinit+0x30>
ffffffff8000240c:	159a                	slli	a1,a1,0x26
ffffffff8000240e:	00b50863          	beq	a0,a1,ffffffff8000241e <arch_vmm_preinit+0x2c>
ffffffff80002412:	55fd                	li	a1,-1
ffffffff80002414:	15be                	slli	a1,a1,0x2f
ffffffff80002416:	00b51b63          	bne	a0,a1,ffffffff8000242c <arch_vmm_preinit+0x3a>
ffffffff8000241a:	4511                	li	a0,4
ffffffff8000241c:	a021                	j	ffffffff80002424 <arch_vmm_preinit+0x32>
ffffffff8000241e:	450d                	li	a0,3
ffffffff80002420:	a011                	j	ffffffff80002424 <arch_vmm_preinit+0x32>
ffffffff80002422:	4515                	li	a0,5
ffffffff80002424:	800095b7          	lui	a1,0x80009
ffffffff80002428:	22a5b423          	sd	a0,552(a1) # ffffffff80009228 <max_level>
ffffffff8000242c:	60a2                	ld	ra,8(sp)
ffffffff8000242e:	6402                	ld	s0,0(sp)
ffffffff80002430:	0141                	addi	sp,sp,16
ffffffff80002432:	8082                	ret

ffffffff80002434 <vmm_setup_pt>:
ffffffff80002434:	1101                	addi	sp,sp,-32
ffffffff80002436:	ec06                	sd	ra,24(sp)
ffffffff80002438:	e822                	sd	s0,16(sp)
ffffffff8000243a:	e426                	sd	s1,8(sp)
ffffffff8000243c:	1000                	addi	s0,sp,32
ffffffff8000243e:	4521                	li	a0,8
ffffffff80002440:	00000097          	auipc	ra,0x0
ffffffff80002444:	73a080e7          	jalr	1850(ra) # ffffffff80002b7a <kmalloc>
ffffffff80002448:	84aa                	mv	s1,a0
ffffffff8000244a:	4505                	li	a0,1
ffffffff8000244c:	00001097          	auipc	ra,0x1
ffffffff80002450:	fac080e7          	jalr	-84(ra) # ffffffff800033f8 <pmm_alloc>
ffffffff80002454:	e088                	sd	a0,0(s1)
ffffffff80002456:	0004a423          	sw	zero,8(s1)
ffffffff8000245a:	80008537          	lui	a0,0x80008
ffffffff8000245e:	50f50513          	addi	a0,a0,1295 # ffffffff8000850f <$d.1>
ffffffff80002462:	e888                	sd	a0,16(s1)
ffffffff80002464:	ec88                	sd	a0,24(s1)
ffffffff80002466:	0204a023          	sw	zero,32(s1)
ffffffff8000246a:	557d                	li	a0,-1
ffffffff8000246c:	f488                	sd	a0,40(s1)
ffffffff8000246e:	8000a537          	lui	a0,0x8000a
ffffffff80002472:	07053583          	ld	a1,112(a0) # ffffffff8000a070 <VmmKernelBase>
ffffffff80002476:	8000a537          	lui	a0,0x8000a
ffffffff8000247a:	8000a637          	lui	a2,0x8000a
ffffffff8000247e:	08063683          	ld	a3,128(a2) # ffffffff8000a080 <VmmKernelSize>
ffffffff80002482:	07853603          	ld	a2,120(a0) # ffffffff8000a078 <VmmPhysicalKernelBase>
ffffffff80002486:	6505                	lui	a0,0x1
ffffffff80002488:	357d                	addiw	a0,a0,-1 # fff <$d.3+0x5d>
ffffffff8000248a:	9536                	add	a0,a0,a3
ffffffff8000248c:	00c55693          	srli	a3,a0,0xc
ffffffff80002490:	4739                	li	a4,14
ffffffff80002492:	8526                	mv	a0,s1
ffffffff80002494:	4781                	li	a5,0
ffffffff80002496:	00000097          	auipc	ra,0x0
ffffffff8000249a:	0ac080e7          	jalr	172(ra) # ffffffff80002542 <vmm_map_advanced>
ffffffff8000249e:	80009537          	lui	a0,0x80009
ffffffff800024a2:	23053583          	ld	a1,560(a0) # ffffffff80009230 <MEM_PHYS_OFFSET>
ffffffff800024a6:	668d                	lui	a3,0x3
ffffffff800024a8:	4739                	li	a4,14
ffffffff800024aa:	4785                	li	a5,1
ffffffff800024ac:	8526                	mv	a0,s1
ffffffff800024ae:	4601                	li	a2,0
ffffffff800024b0:	00000097          	auipc	ra,0x0
ffffffff800024b4:	092080e7          	jalr	146(ra) # ffffffff80002542 <vmm_map_advanced>
ffffffff800024b8:	8526                	mv	a0,s1
ffffffff800024ba:	60e2                	ld	ra,24(sp)
ffffffff800024bc:	6442                	ld	s0,16(sp)
ffffffff800024be:	64a2                	ld	s1,8(sp)
ffffffff800024c0:	6105                	addi	sp,sp,32
ffffffff800024c2:	8082                	ret

ffffffff800024c4 <vmm_map>:
ffffffff800024c4:	1141                	addi	sp,sp,-16
ffffffff800024c6:	e406                	sd	ra,8(sp)
ffffffff800024c8:	e022                	sd	s0,0(sp)
ffffffff800024ca:	0800                	addi	s0,sp,16
ffffffff800024cc:	4781                	li	a5,0
ffffffff800024ce:	60a2                	ld	ra,8(sp)
ffffffff800024d0:	6402                	ld	s0,0(sp)
ffffffff800024d2:	0141                	addi	sp,sp,16
ffffffff800024d4:	00000317          	auipc	t1,0x0
ffffffff800024d8:	06e30067          	jr	110(t1) # ffffffff80002542 <vmm_map_advanced>

ffffffff800024dc <vmm_map_huge>:
ffffffff800024dc:	1141                	addi	sp,sp,-16
ffffffff800024de:	e406                	sd	ra,8(sp)
ffffffff800024e0:	e022                	sd	s0,0(sp)
ffffffff800024e2:	0800                	addi	s0,sp,16
ffffffff800024e4:	4785                	li	a5,1
ffffffff800024e6:	60a2                	ld	ra,8(sp)
ffffffff800024e8:	6402                	ld	s0,0(sp)
ffffffff800024ea:	0141                	addi	sp,sp,16
ffffffff800024ec:	00000317          	auipc	t1,0x0
ffffffff800024f0:	05630067          	jr	86(t1) # ffffffff80002542 <vmm_map_advanced>

ffffffff800024f4 <riscv_vmm_create_satp>:
ffffffff800024f4:	1141                	addi	sp,sp,-16
ffffffff800024f6:	e406                	sd	ra,8(sp)
ffffffff800024f8:	e022                	sd	s0,0(sp)
ffffffff800024fa:	0800                	addi	s0,sp,16
ffffffff800024fc:	800095b7          	lui	a1,0x80009
ffffffff80002500:	2285b583          	ld	a1,552(a1) # ffffffff80009228 <max_level>
ffffffff80002504:	15f2                	slli	a1,a1,0x3c
ffffffff80002506:	8131                	srli	a0,a0,0xc
ffffffff80002508:	8d4d                	or	a0,a0,a1
ffffffff8000250a:	4595                	li	a1,5
ffffffff8000250c:	15f2                	slli	a1,a1,0x3c
ffffffff8000250e:	952e                	add	a0,a0,a1
ffffffff80002510:	60a2                	ld	ra,8(sp)
ffffffff80002512:	6402                	ld	s0,0(sp)
ffffffff80002514:	0141                	addi	sp,sp,16
ffffffff80002516:	8082                	ret

ffffffff80002518 <vmm_set_pt>:
ffffffff80002518:	1141                	addi	sp,sp,-16
ffffffff8000251a:	e406                	sd	ra,8(sp)
ffffffff8000251c:	e022                	sd	s0,0(sp)
ffffffff8000251e:	0800                	addi	s0,sp,16
ffffffff80002520:	800095b7          	lui	a1,0x80009
ffffffff80002524:	2285b583          	ld	a1,552(a1) # ffffffff80009228 <max_level>
ffffffff80002528:	6108                	ld	a0,0(a0)
ffffffff8000252a:	15f2                	slli	a1,a1,0x3c
ffffffff8000252c:	8131                	srli	a0,a0,0xc
ffffffff8000252e:	8d4d                	or	a0,a0,a1
ffffffff80002530:	4595                	li	a1,5
ffffffff80002532:	15f2                	slli	a1,a1,0x3c
ffffffff80002534:	952e                	add	a0,a0,a1
ffffffff80002536:	18051573          	.insn	4, 0x18051573
ffffffff8000253a:	60a2                	ld	ra,8(sp)
ffffffff8000253c:	6402                	ld	s0,0(sp)
ffffffff8000253e:	0141                	addi	sp,sp,16
ffffffff80002540:	8082                	ret

ffffffff80002542 <vmm_map_advanced>:
ffffffff80002542:	7171                	addi	sp,sp,-176
ffffffff80002544:	f506                	sd	ra,168(sp)
ffffffff80002546:	f122                	sd	s0,160(sp)
ffffffff80002548:	ed26                	sd	s1,152(sp)
ffffffff8000254a:	e94a                	sd	s2,144(sp)
ffffffff8000254c:	e54e                	sd	s3,136(sp)
ffffffff8000254e:	e152                	sd	s4,128(sp)
ffffffff80002550:	fcd6                	sd	s5,120(sp)
ffffffff80002552:	f8da                	sd	s6,112(sp)
ffffffff80002554:	f4de                	sd	s7,104(sp)
ffffffff80002556:	f0e2                	sd	s8,96(sp)
ffffffff80002558:	ece6                	sd	s9,88(sp)
ffffffff8000255a:	e8ea                	sd	s10,80(sp)
ffffffff8000255c:	e4ee                	sd	s11,72(sp)
ffffffff8000255e:	1900                	addi	s0,sp,176
ffffffff80002560:	f6f43023          	sd	a5,-160(s0)
ffffffff80002564:	8bba                	mv	s7,a4
ffffffff80002566:	8ab6                	mv	s5,a3
ffffffff80002568:	8a32                	mv	s4,a2
ffffffff8000256a:	84ae                	mv	s1,a1
ffffffff8000256c:	8b2a                	mv	s6,a0
ffffffff8000256e:	0521                	addi	a0,a0,8
ffffffff80002570:	800085b7          	lui	a1,0x80008
ffffffff80002574:	55458593          	addi	a1,a1,1364 # ffffffff80008554 <$d.1+0x45>
ffffffff80002578:	80008637          	lui	a2,0x80008
ffffffff8000257c:	15460613          	addi	a2,a2,340 # ffffffff80008154 <$d.2+0x2e>
ffffffff80002580:	800086b7          	lui	a3,0x80008
ffffffff80002584:	59b68693          	addi	a3,a3,1435 # ffffffff8000859b <$d.1+0x8c>
ffffffff80002588:	06300713          	li	a4,99
ffffffff8000258c:	f6a43423          	sd	a0,-152(s0)
ffffffff80002590:	fffff097          	auipc	ra,0xfffff
ffffffff80002594:	e94080e7          	jalr	-364(ra) # ffffffff80001424 <spinlock_lock_debug>
ffffffff80002598:	120a8e63          	beqz	s5,ffffffff800026d4 <vmm_map_advanced+0x192>
ffffffff8000259c:	3febf513          	andi	a0,s7,1022
ffffffff800025a0:	f4a43c23          	sd	a0,-168(s0)
ffffffff800025a4:	80009cb7          	lui	s9,0x80009
ffffffff800025a8:	4d89                	li	s11,2
ffffffff800025aa:	02b49513          	slli	a0,s1,0x2b
ffffffff800025ae:	03755c13          	srli	s8,a0,0x37
ffffffff800025b2:	f7843823          	sd	s8,-144(s0)
ffffffff800025b6:	01949513          	slli	a0,s1,0x19
ffffffff800025ba:	915d                	srli	a0,a0,0x37
ffffffff800025bc:	f8a43023          	sd	a0,-128(s0)
ffffffff800025c0:	01049513          	slli	a0,s1,0x10
ffffffff800025c4:	915d                	srli	a0,a0,0x37
ffffffff800025c6:	f8a43423          	sd	a0,-120(s0)
ffffffff800025ca:	00749513          	slli	a0,s1,0x7
ffffffff800025ce:	03755593          	srli	a1,a0,0x37
ffffffff800025d2:	000b3603          	ld	a2,0(s6)
ffffffff800025d6:	230cb503          	ld	a0,560(s9) # ffffffff80009230 <MEM_PHYS_OFFSET>
ffffffff800025da:	f8b43823          	sd	a1,-112(s0)
ffffffff800025de:	02249593          	slli	a1,s1,0x22
ffffffff800025e2:	0375dd13          	srli	s10,a1,0x37
ffffffff800025e6:	00c505b3          	add	a1,a0,a2
ffffffff800025ea:	f7a43c23          	sd	s10,-136(s0)
ffffffff800025ee:	cded                	beqz	a1,ffffffff800026e8 <vmm_map_advanced+0x1a6>
ffffffff800025f0:	80009637          	lui	a2,0x80009
ffffffff800025f4:	22863b83          	ld	s7,552(a2) # ffffffff80009228 <max_level>
ffffffff800025f8:	1afd                	addi	s5,s5,-1
ffffffff800025fa:	003b9913          	slli	s2,s7,0x3
ffffffff800025fe:	f6840613          	addi	a2,s0,-152
ffffffff80002602:	9932                	add	s2,s2,a2
ffffffff80002604:	a02d                	j	ffffffff8000262e <vmm_map_advanced+0xec>
ffffffff80002606:	00255593          	srli	a1,a0,0x2
ffffffff8000260a:	0015e513          	ori	a0,a1,1
ffffffff8000260e:	00a9b023          	sd	a0,0(s3)
ffffffff80002612:	230cb503          	ld	a0,560(s9)
ffffffff80002616:	81a9                	srli	a1,a1,0xa
ffffffff80002618:	05b2                	slli	a1,a1,0xc
ffffffff8000261a:	00a5f633          	and	a2,a1,a0
ffffffff8000261e:	00163613          	seqz	a2,a2
ffffffff80002622:	167d                	addi	a2,a2,-1
ffffffff80002624:	8e69                	and	a2,a2,a0
ffffffff80002626:	8dd1                	or	a1,a1,a2
ffffffff80002628:	95aa                	add	a1,a1,a0
ffffffff8000262a:	1961                	addi	s2,s2,-8
ffffffff8000262c:	cdd5                	beqz	a1,ffffffff800026e8 <vmm_map_advanced+0x1a6>
ffffffff8000262e:	1bfd                	addi	s7,s7,-1
ffffffff80002630:	03bbe363          	bltu	s7,s11,ffffffff80002656 <vmm_map_advanced+0x114>
ffffffff80002634:	00093603          	ld	a2,0(s2)
ffffffff80002638:	060e                	slli	a2,a2,0x3
ffffffff8000263a:	00c589b3          	add	s3,a1,a2
ffffffff8000263e:	0009b583          	ld	a1,0(s3)
ffffffff80002642:	0015f613          	andi	a2,a1,1
ffffffff80002646:	fa61                	bnez	a2,ffffffff80002616 <vmm_map_advanced+0xd4>
ffffffff80002648:	4505                	li	a0,1
ffffffff8000264a:	00001097          	auipc	ra,0x1
ffffffff8000264e:	dae080e7          	jalr	-594(ra) # ffffffff800033f8 <pmm_alloc>
ffffffff80002652:	f955                	bnez	a0,ffffffff80002606 <vmm_map_advanced+0xc4>
ffffffff80002654:	a841                	j	ffffffff800026e4 <vmm_map_advanced+0x1a2>
ffffffff80002656:	f6043603          	ld	a2,-160(s0)
ffffffff8000265a:	ce11                	beqz	a2,ffffffff80002676 <vmm_map_advanced+0x134>
ffffffff8000265c:	002a5513          	srli	a0,s4,0x2
ffffffff80002660:	f5843603          	ld	a2,-168(s0)
ffffffff80002664:	8d51                	or	a0,a0,a2
ffffffff80002666:	00156513          	ori	a0,a0,1
ffffffff8000266a:	0d0e                	slli	s10,s10,0x3
ffffffff8000266c:	95ea                	add	a1,a1,s10
ffffffff8000266e:	e188                	sd	a0,0(a1)
ffffffff80002670:	00200537          	lui	a0,0x200
ffffffff80002674:	a8a1                	j	ffffffff800026cc <vmm_map_advanced+0x18a>
ffffffff80002676:	003d1913          	slli	s2,s10,0x3
ffffffff8000267a:	992e                	add	s2,s2,a1
ffffffff8000267c:	00093583          	ld	a1,0(s2)
ffffffff80002680:	0015f613          	andi	a2,a1,1
ffffffff80002684:	ee19                	bnez	a2,ffffffff800026a2 <vmm_map_advanced+0x160>
ffffffff80002686:	4505                	li	a0,1
ffffffff80002688:	00001097          	auipc	ra,0x1
ffffffff8000268c:	d70080e7          	jalr	-656(ra) # ffffffff800033f8 <pmm_alloc>
ffffffff80002690:	c939                	beqz	a0,ffffffff800026e6 <vmm_map_advanced+0x1a4>
ffffffff80002692:	00255593          	srli	a1,a0,0x2
ffffffff80002696:	0015e513          	ori	a0,a1,1
ffffffff8000269a:	00a93023          	sd	a0,0(s2)
ffffffff8000269e:	230cb503          	ld	a0,560(s9)
ffffffff800026a2:	81a9                	srli	a1,a1,0xa
ffffffff800026a4:	05b2                	slli	a1,a1,0xc
ffffffff800026a6:	00a5f633          	and	a2,a1,a0
ffffffff800026aa:	00163613          	seqz	a2,a2
ffffffff800026ae:	167d                	addi	a2,a2,-1
ffffffff800026b0:	8e69                	and	a2,a2,a0
ffffffff800026b2:	8dd1                	or	a1,a1,a2
ffffffff800026b4:	002a5613          	srli	a2,s4,0x2
ffffffff800026b8:	f5843683          	ld	a3,-168(s0)
ffffffff800026bc:	8e55                	or	a2,a2,a3
ffffffff800026be:	00166613          	ori	a2,a2,1
ffffffff800026c2:	0c0e                	slli	s8,s8,0x3
ffffffff800026c4:	9562                	add	a0,a0,s8
ffffffff800026c6:	952e                	add	a0,a0,a1
ffffffff800026c8:	e110                	sd	a2,0(a0)
ffffffff800026ca:	6505                	lui	a0,0x1
ffffffff800026cc:	94aa                	add	s1,s1,a0
ffffffff800026ce:	9a2a                	add	s4,s4,a0
ffffffff800026d0:	ec0a9de3          	bnez	s5,ffffffff800025aa <vmm_map_advanced+0x68>
ffffffff800026d4:	f6843503          	ld	a0,-152(s0)
ffffffff800026d8:	00000097          	auipc	ra,0x0
ffffffff800026dc:	af0080e7          	jalr	-1296(ra) # ffffffff800021c8 <spinlock_unlock>
ffffffff800026e0:	4505                	li	a0,1
ffffffff800026e2:	a811                	j	ffffffff800026f6 <vmm_map_advanced+0x1b4>
ffffffff800026e4:	a001                	j	ffffffff800026e4 <vmm_map_advanced+0x1a2>
ffffffff800026e6:	a001                	j	ffffffff800026e6 <vmm_map_advanced+0x1a4>
ffffffff800026e8:	f6843503          	ld	a0,-152(s0)
ffffffff800026ec:	00000097          	auipc	ra,0x0
ffffffff800026f0:	adc080e7          	jalr	-1316(ra) # ffffffff800021c8 <spinlock_unlock>
ffffffff800026f4:	4501                	li	a0,0
ffffffff800026f6:	70aa                	ld	ra,168(sp)
ffffffff800026f8:	740a                	ld	s0,160(sp)
ffffffff800026fa:	64ea                	ld	s1,152(sp)
ffffffff800026fc:	694a                	ld	s2,144(sp)
ffffffff800026fe:	69aa                	ld	s3,136(sp)
ffffffff80002700:	6a0a                	ld	s4,128(sp)
ffffffff80002702:	7ae6                	ld	s5,120(sp)
ffffffff80002704:	7b46                	ld	s6,112(sp)
ffffffff80002706:	7ba6                	ld	s7,104(sp)
ffffffff80002708:	7c06                	ld	s8,96(sp)
ffffffff8000270a:	6ce6                	ld	s9,88(sp)
ffffffff8000270c:	6d46                	ld	s10,80(sp)
ffffffff8000270e:	6da6                	ld	s11,72(sp)
ffffffff80002710:	614d                	addi	sp,sp,176
ffffffff80002712:	8082                	ret

ffffffff80002714 <vmm_unmap>:
ffffffff80002714:	711d                	addi	sp,sp,-96
ffffffff80002716:	ec86                	sd	ra,88(sp)
ffffffff80002718:	e8a2                	sd	s0,80(sp)
ffffffff8000271a:	e4a6                	sd	s1,72(sp)
ffffffff8000271c:	e0ca                	sd	s2,64(sp)
ffffffff8000271e:	fc4e                	sd	s3,56(sp)
ffffffff80002720:	f852                	sd	s4,48(sp)
ffffffff80002722:	1080                	addi	s0,sp,96
ffffffff80002724:	89b2                	mv	s3,a2
ffffffff80002726:	8a2e                	mv	s4,a1
ffffffff80002728:	84aa                	mv	s1,a0
ffffffff8000272a:	00850913          	addi	s2,a0,8 # 1008 <$d.3+0x66>
ffffffff8000272e:	80008537          	lui	a0,0x80008
ffffffff80002732:	55450593          	addi	a1,a0,1364 # ffffffff80008554 <$d.1+0x45>
ffffffff80002736:	80008537          	lui	a0,0x80008
ffffffff8000273a:	78650613          	addi	a2,a0,1926 # ffffffff80008786 <$d.2+0x81>
ffffffff8000273e:	80008537          	lui	a0,0x80008
ffffffff80002742:	59b50693          	addi	a3,a0,1435 # ffffffff8000859b <$d.1+0x8c>
ffffffff80002746:	08f00713          	li	a4,143
ffffffff8000274a:	854a                	mv	a0,s2
ffffffff8000274c:	fffff097          	auipc	ra,0xfffff
ffffffff80002750:	cd8080e7          	jalr	-808(ra) # ffffffff80001424 <spinlock_lock_debug>
ffffffff80002754:	0c098c63          	beqz	s3,ffffffff8000282c <vmm_unmap+0x118>
ffffffff80002758:	0004b383          	ld	t2,0(s1)
ffffffff8000275c:	fa040893          	addi	a7,s0,-96
ffffffff80002760:	80009337          	lui	t1,0x80009
ffffffff80002764:	800092b7          	lui	t0,0x80009
ffffffff80002768:	4709                	li	a4,2
ffffffff8000276a:	20000813          	li	a6,512
ffffffff8000276e:	02ba1493          	slli	s1,s4,0x2b
ffffffff80002772:	0374de93          	srli	t4,s1,0x37
ffffffff80002776:	fbd43423          	sd	t4,-88(s0)
ffffffff8000277a:	022a1693          	slli	a3,s4,0x22
ffffffff8000277e:	92dd                	srli	a3,a3,0x37
ffffffff80002780:	019a1513          	slli	a0,s4,0x19
ffffffff80002784:	915d                	srli	a0,a0,0x37
ffffffff80002786:	faa43c23          	sd	a0,-72(s0)
ffffffff8000278a:	010a1513          	slli	a0,s4,0x10
ffffffff8000278e:	915d                	srli	a0,a0,0x37
ffffffff80002790:	fca43023          	sd	a0,-64(s0)
ffffffff80002794:	23033783          	ld	a5,560(t1) # ffffffff80009230 <MEM_PHYS_OFFSET>
ffffffff80002798:	007a1513          	slli	a0,s4,0x7
ffffffff8000279c:	915d                	srli	a0,a0,0x37
ffffffff8000279e:	fca43423          	sd	a0,-56(s0)
ffffffff800027a2:	007785b3          	add	a1,a5,t2
ffffffff800027a6:	fad43823          	sd	a3,-80(s0)
ffffffff800027aa:	c9c1                	beqz	a1,ffffffff8000283a <vmm_unmap+0x126>
ffffffff800027ac:	2282b603          	ld	a2,552(t0) # ffffffff80009228 <max_level>
ffffffff800027b0:	fff98e13          	addi	t3,s3,-1
ffffffff800027b4:	00361513          	slli	a0,a2,0x3
ffffffff800027b8:	9546                	add	a0,a0,a7
ffffffff800027ba:	167d                	addi	a2,a2,-1
ffffffff800027bc:	02e66663          	bltu	a2,a4,ffffffff800027e8 <vmm_unmap+0xd4>
ffffffff800027c0:	6104                	ld	s1,0(a0)
ffffffff800027c2:	048e                	slli	s1,s1,0x3
ffffffff800027c4:	95a6                	add	a1,a1,s1
ffffffff800027c6:	6184                	ld	s1,0(a1)
ffffffff800027c8:	0014f593          	andi	a1,s1,1
ffffffff800027cc:	c5bd                	beqz	a1,ffffffff8000283a <vmm_unmap+0x126>
ffffffff800027ce:	80a9                	srli	s1,s1,0xa
ffffffff800027d0:	04b2                	slli	s1,s1,0xc
ffffffff800027d2:	00f4f5b3          	and	a1,s1,a5
ffffffff800027d6:	0015b593          	seqz	a1,a1
ffffffff800027da:	15fd                	addi	a1,a1,-1
ffffffff800027dc:	8dfd                	and	a1,a1,a5
ffffffff800027de:	8dc5                	or	a1,a1,s1
ffffffff800027e0:	95be                	add	a1,a1,a5
ffffffff800027e2:	1561                	addi	a0,a0,-8
ffffffff800027e4:	f9f9                	bnez	a1,ffffffff800027ba <vmm_unmap+0xa6>
ffffffff800027e6:	a891                	j	ffffffff8000283a <vmm_unmap+0x126>
ffffffff800027e8:	068e                	slli	a3,a3,0x3
ffffffff800027ea:	95b6                	add	a1,a1,a3
ffffffff800027ec:	6188                	ld	a0,0(a1)
ffffffff800027ee:	00e57613          	andi	a2,a0,14
ffffffff800027f2:	ca11                	beqz	a2,ffffffff80002806 <vmm_unmap+0xf2>
ffffffff800027f4:	0509e363          	bltu	s3,a6,ffffffff8000283a <vmm_unmap+0x126>
ffffffff800027f8:	0005b023          	sd	zero,0(a1)
ffffffff800027fc:	dff98e13          	addi	t3,s3,-513
ffffffff80002800:	00200537          	lui	a0,0x200
ffffffff80002804:	a005                	j	ffffffff80002824 <vmm_unmap+0x110>
ffffffff80002806:	8129                	srli	a0,a0,0xa
ffffffff80002808:	0532                	slli	a0,a0,0xc
ffffffff8000280a:	00a7f5b3          	and	a1,a5,a0
ffffffff8000280e:	0015b593          	seqz	a1,a1
ffffffff80002812:	15fd                	addi	a1,a1,-1
ffffffff80002814:	8dfd                	and	a1,a1,a5
ffffffff80002816:	8d4d                	or	a0,a0,a1
ffffffff80002818:	0e8e                	slli	t4,t4,0x3
ffffffff8000281a:	97f6                	add	a5,a5,t4
ffffffff8000281c:	953e                	add	a0,a0,a5
ffffffff8000281e:	00053023          	sd	zero,0(a0) # 200000 <$d.3+0x1f52b2>
ffffffff80002822:	6505                	lui	a0,0x1
ffffffff80002824:	9a2a                	add	s4,s4,a0
ffffffff80002826:	89f2                	mv	s3,t3
ffffffff80002828:	f40e13e3          	bnez	t3,ffffffff8000276e <vmm_unmap+0x5a>
ffffffff8000282c:	854a                	mv	a0,s2
ffffffff8000282e:	00000097          	auipc	ra,0x0
ffffffff80002832:	99a080e7          	jalr	-1638(ra) # ffffffff800021c8 <spinlock_unlock>
ffffffff80002836:	4505                	li	a0,1
ffffffff80002838:	a039                	j	ffffffff80002846 <vmm_unmap+0x132>
ffffffff8000283a:	854a                	mv	a0,s2
ffffffff8000283c:	00000097          	auipc	ra,0x0
ffffffff80002840:	98c080e7          	jalr	-1652(ra) # ffffffff800021c8 <spinlock_unlock>
ffffffff80002844:	4501                	li	a0,0
ffffffff80002846:	60e6                	ld	ra,88(sp)
ffffffff80002848:	6446                	ld	s0,80(sp)
ffffffff8000284a:	64a6                	ld	s1,72(sp)
ffffffff8000284c:	6906                	ld	s2,64(sp)
ffffffff8000284e:	79e2                	ld	s3,56(sp)
ffffffff80002850:	7a42                	ld	s4,48(sp)
ffffffff80002852:	6125                	addi	sp,sp,96
ffffffff80002854:	8082                	ret

ffffffff80002856 <get_cpu_struct>:
ffffffff80002856:	8512                	mv	a0,tp
ffffffff80002858:	8082                	ret

ffffffff8000285a <set_cpu_struct>:
ffffffff8000285a:	822a                	mv	tp,a0
ffffffff8000285c:	8082                	ret

ffffffff8000285e <riscv_clear_soft_interrupt>:
ffffffff8000285e:	4289                	li	t0,2
ffffffff80002860:	1442b073          	.insn	4, 0x1442b073
ffffffff80002864:	8082                	ret

ffffffff80002866 <get_kernel_gp>:
ffffffff80002866:	7fffe517          	auipc	a0,0x7fffe
ffffffff8000286a:	f9a50513          	addi	a0,a0,-102 # 800 <__global_pointer$>
ffffffff8000286e:	8082                	ret

ffffffff80002870 <riscv_sbicall>:
ffffffff80002870:	82aa                	mv	t0,a0
ffffffff80002872:	832e                	mv	t1,a1
ffffffff80002874:	8532                	mv	a0,a2
ffffffff80002876:	85b6                	mv	a1,a3
ffffffff80002878:	863a                	mv	a2,a4
ffffffff8000287a:	86be                	mv	a3,a5
ffffffff8000287c:	8742                	mv	a4,a6
ffffffff8000287e:	87c6                	mv	a5,a7
ffffffff80002880:	8896                	mv	a7,t0
ffffffff80002882:	881a                	mv	a6,t1
ffffffff80002884:	00000073          	ecall
ffffffff80002888:	8082                	ret
	...

ffffffff8000288c <riscv_isr>:
ffffffff8000288c:	14021273          	.insn	4, 0x14021273
ffffffff80002890:	06021663          	bnez	tp,ffffffff800028fc <riscv_isr+0x70>
ffffffff80002894:	14021273          	.insn	4, 0x14021273
ffffffff80002898:	ee810113          	addi	sp,sp,-280
ffffffff8000289c:	e006                	sd	ra,0(sp)
ffffffff8000289e:	11810093          	addi	ra,sp,280
ffffffff800028a2:	e406                	sd	ra,8(sp)
ffffffff800028a4:	ec12                	sd	tp,24(sp)
ffffffff800028a6:	e80e                	sd	gp,16(sp)
ffffffff800028a8:	f016                	sd	t0,32(sp)
ffffffff800028aa:	f41a                	sd	t1,40(sp)
ffffffff800028ac:	f81e                	sd	t2,48(sp)
ffffffff800028ae:	fc22                	sd	s0,56(sp)
ffffffff800028b0:	e0a6                	sd	s1,64(sp)
ffffffff800028b2:	e4aa                	sd	a0,72(sp)
ffffffff800028b4:	e8ae                	sd	a1,80(sp)
ffffffff800028b6:	ecb2                	sd	a2,88(sp)
ffffffff800028b8:	f0b6                	sd	a3,96(sp)
ffffffff800028ba:	f4ba                	sd	a4,104(sp)
ffffffff800028bc:	f8be                	sd	a5,112(sp)
ffffffff800028be:	fcc2                	sd	a6,120(sp)
ffffffff800028c0:	e146                	sd	a7,128(sp)
ffffffff800028c2:	e54a                	sd	s2,136(sp)
ffffffff800028c4:	e94e                	sd	s3,144(sp)
ffffffff800028c6:	ed52                	sd	s4,152(sp)
ffffffff800028c8:	f156                	sd	s5,160(sp)
ffffffff800028ca:	f55a                	sd	s6,168(sp)
ffffffff800028cc:	f95e                	sd	s7,176(sp)
ffffffff800028ce:	fd62                	sd	s8,184(sp)
ffffffff800028d0:	e1e6                	sd	s9,192(sp)
ffffffff800028d2:	e5ea                	sd	s10,200(sp)
ffffffff800028d4:	e9ee                	sd	s11,208(sp)
ffffffff800028d6:	edf2                	sd	t3,216(sp)
ffffffff800028d8:	f1f6                	sd	t4,224(sp)
ffffffff800028da:	f5fa                	sd	t5,232(sp)
ffffffff800028dc:	f9fe                	sd	t6,240(sp)
ffffffff800028de:	14001073          	.insn	4, 0x14001073
ffffffff800028e2:	14102573          	.insn	4, 0x14102573
ffffffff800028e6:	fdaa                	sd	a0,248(sp)
ffffffff800028e8:	14202573          	.insn	4, 0x14202573
ffffffff800028ec:	e22a                	sd	a0,256(sp)
ffffffff800028ee:	14302573          	.insn	4, 0x14302573
ffffffff800028f2:	e62a                	sd	a0,264(sp)
ffffffff800028f4:	10002573          	.insn	4, 0x10002573
ffffffff800028f8:	ea2a                	sd	a0,272(sp)
ffffffff800028fa:	a895                	j	ffffffff8000296e <.Lpcrel_hi0>
ffffffff800028fc:	00223423          	sd	sp,8(tp) # 8 <kernel_symbols_start+0x8>
ffffffff80002900:	01023103          	ld	sp,16(tp) # 10 <kernel_symbols_start+0x10>
ffffffff80002904:	ee810113          	addi	sp,sp,-280
ffffffff80002908:	e006                	sd	ra,0(sp)
ffffffff8000290a:	00823083          	ld	ra,8(tp) # 8 <kernel_symbols_start+0x8>
ffffffff8000290e:	e406                	sd	ra,8(sp)
ffffffff80002910:	14021273          	.insn	4, 0x14021273
ffffffff80002914:	ec12                	sd	tp,24(sp)
ffffffff80002916:	14021273          	.insn	4, 0x14021273
ffffffff8000291a:	e80e                	sd	gp,16(sp)
ffffffff8000291c:	f016                	sd	t0,32(sp)
ffffffff8000291e:	f41a                	sd	t1,40(sp)
ffffffff80002920:	f81e                	sd	t2,48(sp)
ffffffff80002922:	fc22                	sd	s0,56(sp)
ffffffff80002924:	e0a6                	sd	s1,64(sp)
ffffffff80002926:	e4aa                	sd	a0,72(sp)
ffffffff80002928:	e8ae                	sd	a1,80(sp)
ffffffff8000292a:	ecb2                	sd	a2,88(sp)
ffffffff8000292c:	f0b6                	sd	a3,96(sp)
ffffffff8000292e:	f4ba                	sd	a4,104(sp)
ffffffff80002930:	f8be                	sd	a5,112(sp)
ffffffff80002932:	fcc2                	sd	a6,120(sp)
ffffffff80002934:	e146                	sd	a7,128(sp)
ffffffff80002936:	e54a                	sd	s2,136(sp)
ffffffff80002938:	e94e                	sd	s3,144(sp)
ffffffff8000293a:	ed52                	sd	s4,152(sp)
ffffffff8000293c:	f156                	sd	s5,160(sp)
ffffffff8000293e:	f55a                	sd	s6,168(sp)
ffffffff80002940:	f95e                	sd	s7,176(sp)
ffffffff80002942:	fd62                	sd	s8,184(sp)
ffffffff80002944:	e1e6                	sd	s9,192(sp)
ffffffff80002946:	e5ea                	sd	s10,200(sp)
ffffffff80002948:	e9ee                	sd	s11,208(sp)
ffffffff8000294a:	edf2                	sd	t3,216(sp)
ffffffff8000294c:	f1f6                	sd	t4,224(sp)
ffffffff8000294e:	f5fa                	sd	t5,232(sp)
ffffffff80002950:	f9fe                	sd	t6,240(sp)
ffffffff80002952:	14001073          	.insn	4, 0x14001073
ffffffff80002956:	14102573          	.insn	4, 0x14102573
ffffffff8000295a:	fdaa                	sd	a0,248(sp)
ffffffff8000295c:	14202573          	.insn	4, 0x14202573
ffffffff80002960:	e22a                	sd	a0,256(sp)
ffffffff80002962:	14302573          	.insn	4, 0x14302573
ffffffff80002966:	e62a                	sd	a0,264(sp)
ffffffff80002968:	10002573          	.insn	4, 0x10002573
ffffffff8000296c:	ea2a                	sd	a0,272(sp)

ffffffff8000296e <.Lpcrel_hi0>:
ffffffff8000296e:	7fffe197          	auipc	gp,0x7fffe
ffffffff80002972:	e9218193          	addi	gp,gp,-366 # 800 <__global_pointer$>
ffffffff80002976:	850a                	mv	a0,sp
ffffffff80002978:	ff017113          	andi	sp,sp,-16
ffffffff8000297c:	ffffe097          	auipc	ra,0xffffe
ffffffff80002980:	2fa080e7          	jalr	762(ra) # ffffffff80000c76 <riscv_handle_trap>
ffffffff80002984:	812a                	mv	sp,a0
ffffffff80002986:	6082                	ld	ra,0(sp)
ffffffff80002988:	61c2                	ld	gp,16(sp)
ffffffff8000298a:	7282                	ld	t0,32(sp)
ffffffff8000298c:	7322                	ld	t1,40(sp)
ffffffff8000298e:	73c2                	ld	t2,48(sp)
ffffffff80002990:	7462                	ld	s0,56(sp)
ffffffff80002992:	6486                	ld	s1,64(sp)
ffffffff80002994:	6526                	ld	a0,72(sp)
ffffffff80002996:	65c6                	ld	a1,80(sp)
ffffffff80002998:	6666                	ld	a2,88(sp)
ffffffff8000299a:	7686                	ld	a3,96(sp)
ffffffff8000299c:	7726                	ld	a4,104(sp)
ffffffff8000299e:	77c6                	ld	a5,112(sp)
ffffffff800029a0:	7866                	ld	a6,120(sp)
ffffffff800029a2:	688a                	ld	a7,128(sp)
ffffffff800029a4:	692a                	ld	s2,136(sp)
ffffffff800029a6:	69ca                	ld	s3,144(sp)
ffffffff800029a8:	6a6a                	ld	s4,152(sp)
ffffffff800029aa:	7a8a                	ld	s5,160(sp)
ffffffff800029ac:	7b2a                	ld	s6,168(sp)
ffffffff800029ae:	7bca                	ld	s7,176(sp)
ffffffff800029b0:	7c6a                	ld	s8,184(sp)
ffffffff800029b2:	6c8e                	ld	s9,192(sp)
ffffffff800029b4:	6d2e                	ld	s10,200(sp)
ffffffff800029b6:	6dce                	ld	s11,208(sp)
ffffffff800029b8:	6e6e                	ld	t3,216(sp)
ffffffff800029ba:	7e8e                	ld	t4,224(sp)
ffffffff800029bc:	7f2e                	ld	t5,232(sp)
ffffffff800029be:	10017073          	.insn	4, 0x10017073
ffffffff800029c2:	6fd2                	ld	t6,272(sp)
ffffffff800029c4:	100fff93          	andi	t6,t6,256
ffffffff800029c8:	000f9463          	bnez	t6,ffffffff800029d0 <.Lpcrel_hi0+0x62>
ffffffff800029cc:	14021073          	.insn	4, 0x14021073
ffffffff800029d0:	7fce                	ld	t6,240(sp)
ffffffff800029d2:	726e                	ld	tp,248(sp)
ffffffff800029d4:	14121073          	.insn	4, 0x14121073
ffffffff800029d8:	6212                	ld	tp,256(sp)
ffffffff800029da:	14221073          	.insn	4, 0x14221073
ffffffff800029de:	6232                	ld	tp,264(sp)
ffffffff800029e0:	14321073          	.insn	4, 0x14321073
ffffffff800029e4:	6252                	ld	tp,272(sp)
ffffffff800029e6:	10021073          	.insn	4, 0x10021073
ffffffff800029ea:	6262                	ld	tp,24(sp)
ffffffff800029ec:	6122                	ld	sp,8(sp)
ffffffff800029ee:	10200073          	sret
ffffffff800029f2:	0001                	nop

ffffffff800029f4 <arch_scheduler_context_switch>:
ffffffff800029f4:	c199                	beqz	a1,ffffffff800029fa <.do_not_update_page_table>
ffffffff800029f6:	18059073          	.insn	4, 0x18059073

ffffffff800029fa <.do_not_update_page_table>:
ffffffff800029fa:	842a                	mv	s0,a0
ffffffff800029fc:	ff017113          	andi	sp,sp,-16
ffffffff80002a00:	fffff097          	auipc	ra,0xfffff
ffffffff80002a04:	89a080e7          	jalr	-1894(ra) # ffffffff8000129a <arch_scheduler_unlock_locks>
ffffffff80002a08:	8522                	mv	a0,s0
ffffffff80002a0a:	812a                	mv	sp,a0
ffffffff80002a0c:	6082                	ld	ra,0(sp)
ffffffff80002a0e:	61c2                	ld	gp,16(sp)
ffffffff80002a10:	7282                	ld	t0,32(sp)
ffffffff80002a12:	7322                	ld	t1,40(sp)
ffffffff80002a14:	73c2                	ld	t2,48(sp)
ffffffff80002a16:	7462                	ld	s0,56(sp)
ffffffff80002a18:	6486                	ld	s1,64(sp)
ffffffff80002a1a:	6526                	ld	a0,72(sp)
ffffffff80002a1c:	65c6                	ld	a1,80(sp)
ffffffff80002a1e:	6666                	ld	a2,88(sp)
ffffffff80002a20:	7686                	ld	a3,96(sp)
ffffffff80002a22:	7726                	ld	a4,104(sp)
ffffffff80002a24:	77c6                	ld	a5,112(sp)
ffffffff80002a26:	7866                	ld	a6,120(sp)
ffffffff80002a28:	688a                	ld	a7,128(sp)
ffffffff80002a2a:	692a                	ld	s2,136(sp)
ffffffff80002a2c:	69ca                	ld	s3,144(sp)
ffffffff80002a2e:	6a6a                	ld	s4,152(sp)
ffffffff80002a30:	7a8a                	ld	s5,160(sp)
ffffffff80002a32:	7b2a                	ld	s6,168(sp)
ffffffff80002a34:	7bca                	ld	s7,176(sp)
ffffffff80002a36:	7c6a                	ld	s8,184(sp)
ffffffff80002a38:	6c8e                	ld	s9,192(sp)
ffffffff80002a3a:	6d2e                	ld	s10,200(sp)
ffffffff80002a3c:	6dce                	ld	s11,208(sp)
ffffffff80002a3e:	6e6e                	ld	t3,216(sp)
ffffffff80002a40:	7e8e                	ld	t4,224(sp)
ffffffff80002a42:	7f2e                	ld	t5,232(sp)
ffffffff80002a44:	10017073          	.insn	4, 0x10017073
ffffffff80002a48:	6fd2                	ld	t6,272(sp)
ffffffff80002a4a:	100fff93          	andi	t6,t6,256
ffffffff80002a4e:	000f9463          	bnez	t6,ffffffff80002a56 <.do_not_update_page_table+0x5c>
ffffffff80002a52:	14021073          	.insn	4, 0x14021073
ffffffff80002a56:	7fce                	ld	t6,240(sp)
ffffffff80002a58:	726e                	ld	tp,248(sp)
ffffffff80002a5a:	14121073          	.insn	4, 0x14121073
ffffffff80002a5e:	6212                	ld	tp,256(sp)
ffffffff80002a60:	14221073          	.insn	4, 0x14221073
ffffffff80002a64:	6232                	ld	tp,264(sp)
ffffffff80002a66:	14321073          	.insn	4, 0x14321073
ffffffff80002a6a:	6252                	ld	tp,272(sp)
ffffffff80002a6c:	10021073          	.insn	4, 0x10021073
ffffffff80002a70:	6262                	ld	tp,24(sp)
ffffffff80002a72:	6122                	ld	sp,8(sp)
ffffffff80002a74:	10200073          	sret

ffffffff80002a78 <kmain>:
ffffffff80002a78:	1101                	addi	sp,sp,-32
ffffffff80002a7a:	ec06                	sd	ra,24(sp)
ffffffff80002a7c:	e822                	sd	s0,16(sp)
ffffffff80002a7e:	e426                	sd	s1,8(sp)
ffffffff80002a80:	1000                	addi	s0,sp,32
ffffffff80002a82:	80008537          	lui	a0,0x80008
ffffffff80002a86:	40550513          	addi	a0,a0,1029 # ffffffff80008405 <$d.1>
ffffffff80002a8a:	00005097          	auipc	ra,0x5
ffffffff80002a8e:	dbc080e7          	jalr	-580(ra) # ffffffff80007846 <printf>
ffffffff80002a92:	00000097          	auipc	ra,0x0
ffffffff80002a96:	074080e7          	jalr	116(ra) # ffffffff80002b06 <limine_get_memmap>
ffffffff80002a9a:	84aa                	mv	s1,a0
ffffffff80002a9c:	6908                	ld	a0,16(a0)
ffffffff80002a9e:	648c                	ld	a1,8(s1)
ffffffff80002aa0:	00000097          	auipc	ra,0x0
ffffffff80002aa4:	5e4080e7          	jalr	1508(ra) # ffffffff80003084 <pmm_init>
ffffffff80002aa8:	00000097          	auipc	ra,0x0
ffffffff80002aac:	090080e7          	jalr	144(ra) # ffffffff80002b38 <limine_get_kernel_info>
ffffffff80002ab0:	6918                	ld	a4,16(a0)
ffffffff80002ab2:	650c                	ld	a1,8(a0)
ffffffff80002ab4:	6890                	ld	a2,16(s1)
ffffffff80002ab6:	6494                	ld	a3,8(s1)
ffffffff80002ab8:	853a                	mv	a0,a4
ffffffff80002aba:	00001097          	auipc	ra,0x1
ffffffff80002abe:	a70080e7          	jalr	-1424(ra) # ffffffff8000352a <vmm_init>
ffffffff80002ac2:	ffffd097          	auipc	ra,0xffffd
ffffffff80002ac6:	550080e7          	jalr	1360(ra) # ffffffff80000012 <arch_post_vmm>
ffffffff80002aca:	80003537          	lui	a0,0x80003
ffffffff80002ace:	aec50513          	addi	a0,a0,-1300 # ffffffff80002aec <kmain_threaded>
ffffffff80002ad2:	00001097          	auipc	ra,0x1
ffffffff80002ad6:	508080e7          	jalr	1288(ra) # ffffffff80003fda <scheduler_init>
ffffffff80002ada:	80008537          	lui	a0,0x80008
ffffffff80002ade:	6d450513          	addi	a0,a0,1748 # ffffffff800086d4 <$d.3+0x2b>
ffffffff80002ae2:	00005097          	auipc	ra,0x5
ffffffff80002ae6:	d64080e7          	jalr	-668(ra) # ffffffff80007846 <printf>
ffffffff80002aea:	a001                	j	ffffffff80002aea <kmain+0x72>

ffffffff80002aec <kmain_threaded>:
ffffffff80002aec:	1141                	addi	sp,sp,-16
ffffffff80002aee:	e406                	sd	ra,8(sp)
ffffffff80002af0:	e022                	sd	s0,0(sp)
ffffffff80002af2:	0800                	addi	s0,sp,16
ffffffff80002af4:	80008537          	lui	a0,0x80008
ffffffff80002af8:	7f850513          	addi	a0,a0,2040 # ffffffff800087f8 <$d.2+0x57>
ffffffff80002afc:	00005097          	auipc	ra,0x5
ffffffff80002b00:	d4a080e7          	jalr	-694(ra) # ffffffff80007846 <printf>
ffffffff80002b04:	a001                	j	ffffffff80002b04 <kmain_threaded+0x18>

ffffffff80002b06 <limine_get_memmap>:
ffffffff80002b06:	1141                	addi	sp,sp,-16
ffffffff80002b08:	e406                	sd	ra,8(sp)
ffffffff80002b0a:	e022                	sd	s0,0(sp)
ffffffff80002b0c:	0800                	addi	s0,sp,16
ffffffff80002b0e:	80009537          	lui	a0,0x80009
ffffffff80002b12:	16853503          	ld	a0,360(a0) # ffffffff80009168 <limine_memmap_request+0x28>
ffffffff80002b16:	60a2                	ld	ra,8(sp)
ffffffff80002b18:	6402                	ld	s0,0(sp)
ffffffff80002b1a:	0141                	addi	sp,sp,16
ffffffff80002b1c:	8082                	ret

ffffffff80002b1e <limine_get_hhdm>:
ffffffff80002b1e:	1141                	addi	sp,sp,-16
ffffffff80002b20:	e406                	sd	ra,8(sp)
ffffffff80002b22:	e022                	sd	s0,0(sp)
ffffffff80002b24:	0800                	addi	s0,sp,16
ffffffff80002b26:	80009537          	lui	a0,0x80009
ffffffff80002b2a:	19853503          	ld	a0,408(a0) # ffffffff80009198 <limine_hhdm_request+0x28>
ffffffff80002b2e:	6508                	ld	a0,8(a0)
ffffffff80002b30:	60a2                	ld	ra,8(sp)
ffffffff80002b32:	6402                	ld	s0,0(sp)
ffffffff80002b34:	0141                	addi	sp,sp,16
ffffffff80002b36:	8082                	ret

ffffffff80002b38 <limine_get_kernel_info>:
ffffffff80002b38:	1141                	addi	sp,sp,-16
ffffffff80002b3a:	e406                	sd	ra,8(sp)
ffffffff80002b3c:	e022                	sd	s0,0(sp)
ffffffff80002b3e:	0800                	addi	s0,sp,16
ffffffff80002b40:	80009537          	lui	a0,0x80009
ffffffff80002b44:	1c853503          	ld	a0,456(a0) # ffffffff800091c8 <limine_kernel_address_request+0x28>
ffffffff80002b48:	60a2                	ld	ra,8(sp)
ffffffff80002b4a:	6402                	ld	s0,0(sp)
ffffffff80002b4c:	0141                	addi	sp,sp,16
ffffffff80002b4e:	8082                	ret

ffffffff80002b50 <limine_get_mp>:
ffffffff80002b50:	1141                	addi	sp,sp,-16
ffffffff80002b52:	e406                	sd	ra,8(sp)
ffffffff80002b54:	e022                	sd	s0,0(sp)
ffffffff80002b56:	0800                	addi	s0,sp,16
ffffffff80002b58:	80009537          	lui	a0,0x80009
ffffffff80002b5c:	1f853503          	ld	a0,504(a0) # ffffffff800091f8 <limine_mp_request+0x28>
ffffffff80002b60:	60a2                	ld	ra,8(sp)
ffffffff80002b62:	6402                	ld	s0,0(sp)
ffffffff80002b64:	0141                	addi	sp,sp,16
ffffffff80002b66:	8082                	ret

ffffffff80002b68 <kernel_entry>:
ffffffff80002b68:	1141                	addi	sp,sp,-16
ffffffff80002b6a:	e406                	sd	ra,8(sp)
ffffffff80002b6c:	e022                	sd	s0,0(sp)
ffffffff80002b6e:	0800                	addi	s0,sp,16
ffffffff80002b70:	ffffd097          	auipc	ra,0xffffd
ffffffff80002b74:	490080e7          	jalr	1168(ra) # ffffffff80000000 <arch_init>
ffffffff80002b78:	a001                	j	ffffffff80002b78 <kernel_entry+0x10>

ffffffff80002b7a <kmalloc>:
ffffffff80002b7a:	1101                	addi	sp,sp,-32
ffffffff80002b7c:	ec06                	sd	ra,24(sp)
ffffffff80002b7e:	e822                	sd	s0,16(sp)
ffffffff80002b80:	e426                	sd	s1,8(sp)
ffffffff80002b82:	e04a                	sd	s2,0(sp)
ffffffff80002b84:	1000                	addi	s0,sp,32
ffffffff80002b86:	892a                	mv	s2,a0
ffffffff80002b88:	00c55493          	srli	s1,a0,0xc
ffffffff80002b8c:	1552                	slli	a0,a0,0x34
ffffffff80002b8e:	9151                	srli	a0,a0,0x34
ffffffff80002b90:	00a03533          	snez	a0,a0
ffffffff80002b94:	94aa                	add	s1,s1,a0
ffffffff80002b96:	00148513          	addi	a0,s1,1
ffffffff80002b9a:	00001097          	auipc	ra,0x1
ffffffff80002b9e:	85e080e7          	jalr	-1954(ra) # ffffffff800033f8 <pmm_alloc>
ffffffff80002ba2:	c151                	beqz	a0,ffffffff80002c26 <kmalloc+0xac>
ffffffff80002ba4:	800095b7          	lui	a1,0x80009
ffffffff80002ba8:	2305b583          	ld	a1,560(a1) # ffffffff80009230 <MEM_PHYS_OFFSET>
ffffffff80002bac:	952e                	add	a0,a0,a1
ffffffff80002bae:	000503a3          	sb	zero,7(a0)
ffffffff80002bb2:	0304d593          	srli	a1,s1,0x30
ffffffff80002bb6:	00b50323          	sb	a1,6(a0)
ffffffff80002bba:	0284d593          	srli	a1,s1,0x28
ffffffff80002bbe:	00b502a3          	sb	a1,5(a0)
ffffffff80002bc2:	0204d593          	srli	a1,s1,0x20
ffffffff80002bc6:	00b50223          	sb	a1,4(a0)
ffffffff80002bca:	0184d593          	srli	a1,s1,0x18
ffffffff80002bce:	00b501a3          	sb	a1,3(a0)
ffffffff80002bd2:	0104d593          	srli	a1,s1,0x10
ffffffff80002bd6:	00b50123          	sb	a1,2(a0)
ffffffff80002bda:	0084d593          	srli	a1,s1,0x8
ffffffff80002bde:	00b500a3          	sb	a1,1(a0)
ffffffff80002be2:	00950023          	sb	s1,0(a0)
ffffffff80002be6:	03895593          	srli	a1,s2,0x38
ffffffff80002bea:	00b507a3          	sb	a1,15(a0)
ffffffff80002bee:	03095593          	srli	a1,s2,0x30
ffffffff80002bf2:	00b50723          	sb	a1,14(a0)
ffffffff80002bf6:	02895593          	srli	a1,s2,0x28
ffffffff80002bfa:	00b506a3          	sb	a1,13(a0)
ffffffff80002bfe:	02095593          	srli	a1,s2,0x20
ffffffff80002c02:	00b50623          	sb	a1,12(a0)
ffffffff80002c06:	01895593          	srli	a1,s2,0x18
ffffffff80002c0a:	00b505a3          	sb	a1,11(a0)
ffffffff80002c0e:	01095593          	srli	a1,s2,0x10
ffffffff80002c12:	00b50523          	sb	a1,10(a0)
ffffffff80002c16:	00895593          	srli	a1,s2,0x8
ffffffff80002c1a:	00b504a3          	sb	a1,9(a0)
ffffffff80002c1e:	01250423          	sb	s2,8(a0)
ffffffff80002c22:	6585                	lui	a1,0x1
ffffffff80002c24:	952e                	add	a0,a0,a1
ffffffff80002c26:	60e2                	ld	ra,24(sp)
ffffffff80002c28:	6442                	ld	s0,16(sp)
ffffffff80002c2a:	64a2                	ld	s1,8(sp)
ffffffff80002c2c:	6902                	ld	s2,0(sp)
ffffffff80002c2e:	6105                	addi	sp,sp,32
ffffffff80002c30:	8082                	ret

ffffffff80002c32 <kfree>:
ffffffff80002c32:	1141                	addi	sp,sp,-16
ffffffff80002c34:	e406                	sd	ra,8(sp)
ffffffff80002c36:	e022                	sd	s0,0(sp)
ffffffff80002c38:	0800                	addi	s0,sp,16
ffffffff80002c3a:	800095b7          	lui	a1,0x80009
ffffffff80002c3e:	2305b583          	ld	a1,560(a1) # ffffffff80009230 <MEM_PHYS_OFFSET>
ffffffff80002c42:	80050613          	addi	a2,a0,-2048
ffffffff80002c46:	80060693          	addi	a3,a2,-2048
ffffffff80002c4a:	40b68533          	sub	a0,a3,a1
ffffffff80002c4e:	0016c583          	lbu	a1,1(a3)
ffffffff80002c52:	80064603          	lbu	a2,-2048(a2)
ffffffff80002c56:	0026c703          	lbu	a4,2(a3)
ffffffff80002c5a:	0036c783          	lbu	a5,3(a3)
ffffffff80002c5e:	05a2                	slli	a1,a1,0x8
ffffffff80002c60:	8dd1                	or	a1,a1,a2
ffffffff80002c62:	0742                	slli	a4,a4,0x10
ffffffff80002c64:	07e2                	slli	a5,a5,0x18
ffffffff80002c66:	8f5d                	or	a4,a4,a5
ffffffff80002c68:	8dd9                	or	a1,a1,a4
ffffffff80002c6a:	0056c603          	lbu	a2,5(a3)
ffffffff80002c6e:	0046c703          	lbu	a4,4(a3)
ffffffff80002c72:	0066c783          	lbu	a5,6(a3)
ffffffff80002c76:	0076c683          	lbu	a3,7(a3)
ffffffff80002c7a:	0622                	slli	a2,a2,0x8
ffffffff80002c7c:	8e59                	or	a2,a2,a4
ffffffff80002c7e:	07c2                	slli	a5,a5,0x10
ffffffff80002c80:	06e2                	slli	a3,a3,0x18
ffffffff80002c82:	8edd                	or	a3,a3,a5
ffffffff80002c84:	8e55                	or	a2,a2,a3
ffffffff80002c86:	1602                	slli	a2,a2,0x20
ffffffff80002c88:	8dd1                	or	a1,a1,a2
ffffffff80002c8a:	0585                	addi	a1,a1,1
ffffffff80002c8c:	60a2                	ld	ra,8(sp)
ffffffff80002c8e:	6402                	ld	s0,0(sp)
ffffffff80002c90:	0141                	addi	sp,sp,16
ffffffff80002c92:	00000317          	auipc	t1,0x0
ffffffff80002c96:	6c430067          	jr	1732(t1) # ffffffff80003356 <pmm_free>

ffffffff80002c9a <krealloc>:
ffffffff80002c9a:	7179                	addi	sp,sp,-48
ffffffff80002c9c:	f406                	sd	ra,40(sp)
ffffffff80002c9e:	f022                	sd	s0,32(sp)
ffffffff80002ca0:	ec26                	sd	s1,24(sp)
ffffffff80002ca2:	e84a                	sd	s2,16(sp)
ffffffff80002ca4:	e44e                	sd	s3,8(sp)
ffffffff80002ca6:	e052                	sd	s4,0(sp)
ffffffff80002ca8:	1800                	addi	s0,sp,48
ffffffff80002caa:	8a2e                	mv	s4,a1
ffffffff80002cac:	cd49                	beqz	a0,ffffffff80002d46 <krealloc+0xac>
ffffffff80002cae:	80050593          	addi	a1,a0,-2048
ffffffff80002cb2:	80058493          	addi	s1,a1,-2048
ffffffff80002cb6:	120a0a63          	beqz	s4,ffffffff80002dea <krealloc+0x150>
ffffffff80002cba:	0094c583          	lbu	a1,9(s1)
ffffffff80002cbe:	0084c603          	lbu	a2,8(s1)
ffffffff80002cc2:	00a4c683          	lbu	a3,10(s1)
ffffffff80002cc6:	00b4c703          	lbu	a4,11(s1)
ffffffff80002cca:	05a2                	slli	a1,a1,0x8
ffffffff80002ccc:	8dd1                	or	a1,a1,a2
ffffffff80002cce:	06c2                	slli	a3,a3,0x10
ffffffff80002cd0:	0762                	slli	a4,a4,0x18
ffffffff80002cd2:	00d4c603          	lbu	a2,13(s1)
ffffffff80002cd6:	00c4c783          	lbu	a5,12(s1)
ffffffff80002cda:	8ed9                	or	a3,a3,a4
ffffffff80002cdc:	8ecd                	or	a3,a3,a1
ffffffff80002cde:	0622                	slli	a2,a2,0x8
ffffffff80002ce0:	8e5d                	or	a2,a2,a5
ffffffff80002ce2:	00e4c703          	lbu	a4,14(s1)
ffffffff80002ce6:	00f4c783          	lbu	a5,15(s1)
ffffffff80002cea:	6585                	lui	a1,0x1
ffffffff80002cec:	35fd                	addiw	a1,a1,-1 # fff <$d.3+0x5d>
ffffffff80002cee:	0742                	slli	a4,a4,0x10
ffffffff80002cf0:	07e2                	slli	a5,a5,0x18
ffffffff80002cf2:	8f5d                	or	a4,a4,a5
ffffffff80002cf4:	8e59                	or	a2,a2,a4
ffffffff80002cf6:	1602                	slli	a2,a2,0x20
ffffffff80002cf8:	8e55                	or	a2,a2,a3
ffffffff80002cfa:	962e                	add	a2,a2,a1
ffffffff80002cfc:	00ba06b3          	add	a3,s4,a1
ffffffff80002d00:	8e35                	xor	a2,a2,a3
ffffffff80002d02:	8231                	srli	a2,a2,0xc
ffffffff80002d04:	12061e63          	bnez	a2,ffffffff80002e40 <krealloc+0x1a6>
ffffffff80002d08:	01448423          	sb	s4,8(s1)
ffffffff80002d0c:	038a5593          	srli	a1,s4,0x38
ffffffff80002d10:	00b487a3          	sb	a1,15(s1)
ffffffff80002d14:	030a5593          	srli	a1,s4,0x30
ffffffff80002d18:	00b48723          	sb	a1,14(s1)
ffffffff80002d1c:	028a5593          	srli	a1,s4,0x28
ffffffff80002d20:	00b486a3          	sb	a1,13(s1)
ffffffff80002d24:	020a5593          	srli	a1,s4,0x20
ffffffff80002d28:	00b48623          	sb	a1,12(s1)
ffffffff80002d2c:	018a5593          	srli	a1,s4,0x18
ffffffff80002d30:	00b485a3          	sb	a1,11(s1)
ffffffff80002d34:	010a5593          	srli	a1,s4,0x10
ffffffff80002d38:	00b48523          	sb	a1,10(s1)
ffffffff80002d3c:	008a5593          	srli	a1,s4,0x8
ffffffff80002d40:	00b484a3          	sb	a1,9(s1)
ffffffff80002d44:	a499                	j	ffffffff80002f8a <krealloc+0x2f0>
ffffffff80002d46:	00ca5493          	srli	s1,s4,0xc
ffffffff80002d4a:	034a1513          	slli	a0,s4,0x34
ffffffff80002d4e:	9151                	srli	a0,a0,0x34
ffffffff80002d50:	00a03533          	snez	a0,a0
ffffffff80002d54:	94aa                	add	s1,s1,a0
ffffffff80002d56:	00148513          	addi	a0,s1,1
ffffffff80002d5a:	00000097          	auipc	ra,0x0
ffffffff80002d5e:	69e080e7          	jalr	1694(ra) # ffffffff800033f8 <pmm_alloc>
ffffffff80002d62:	22050463          	beqz	a0,ffffffff80002f8a <krealloc+0x2f0>
ffffffff80002d66:	800095b7          	lui	a1,0x80009
ffffffff80002d6a:	2305b583          	ld	a1,560(a1) # ffffffff80009230 <MEM_PHYS_OFFSET>
ffffffff80002d6e:	952e                	add	a0,a0,a1
ffffffff80002d70:	000503a3          	sb	zero,7(a0)
ffffffff80002d74:	0304d593          	srli	a1,s1,0x30
ffffffff80002d78:	00b50323          	sb	a1,6(a0)
ffffffff80002d7c:	0284d593          	srli	a1,s1,0x28
ffffffff80002d80:	00b502a3          	sb	a1,5(a0)
ffffffff80002d84:	0204d593          	srli	a1,s1,0x20
ffffffff80002d88:	00b50223          	sb	a1,4(a0)
ffffffff80002d8c:	0184d593          	srli	a1,s1,0x18
ffffffff80002d90:	00b501a3          	sb	a1,3(a0)
ffffffff80002d94:	0104d593          	srli	a1,s1,0x10
ffffffff80002d98:	00b50123          	sb	a1,2(a0)
ffffffff80002d9c:	0084d593          	srli	a1,s1,0x8
ffffffff80002da0:	00b500a3          	sb	a1,1(a0)
ffffffff80002da4:	00950023          	sb	s1,0(a0)
ffffffff80002da8:	038a5593          	srli	a1,s4,0x38
ffffffff80002dac:	00b507a3          	sb	a1,15(a0)
ffffffff80002db0:	030a5593          	srli	a1,s4,0x30
ffffffff80002db4:	00b50723          	sb	a1,14(a0)
ffffffff80002db8:	028a5593          	srli	a1,s4,0x28
ffffffff80002dbc:	00b506a3          	sb	a1,13(a0)
ffffffff80002dc0:	020a5593          	srli	a1,s4,0x20
ffffffff80002dc4:	00b50623          	sb	a1,12(a0)
ffffffff80002dc8:	018a5593          	srli	a1,s4,0x18
ffffffff80002dcc:	00b505a3          	sb	a1,11(a0)
ffffffff80002dd0:	010a5593          	srli	a1,s4,0x10
ffffffff80002dd4:	00b50523          	sb	a1,10(a0)
ffffffff80002dd8:	008a5593          	srli	a1,s4,0x8
ffffffff80002ddc:	00b504a3          	sb	a1,9(a0)
ffffffff80002de0:	01450423          	sb	s4,8(a0)
ffffffff80002de4:	6585                	lui	a1,0x1
ffffffff80002de6:	952e                	add	a0,a0,a1
ffffffff80002de8:	a24d                	j	ffffffff80002f8a <krealloc+0x2f0>
ffffffff80002dea:	80009537          	lui	a0,0x80009
ffffffff80002dee:	23053503          	ld	a0,560(a0) # ffffffff80009230 <MEM_PHYS_OFFSET>
ffffffff80002df2:	40a48533          	sub	a0,s1,a0
ffffffff80002df6:	0014c583          	lbu	a1,1(s1)
ffffffff80002dfa:	0004c603          	lbu	a2,0(s1)
ffffffff80002dfe:	0024c683          	lbu	a3,2(s1)
ffffffff80002e02:	0034c703          	lbu	a4,3(s1)
ffffffff80002e06:	05a2                	slli	a1,a1,0x8
ffffffff80002e08:	8dd1                	or	a1,a1,a2
ffffffff80002e0a:	06c2                	slli	a3,a3,0x10
ffffffff80002e0c:	0762                	slli	a4,a4,0x18
ffffffff80002e0e:	8ed9                	or	a3,a3,a4
ffffffff80002e10:	8dd5                	or	a1,a1,a3
ffffffff80002e12:	0054c603          	lbu	a2,5(s1)
ffffffff80002e16:	0044c683          	lbu	a3,4(s1)
ffffffff80002e1a:	0064c703          	lbu	a4,6(s1)
ffffffff80002e1e:	0074c783          	lbu	a5,7(s1)
ffffffff80002e22:	0622                	slli	a2,a2,0x8
ffffffff80002e24:	8e55                	or	a2,a2,a3
ffffffff80002e26:	0742                	slli	a4,a4,0x10
ffffffff80002e28:	07e2                	slli	a5,a5,0x18
ffffffff80002e2a:	8f5d                	or	a4,a4,a5
ffffffff80002e2c:	8e59                	or	a2,a2,a4
ffffffff80002e2e:	1602                	slli	a2,a2,0x20
ffffffff80002e30:	8dd1                	or	a1,a1,a2
ffffffff80002e32:	0585                	addi	a1,a1,1 # 1001 <$d.3+0x5f>
ffffffff80002e34:	00000097          	auipc	ra,0x0
ffffffff80002e38:	522080e7          	jalr	1314(ra) # ffffffff80003356 <pmm_free>
ffffffff80002e3c:	4501                	li	a0,0
ffffffff80002e3e:	a2b1                	j	ffffffff80002f8a <krealloc+0x2f0>
ffffffff80002e40:	892a                	mv	s2,a0
ffffffff80002e42:	00ca5993          	srli	s3,s4,0xc
ffffffff80002e46:	00ba7533          	and	a0,s4,a1
ffffffff80002e4a:	00a03533          	snez	a0,a0
ffffffff80002e4e:	99aa                	add	s3,s3,a0
ffffffff80002e50:	00198513          	addi	a0,s3,1
ffffffff80002e54:	00000097          	auipc	ra,0x0
ffffffff80002e58:	5a4080e7          	jalr	1444(ra) # ffffffff800033f8 <pmm_alloc>
ffffffff80002e5c:	12050763          	beqz	a0,ffffffff80002f8a <krealloc+0x2f0>
ffffffff80002e60:	800095b7          	lui	a1,0x80009
ffffffff80002e64:	2305b583          	ld	a1,560(a1) # ffffffff80009230 <MEM_PHYS_OFFSET>
ffffffff80002e68:	952e                	add	a0,a0,a1
ffffffff80002e6a:	000503a3          	sb	zero,7(a0)
ffffffff80002e6e:	0309d593          	srli	a1,s3,0x30
ffffffff80002e72:	00b50323          	sb	a1,6(a0)
ffffffff80002e76:	0289d593          	srli	a1,s3,0x28
ffffffff80002e7a:	00b502a3          	sb	a1,5(a0)
ffffffff80002e7e:	0209d593          	srli	a1,s3,0x20
ffffffff80002e82:	00b50223          	sb	a1,4(a0)
ffffffff80002e86:	0189d593          	srli	a1,s3,0x18
ffffffff80002e8a:	00b501a3          	sb	a1,3(a0)
ffffffff80002e8e:	0109d593          	srli	a1,s3,0x10
ffffffff80002e92:	00b50123          	sb	a1,2(a0)
ffffffff80002e96:	0089d593          	srli	a1,s3,0x8
ffffffff80002e9a:	00b500a3          	sb	a1,1(a0)
ffffffff80002e9e:	01350023          	sb	s3,0(a0)
ffffffff80002ea2:	038a5593          	srli	a1,s4,0x38
ffffffff80002ea6:	00b507a3          	sb	a1,15(a0)
ffffffff80002eaa:	030a5593          	srli	a1,s4,0x30
ffffffff80002eae:	00b50723          	sb	a1,14(a0)
ffffffff80002eb2:	028a5593          	srli	a1,s4,0x28
ffffffff80002eb6:	00b506a3          	sb	a1,13(a0)
ffffffff80002eba:	020a5593          	srli	a1,s4,0x20
ffffffff80002ebe:	00b50623          	sb	a1,12(a0)
ffffffff80002ec2:	018a5593          	srli	a1,s4,0x18
ffffffff80002ec6:	00b505a3          	sb	a1,11(a0)
ffffffff80002eca:	010a5593          	srli	a1,s4,0x10
ffffffff80002ece:	00b50523          	sb	a1,10(a0)
ffffffff80002ed2:	008a5593          	srli	a1,s4,0x8
ffffffff80002ed6:	00b504a3          	sb	a1,9(a0)
ffffffff80002eda:	6985                	lui	s3,0x1
ffffffff80002edc:	99aa                	add	s3,s3,a0
ffffffff80002ede:	01450423          	sb	s4,8(a0)
ffffffff80002ee2:	f4098de3          	beqz	s3,ffffffff80002e3c <krealloc+0x1a2>
ffffffff80002ee6:	0094c503          	lbu	a0,9(s1)
ffffffff80002eea:	0084c583          	lbu	a1,8(s1)
ffffffff80002eee:	00a4c603          	lbu	a2,10(s1)
ffffffff80002ef2:	00b4c683          	lbu	a3,11(s1)
ffffffff80002ef6:	0522                	slli	a0,a0,0x8
ffffffff80002ef8:	8d4d                	or	a0,a0,a1
ffffffff80002efa:	0642                	slli	a2,a2,0x10
ffffffff80002efc:	06e2                	slli	a3,a3,0x18
ffffffff80002efe:	8e55                	or	a2,a2,a3
ffffffff80002f00:	8d51                	or	a0,a0,a2
ffffffff80002f02:	00d4c583          	lbu	a1,13(s1)
ffffffff80002f06:	00c4c603          	lbu	a2,12(s1)
ffffffff80002f0a:	00e4c683          	lbu	a3,14(s1)
ffffffff80002f0e:	00f4c703          	lbu	a4,15(s1)
ffffffff80002f12:	05a2                	slli	a1,a1,0x8
ffffffff80002f14:	8dd1                	or	a1,a1,a2
ffffffff80002f16:	06c2                	slli	a3,a3,0x10
ffffffff80002f18:	0762                	slli	a4,a4,0x18
ffffffff80002f1a:	8ed9                	or	a3,a3,a4
ffffffff80002f1c:	8dd5                	or	a1,a1,a3
ffffffff80002f1e:	1582                	slli	a1,a1,0x20
ffffffff80002f20:	00a5e633          	or	a2,a1,a0
ffffffff80002f24:	01466363          	bltu	a2,s4,ffffffff80002f2a <krealloc+0x290>
ffffffff80002f28:	8652                	mv	a2,s4
ffffffff80002f2a:	854e                	mv	a0,s3
ffffffff80002f2c:	85ca                	mv	a1,s2
ffffffff80002f2e:	00004097          	auipc	ra,0x4
ffffffff80002f32:	962080e7          	jalr	-1694(ra) # ffffffff80006890 <memcpy>
ffffffff80002f36:	80009537          	lui	a0,0x80009
ffffffff80002f3a:	23053503          	ld	a0,560(a0) # ffffffff80009230 <MEM_PHYS_OFFSET>
ffffffff80002f3e:	40a48533          	sub	a0,s1,a0
ffffffff80002f42:	0014c583          	lbu	a1,1(s1)
ffffffff80002f46:	0004c603          	lbu	a2,0(s1)
ffffffff80002f4a:	0024c683          	lbu	a3,2(s1)
ffffffff80002f4e:	0034c703          	lbu	a4,3(s1)
ffffffff80002f52:	05a2                	slli	a1,a1,0x8
ffffffff80002f54:	8dd1                	or	a1,a1,a2
ffffffff80002f56:	06c2                	slli	a3,a3,0x10
ffffffff80002f58:	0762                	slli	a4,a4,0x18
ffffffff80002f5a:	8ed9                	or	a3,a3,a4
ffffffff80002f5c:	8dd5                	or	a1,a1,a3
ffffffff80002f5e:	0054c603          	lbu	a2,5(s1)
ffffffff80002f62:	0044c683          	lbu	a3,4(s1)
ffffffff80002f66:	0064c703          	lbu	a4,6(s1)
ffffffff80002f6a:	0074c783          	lbu	a5,7(s1)
ffffffff80002f6e:	0622                	slli	a2,a2,0x8
ffffffff80002f70:	8e55                	or	a2,a2,a3
ffffffff80002f72:	0742                	slli	a4,a4,0x10
ffffffff80002f74:	07e2                	slli	a5,a5,0x18
ffffffff80002f76:	8f5d                	or	a4,a4,a5
ffffffff80002f78:	8e59                	or	a2,a2,a4
ffffffff80002f7a:	1602                	slli	a2,a2,0x20
ffffffff80002f7c:	8dd1                	or	a1,a1,a2
ffffffff80002f7e:	0585                	addi	a1,a1,1
ffffffff80002f80:	00000097          	auipc	ra,0x0
ffffffff80002f84:	3d6080e7          	jalr	982(ra) # ffffffff80003356 <pmm_free>
ffffffff80002f88:	854e                	mv	a0,s3
ffffffff80002f8a:	70a2                	ld	ra,40(sp)
ffffffff80002f8c:	7402                	ld	s0,32(sp)
ffffffff80002f8e:	64e2                	ld	s1,24(sp)
ffffffff80002f90:	6942                	ld	s2,16(sp)
ffffffff80002f92:	69a2                	ld	s3,8(sp)
ffffffff80002f94:	6a02                	ld	s4,0(sp)
ffffffff80002f96:	6145                	addi	sp,sp,48
ffffffff80002f98:	8082                	ret

ffffffff80002f9a <kcalloc>:
ffffffff80002f9a:	862a                	mv	a2,a0
ffffffff80002f9c:	4501                	li	a0,0
ffffffff80002f9e:	c611                	beqz	a2,ffffffff80002faa <kcalloc+0x10>
ffffffff80002fa0:	c589                	beqz	a1,ffffffff80002faa <kcalloc+0x10>
ffffffff80002fa2:	02b63533          	mulhu	a0,a2,a1
ffffffff80002fa6:	c119                	beqz	a0,ffffffff80002fac <kcalloc+0x12>
ffffffff80002fa8:	4501                	li	a0,0
ffffffff80002faa:	8082                	ret
ffffffff80002fac:	7179                	addi	sp,sp,-48
ffffffff80002fae:	f406                	sd	ra,40(sp)
ffffffff80002fb0:	f022                	sd	s0,32(sp)
ffffffff80002fb2:	ec26                	sd	s1,24(sp)
ffffffff80002fb4:	e84a                	sd	s2,16(sp)
ffffffff80002fb6:	e44e                	sd	s3,8(sp)
ffffffff80002fb8:	1800                	addi	s0,sp,48
ffffffff80002fba:	02b609b3          	mul	s3,a2,a1
ffffffff80002fbe:	00c9d493          	srli	s1,s3,0xc
ffffffff80002fc2:	03499513          	slli	a0,s3,0x34
ffffffff80002fc6:	9151                	srli	a0,a0,0x34
ffffffff80002fc8:	00a03533          	snez	a0,a0
ffffffff80002fcc:	94aa                	add	s1,s1,a0
ffffffff80002fce:	00148513          	addi	a0,s1,1
ffffffff80002fd2:	00000097          	auipc	ra,0x0
ffffffff80002fd6:	426080e7          	jalr	1062(ra) # ffffffff800033f8 <pmm_alloc>
ffffffff80002fda:	cd51                	beqz	a0,ffffffff80003076 <kcalloc+0xdc>
ffffffff80002fdc:	800095b7          	lui	a1,0x80009
ffffffff80002fe0:	2305b583          	ld	a1,560(a1) # ffffffff80009230 <MEM_PHYS_OFFSET>
ffffffff80002fe4:	952e                	add	a0,a0,a1
ffffffff80002fe6:	000503a3          	sb	zero,7(a0)
ffffffff80002fea:	0304d593          	srli	a1,s1,0x30
ffffffff80002fee:	00b50323          	sb	a1,6(a0)
ffffffff80002ff2:	0284d593          	srli	a1,s1,0x28
ffffffff80002ff6:	00b502a3          	sb	a1,5(a0)
ffffffff80002ffa:	0204d593          	srli	a1,s1,0x20
ffffffff80002ffe:	00b50223          	sb	a1,4(a0)
ffffffff80003002:	0184d593          	srli	a1,s1,0x18
ffffffff80003006:	00b501a3          	sb	a1,3(a0)
ffffffff8000300a:	0104d593          	srli	a1,s1,0x10
ffffffff8000300e:	00b50123          	sb	a1,2(a0)
ffffffff80003012:	0084d593          	srli	a1,s1,0x8
ffffffff80003016:	00b500a3          	sb	a1,1(a0)
ffffffff8000301a:	00950023          	sb	s1,0(a0)
ffffffff8000301e:	0389d593          	srli	a1,s3,0x38
ffffffff80003022:	00b507a3          	sb	a1,15(a0)
ffffffff80003026:	0309d593          	srli	a1,s3,0x30
ffffffff8000302a:	00b50723          	sb	a1,14(a0)
ffffffff8000302e:	0289d593          	srli	a1,s3,0x28
ffffffff80003032:	00b506a3          	sb	a1,13(a0)
ffffffff80003036:	0209d593          	srli	a1,s3,0x20
ffffffff8000303a:	00b50623          	sb	a1,12(a0)
ffffffff8000303e:	0189d593          	srli	a1,s3,0x18
ffffffff80003042:	00b505a3          	sb	a1,11(a0)
ffffffff80003046:	0109d593          	srli	a1,s3,0x10
ffffffff8000304a:	00b50523          	sb	a1,10(a0)
ffffffff8000304e:	0089d593          	srli	a1,s3,0x8
ffffffff80003052:	00b504a3          	sb	a1,9(a0)
ffffffff80003056:	6905                	lui	s2,0x1
ffffffff80003058:	992a                	add	s2,s2,a0
ffffffff8000305a:	01350423          	sb	s3,8(a0)
ffffffff8000305e:	00090b63          	beqz	s2,ffffffff80003074 <kcalloc+0xda>
ffffffff80003062:	854a                	mv	a0,s2
ffffffff80003064:	4581                	li	a1,0
ffffffff80003066:	864e                	mv	a2,s3
ffffffff80003068:	00003097          	auipc	ra,0x3
ffffffff8000306c:	7e2080e7          	jalr	2018(ra) # ffffffff8000684a <memset>
ffffffff80003070:	854a                	mv	a0,s2
ffffffff80003072:	a011                	j	ffffffff80003076 <kcalloc+0xdc>
ffffffff80003074:	4501                	li	a0,0
ffffffff80003076:	70a2                	ld	ra,40(sp)
ffffffff80003078:	7402                	ld	s0,32(sp)
ffffffff8000307a:	64e2                	ld	s1,24(sp)
ffffffff8000307c:	6942                	ld	s2,16(sp)
ffffffff8000307e:	69a2                	ld	s3,8(sp)
ffffffff80003080:	6145                	addi	sp,sp,48
ffffffff80003082:	8082                	ret

ffffffff80003084 <pmm_init>:
ffffffff80003084:	7119                	addi	sp,sp,-128
ffffffff80003086:	fc86                	sd	ra,120(sp)
ffffffff80003088:	f8a2                	sd	s0,112(sp)
ffffffff8000308a:	f4a6                	sd	s1,104(sp)
ffffffff8000308c:	f0ca                	sd	s2,96(sp)
ffffffff8000308e:	ecce                	sd	s3,88(sp)
ffffffff80003090:	e8d2                	sd	s4,80(sp)
ffffffff80003092:	e4d6                	sd	s5,72(sp)
ffffffff80003094:	e0da                	sd	s6,64(sp)
ffffffff80003096:	fc5e                	sd	s7,56(sp)
ffffffff80003098:	f862                	sd	s8,48(sp)
ffffffff8000309a:	f466                	sd	s9,40(sp)
ffffffff8000309c:	f06a                	sd	s10,32(sp)
ffffffff8000309e:	ec6e                	sd	s11,24(sp)
ffffffff800030a0:	0100                	addi	s0,sp,128
ffffffff800030a2:	8c2e                	mv	s8,a1
ffffffff800030a4:	8caa                	mv	s9,a0
ffffffff800030a6:	6505                	lui	a0,0x1
ffffffff800030a8:	357d                	addiw	a0,a0,-1 # fff <$d.3+0x5d>
ffffffff800030aa:	f8a43823          	sd	a0,-112(s0)
ffffffff800030ae:	00000097          	auipc	ra,0x0
ffffffff800030b2:	a70080e7          	jalr	-1424(ra) # ffffffff80002b1e <limine_get_hhdm>
ffffffff800030b6:	800095b7          	lui	a1,0x80009
ffffffff800030ba:	22a5b823          	sd	a0,560(a1) # ffffffff80009230 <MEM_PHYS_OFFSET>
ffffffff800030be:	80008537          	lui	a0,0x80008
ffffffff800030c2:	37850513          	addi	a0,a0,888 # ffffffff80008378 <$d.2>
ffffffff800030c6:	00004097          	auipc	ra,0x4
ffffffff800030ca:	780080e7          	jalr	1920(ra) # ffffffff80007846 <printf>
ffffffff800030ce:	0a0c0363          	beqz	s8,ffffffff80003174 <pmm_init+0xf0>
ffffffff800030d2:	f8043423          	sd	zero,-120(s0)
ffffffff800030d6:	80008537          	lui	a0,0x80008
ffffffff800030da:	41250993          	addi	s3,a0,1042 # ffffffff80008412 <$d.1+0xd>
ffffffff800030de:	80008537          	lui	a0,0x80008
ffffffff800030e2:	79050a13          	addi	s4,a0,1936 # ffffffff80008790 <$d.2+0x8b>
ffffffff800030e6:	4a9d                	li	s5,7
ffffffff800030e8:	80009537          	lui	a0,0x80009
ffffffff800030ec:	87850b13          	addi	s6,a0,-1928 # ffffffff80008878 <.Lswitch.table.pmm_init>
ffffffff800030f0:	80008537          	lui	a0,0x80008
ffffffff800030f4:	22350493          	addi	s1,a0,547 # ffffffff80008223 <$d.2+0xfd>
ffffffff800030f8:	8000ad37          	lui	s10,0x8000a
ffffffff800030fc:	8be2                	mv	s7,s8
ffffffff800030fe:	8966                	mv	s2,s9
ffffffff80003100:	a829                	j	ffffffff8000311a <pmm_init+0x96>
ffffffff80003102:	8526                	mv	a0,s1
ffffffff80003104:	00004097          	auipc	ra,0x4
ffffffff80003108:	742080e7          	jalr	1858(ra) # ffffffff80007846 <printf>
ffffffff8000310c:	010db503          	ld	a0,16(s11)
ffffffff80003110:	c915                	beqz	a0,ffffffff80003144 <pmm_init+0xc0>
ffffffff80003112:	1bfd                	addi	s7,s7,-1
ffffffff80003114:	0921                	addi	s2,s2,8 # 1008 <$d.3+0x66>
ffffffff80003116:	060b8163          	beqz	s7,ffffffff80003178 <pmm_init+0xf4>
ffffffff8000311a:	00093d83          	ld	s11,0(s2)
ffffffff8000311e:	000db583          	ld	a1,0(s11)
ffffffff80003122:	008db603          	ld	a2,8(s11)
ffffffff80003126:	962e                	add	a2,a2,a1
ffffffff80003128:	854e                	mv	a0,s3
ffffffff8000312a:	00004097          	auipc	ra,0x4
ffffffff8000312e:	71c080e7          	jalr	1820(ra) # ffffffff80007846 <printf>
ffffffff80003132:	010db503          	ld	a0,16(s11)
ffffffff80003136:	85d2                	mv	a1,s4
ffffffff80003138:	fcaae5e3          	bltu	s5,a0,ffffffff80003102 <pmm_init+0x7e>
ffffffff8000313c:	050e                	slli	a0,a0,0x3
ffffffff8000313e:	955a                	add	a0,a0,s6
ffffffff80003140:	610c                	ld	a1,0(a0)
ffffffff80003142:	b7c1                	j	ffffffff80003102 <pmm_init+0x7e>
ffffffff80003144:	000db503          	ld	a0,0(s11)
ffffffff80003148:	050d3583          	ld	a1,80(s10) # ffffffff8000a050 <PmmBitmap>
ffffffff8000314c:	fca5f3e3          	bgeu	a1,a0,ffffffff80003112 <pmm_init+0x8e>
ffffffff80003150:	008db603          	ld	a2,8(s11)
ffffffff80003154:	f9043583          	ld	a1,-112(s0)
ffffffff80003158:	95aa                	add	a1,a1,a0
ffffffff8000315a:	95b2                	add	a1,a1,a2
ffffffff8000315c:	81b1                	srli	a1,a1,0xc
ffffffff8000315e:	fac5fae3          	bgeu	a1,a2,ffffffff80003112 <pmm_init+0x8e>
ffffffff80003162:	04ad3823          	sd	a0,80(s10)
ffffffff80003166:	8000a637          	lui	a2,0x8000a
ffffffff8000316a:	04b63c23          	sd	a1,88(a2) # ffffffff8000a058 <PmmLength>
ffffffff8000316e:	f8a43423          	sd	a0,-120(s0)
ffffffff80003172:	b745                	j	ffffffff80003112 <pmm_init+0x8e>
ffffffff80003174:	f8043423          	sd	zero,-120(s0)
ffffffff80003178:	8000a5b7          	lui	a1,0x8000a
ffffffff8000317c:	0505b503          	ld	a0,80(a1) # ffffffff8000a050 <PmmBitmap>
ffffffff80003180:	cd29                	beqz	a0,ffffffff800031da <pmm_init+0x156>
ffffffff80003182:	80009637          	lui	a2,0x80009
ffffffff80003186:	23063603          	ld	a2,560(a2) # ffffffff80009230 <MEM_PHYS_OFFSET>
ffffffff8000318a:	8000a6b7          	lui	a3,0x8000a
ffffffff8000318e:	0586b683          	ld	a3,88(a3) # ffffffff8000a058 <PmmLength>
ffffffff80003192:	9532                	add	a0,a0,a2
ffffffff80003194:	04a5b823          	sd	a0,80(a1)
ffffffff80003198:	0036d613          	srli	a2,a3,0x3
ffffffff8000319c:	0ff00593          	li	a1,255
ffffffff800031a0:	00003097          	auipc	ra,0x3
ffffffff800031a4:	6aa080e7          	jalr	1706(ra) # ffffffff8000684a <memset>
ffffffff800031a8:	f8843783          	ld	a5,-120(s0)
ffffffff800031ac:	140c0c63          	beqz	s8,ffffffff80003304 <pmm_init+0x280>
ffffffff800031b0:	4481                	li	s1,0
ffffffff800031b2:	80009537          	lui	a0,0x80009
ffffffff800031b6:	00050993          	mv	s3,a0
ffffffff800031ba:	80008537          	lui	a0,0x80008
ffffffff800031be:	62850513          	addi	a0,a0,1576 # ffffffff80008628 <$d.1+0x119>
ffffffff800031c2:	f8a43023          	sd	a0,-128(s0)
ffffffff800031c6:	80008537          	lui	a0,0x80008
ffffffff800031ca:	63950a93          	addi	s5,a0,1593 # ffffffff80008639 <$d.1+0x12a>
ffffffff800031ce:	80008537          	lui	a0,0x80008
ffffffff800031d2:	27d50b13          	addi	s6,a0,637 # ffffffff8000827d <$d.2+0x157>
ffffffff800031d6:	4d85                	li	s11,1
ffffffff800031d8:	a821                	j	ffffffff800031f0 <pmm_init+0x16c>
ffffffff800031da:	a001                	j	ffffffff800031da <pmm_init+0x156>
ffffffff800031dc:	854e                	mv	a0,s3
ffffffff800031de:	fffff097          	auipc	ra,0xfffff
ffffffff800031e2:	fea080e7          	jalr	-22(ra) # ffffffff800021c8 <spinlock_unlock>
ffffffff800031e6:	f8843783          	ld	a5,-120(s0)
ffffffff800031ea:	0485                	addi	s1,s1,1
ffffffff800031ec:	11848c63          	beq	s1,s8,ffffffff80003304 <pmm_init+0x280>
ffffffff800031f0:	00349513          	slli	a0,s1,0x3
ffffffff800031f4:	9566                	add	a0,a0,s9
ffffffff800031f6:	6108                	ld	a0,0(a0)
ffffffff800031f8:	690c                	ld	a1,16(a0)
ffffffff800031fa:	f9e5                	bnez	a1,ffffffff800031ea <pmm_init+0x166>
ffffffff800031fc:	00053903          	ld	s2,0(a0)
ffffffff80003200:	ff27e5e3          	bltu	a5,s2,ffffffff800031ea <pmm_init+0x166>
ffffffff80003204:	08f91963          	bne	s2,a5,ffffffff80003296 <pmm_init+0x212>
ffffffff80003208:	8000a5b7          	lui	a1,0x8000a
ffffffff8000320c:	0585b583          	ld	a1,88(a1) # ffffffff8000a058 <PmmLength>
ffffffff80003210:	0035d613          	srli	a2,a1,0x3
ffffffff80003214:	800096b7          	lui	a3,0x80009
ffffffff80003218:	2306b683          	ld	a3,560(a3) # ffffffff80009230 <MEM_PHYS_OFFSET>
ffffffff8000321c:	f9043703          	ld	a4,-112(s0)
ffffffff80003220:	963a                	add	a2,a2,a4
ffffffff80003222:	777d                	lui	a4,0xfffff
ffffffff80003224:	00e67933          	and	s2,a2,a4
ffffffff80003228:	993e                	add	s2,s2,a5
ffffffff8000322a:	0cd97c63          	bgeu	s2,a3,ffffffff80003302 <pmm_init+0x27e>
ffffffff8000322e:	6508                	ld	a0,8(a0)
ffffffff80003230:	00c55b93          	srli	s7,a0,0xc
ffffffff80003234:	00f5dd13          	srli	s10,a1,0xf
ffffffff80003238:	41ab8a33          	sub	s4,s7,s10
ffffffff8000323c:	06e00713          	li	a4,110
ffffffff80003240:	854e                	mv	a0,s3
ffffffff80003242:	f8043583          	ld	a1,-128(s0)
ffffffff80003246:	8656                	mv	a2,s5
ffffffff80003248:	86da                	mv	a3,s6
ffffffff8000324a:	ffffe097          	auipc	ra,0xffffe
ffffffff8000324e:	1da080e7          	jalr	474(ra) # ffffffff80001424 <spinlock_lock_debug>
ffffffff80003252:	8000a5b7          	lui	a1,0x8000a
ffffffff80003256:	0605b503          	ld	a0,96(a1) # ffffffff8000a060 <PmmFreePages>
ffffffff8000325a:	9552                	add	a0,a0,s4
ffffffff8000325c:	06a5b023          	sd	a0,96(a1)
ffffffff80003260:	f60a0ee3          	beqz	s4,ffffffff800031dc <pmm_init+0x158>
ffffffff80003264:	8000a537          	lui	a0,0x8000a
ffffffff80003268:	05053803          	ld	a6,80(a0) # ffffffff8000a050 <PmmBitmap>
ffffffff8000326c:	00c95593          	srli	a1,s2,0xc
ffffffff80003270:	417d0633          	sub	a2,s10,s7
ffffffff80003274:	86ae                	mv	a3,a1
ffffffff80003276:	0036d713          	srli	a4,a3,0x3
ffffffff8000327a:	9b71                	andi	a4,a4,-4
ffffffff8000327c:	9742                	add	a4,a4,a6
ffffffff8000327e:	431c                	lw	a5,0(a4)
ffffffff80003280:	00bd953b          	sllw	a0,s11,a1
ffffffff80003284:	fff54513          	not	a0,a0
ffffffff80003288:	8d7d                	and	a0,a0,a5
ffffffff8000328a:	c308                	sw	a0,0(a4)
ffffffff8000328c:	0685                	addi	a3,a3,1
ffffffff8000328e:	0605                	addi	a2,a2,1
ffffffff80003290:	0585                	addi	a1,a1,1
ffffffff80003292:	f275                	bnez	a2,ffffffff80003276 <pmm_init+0x1f2>
ffffffff80003294:	b7a1                	j	ffffffff800031dc <pmm_init+0x158>
ffffffff80003296:	800095b7          	lui	a1,0x80009
ffffffff8000329a:	2305b583          	ld	a1,560(a1) # ffffffff80009230 <MEM_PHYS_OFFSET>
ffffffff8000329e:	06b97163          	bgeu	s2,a1,ffffffff80003300 <pmm_init+0x27c>
ffffffff800032a2:	6508                	ld	a0,8(a0)
ffffffff800032a4:	00c55b93          	srli	s7,a0,0xc
ffffffff800032a8:	06e00713          	li	a4,110
ffffffff800032ac:	854e                	mv	a0,s3
ffffffff800032ae:	f8043583          	ld	a1,-128(s0)
ffffffff800032b2:	8656                	mv	a2,s5
ffffffff800032b4:	86da                	mv	a3,s6
ffffffff800032b6:	ffffe097          	auipc	ra,0xffffe
ffffffff800032ba:	16e080e7          	jalr	366(ra) # ffffffff80001424 <spinlock_lock_debug>
ffffffff800032be:	8000a5b7          	lui	a1,0x8000a
ffffffff800032c2:	0605b503          	ld	a0,96(a1) # ffffffff8000a060 <PmmFreePages>
ffffffff800032c6:	955e                	add	a0,a0,s7
ffffffff800032c8:	06a5b023          	sd	a0,96(a1)
ffffffff800032cc:	f00b88e3          	beqz	s7,ffffffff800031dc <pmm_init+0x158>
ffffffff800032d0:	8000a537          	lui	a0,0x8000a
ffffffff800032d4:	05053503          	ld	a0,80(a0) # ffffffff8000a050 <PmmBitmap>
ffffffff800032d8:	00c95593          	srli	a1,s2,0xc
ffffffff800032dc:	9bae                	add	s7,s7,a1
ffffffff800032de:	862e                	mv	a2,a1
ffffffff800032e0:	00365693          	srli	a3,a2,0x3
ffffffff800032e4:	9af1                	andi	a3,a3,-4
ffffffff800032e6:	96aa                	add	a3,a3,a0
ffffffff800032e8:	4298                	lw	a4,0(a3)
ffffffff800032ea:	00bd97bb          	sllw	a5,s11,a1
ffffffff800032ee:	fff7c793          	not	a5,a5
ffffffff800032f2:	8f7d                	and	a4,a4,a5
ffffffff800032f4:	c298                	sw	a4,0(a3)
ffffffff800032f6:	0605                	addi	a2,a2,1
ffffffff800032f8:	0585                	addi	a1,a1,1
ffffffff800032fa:	ff7613e3          	bne	a2,s7,ffffffff800032e0 <pmm_init+0x25c>
ffffffff800032fe:	bdf9                	j	ffffffff800031dc <pmm_init+0x158>
ffffffff80003300:	a001                	j	ffffffff80003300 <pmm_init+0x27c>
ffffffff80003302:	a001                	j	ffffffff80003302 <pmm_init+0x27e>
ffffffff80003304:	8000a537          	lui	a0,0x8000a
ffffffff80003308:	06053583          	ld	a1,96(a0) # ffffffff8000a060 <PmmFreePages>
ffffffff8000330c:	8000a4b7          	lui	s1,0x8000a
ffffffff80003310:	0504b603          	ld	a2,80(s1) # ffffffff8000a050 <PmmBitmap>
ffffffff80003314:	80008537          	lui	a0,0x80008
ffffffff80003318:	71f50513          	addi	a0,a0,1823 # ffffffff8000871f <$d.2+0x1a>
ffffffff8000331c:	00004097          	auipc	ra,0x4
ffffffff80003320:	52a080e7          	jalr	1322(ra) # ffffffff80007846 <printf>
ffffffff80003324:	0504b503          	ld	a0,80(s1)
ffffffff80003328:	410c                	lw	a1,0(a0)
ffffffff8000332a:	0025e593          	ori	a1,a1,2
ffffffff8000332e:	c10c                	sw	a1,0(a0)
ffffffff80003330:	410c                	lw	a1,0(a0)
ffffffff80003332:	0045e593          	ori	a1,a1,4
ffffffff80003336:	c10c                	sw	a1,0(a0)
ffffffff80003338:	70e6                	ld	ra,120(sp)
ffffffff8000333a:	7446                	ld	s0,112(sp)
ffffffff8000333c:	74a6                	ld	s1,104(sp)
ffffffff8000333e:	7906                	ld	s2,96(sp)
ffffffff80003340:	69e6                	ld	s3,88(sp)
ffffffff80003342:	6a46                	ld	s4,80(sp)
ffffffff80003344:	6aa6                	ld	s5,72(sp)
ffffffff80003346:	6b06                	ld	s6,64(sp)
ffffffff80003348:	7be2                	ld	s7,56(sp)
ffffffff8000334a:	7c42                	ld	s8,48(sp)
ffffffff8000334c:	7ca2                	ld	s9,40(sp)
ffffffff8000334e:	7d02                	ld	s10,32(sp)
ffffffff80003350:	6de2                	ld	s11,24(sp)
ffffffff80003352:	6109                	addi	sp,sp,128
ffffffff80003354:	8082                	ret

ffffffff80003356 <pmm_free>:
ffffffff80003356:	80009637          	lui	a2,0x80009
ffffffff8000335a:	23063603          	ld	a2,560(a2) # ffffffff80009230 <MEM_PHYS_OFFSET>
ffffffff8000335e:	08c57c63          	bgeu	a0,a2,ffffffff800033f6 <pmm_free+0xa0>
ffffffff80003362:	7179                	addi	sp,sp,-48
ffffffff80003364:	f406                	sd	ra,40(sp)
ffffffff80003366:	f022                	sd	s0,32(sp)
ffffffff80003368:	ec26                	sd	s1,24(sp)
ffffffff8000336a:	e84a                	sd	s2,16(sp)
ffffffff8000336c:	e44e                	sd	s3,8(sp)
ffffffff8000336e:	1800                	addi	s0,sp,48
ffffffff80003370:	84ae                	mv	s1,a1
ffffffff80003372:	89aa                	mv	s3,a0
ffffffff80003374:	80009537          	lui	a0,0x80009
ffffffff80003378:	00050913          	mv	s2,a0
ffffffff8000337c:	80008537          	lui	a0,0x80008
ffffffff80003380:	62850593          	addi	a1,a0,1576 # ffffffff80008628 <$d.1+0x119>
ffffffff80003384:	80008537          	lui	a0,0x80008
ffffffff80003388:	63950613          	addi	a2,a0,1593 # ffffffff80008639 <$d.1+0x12a>
ffffffff8000338c:	80008537          	lui	a0,0x80008
ffffffff80003390:	27d50693          	addi	a3,a0,637 # ffffffff8000827d <$d.2+0x157>
ffffffff80003394:	06e00713          	li	a4,110
ffffffff80003398:	854a                	mv	a0,s2
ffffffff8000339a:	ffffe097          	auipc	ra,0xffffe
ffffffff8000339e:	08a080e7          	jalr	138(ra) # ffffffff80001424 <spinlock_lock_debug>
ffffffff800033a2:	8000a537          	lui	a0,0x8000a
ffffffff800033a6:	06053583          	ld	a1,96(a0) # ffffffff8000a060 <PmmFreePages>
ffffffff800033aa:	95a6                	add	a1,a1,s1
ffffffff800033ac:	06b53023          	sd	a1,96(a0)
ffffffff800033b0:	c885                	beqz	s1,ffffffff800033e0 <pmm_free+0x8a>
ffffffff800033b2:	8000a537          	lui	a0,0x8000a
ffffffff800033b6:	05053503          	ld	a0,80(a0) # ffffffff8000a050 <PmmBitmap>
ffffffff800033ba:	00c9d593          	srli	a1,s3,0xc
ffffffff800033be:	4805                	li	a6,1
ffffffff800033c0:	86ae                	mv	a3,a1
ffffffff800033c2:	0036d713          	srli	a4,a3,0x3
ffffffff800033c6:	9b71                	andi	a4,a4,-4
ffffffff800033c8:	972a                	add	a4,a4,a0
ffffffff800033ca:	431c                	lw	a5,0(a4)
ffffffff800033cc:	00b8163b          	sllw	a2,a6,a1
ffffffff800033d0:	fff64613          	not	a2,a2
ffffffff800033d4:	8e7d                	and	a2,a2,a5
ffffffff800033d6:	c310                	sw	a2,0(a4)
ffffffff800033d8:	0685                	addi	a3,a3,1
ffffffff800033da:	14fd                	addi	s1,s1,-1
ffffffff800033dc:	0585                	addi	a1,a1,1
ffffffff800033de:	f0f5                	bnez	s1,ffffffff800033c2 <pmm_free+0x6c>
ffffffff800033e0:	854a                	mv	a0,s2
ffffffff800033e2:	70a2                	ld	ra,40(sp)
ffffffff800033e4:	7402                	ld	s0,32(sp)
ffffffff800033e6:	64e2                	ld	s1,24(sp)
ffffffff800033e8:	6942                	ld	s2,16(sp)
ffffffff800033ea:	69a2                	ld	s3,8(sp)
ffffffff800033ec:	6145                	addi	sp,sp,48
ffffffff800033ee:	fffff317          	auipc	t1,0xfffff
ffffffff800033f2:	dda30067          	jr	-550(t1) # ffffffff800021c8 <spinlock_unlock>
ffffffff800033f6:	a001                	j	ffffffff800033f6 <pmm_free+0xa0>

ffffffff800033f8 <pmm_alloc>:
ffffffff800033f8:	1101                	addi	sp,sp,-32
ffffffff800033fa:	ec06                	sd	ra,24(sp)
ffffffff800033fc:	e822                	sd	s0,16(sp)
ffffffff800033fe:	e426                	sd	s1,8(sp)
ffffffff80003400:	e04a                	sd	s2,0(sp)
ffffffff80003402:	1000                	addi	s0,sp,32
ffffffff80003404:	892a                	mv	s2,a0
ffffffff80003406:	4585                	li	a1,1
ffffffff80003408:	00000097          	auipc	ra,0x0
ffffffff8000340c:	030080e7          	jalr	48(ra) # ffffffff80003438 <pmm_alloc_advanced>
ffffffff80003410:	800095b7          	lui	a1,0x80009
ffffffff80003414:	2305b583          	ld	a1,560(a1) # ffffffff80009230 <MEM_PHYS_OFFSET>
ffffffff80003418:	84aa                	mv	s1,a0
ffffffff8000341a:	952e                	add	a0,a0,a1
ffffffff8000341c:	00c91613          	slli	a2,s2,0xc
ffffffff80003420:	4581                	li	a1,0
ffffffff80003422:	00003097          	auipc	ra,0x3
ffffffff80003426:	428080e7          	jalr	1064(ra) # ffffffff8000684a <memset>
ffffffff8000342a:	8526                	mv	a0,s1
ffffffff8000342c:	60e2                	ld	ra,24(sp)
ffffffff8000342e:	6442                	ld	s0,16(sp)
ffffffff80003430:	64a2                	ld	s1,8(sp)
ffffffff80003432:	6902                	ld	s2,0(sp)
ffffffff80003434:	6105                	addi	sp,sp,32
ffffffff80003436:	8082                	ret

ffffffff80003438 <pmm_alloc_advanced>:
ffffffff80003438:	7179                	addi	sp,sp,-48
ffffffff8000343a:	f406                	sd	ra,40(sp)
ffffffff8000343c:	f022                	sd	s0,32(sp)
ffffffff8000343e:	ec26                	sd	s1,24(sp)
ffffffff80003440:	e84a                	sd	s2,16(sp)
ffffffff80003442:	e44e                	sd	s3,8(sp)
ffffffff80003444:	e052                	sd	s4,0(sp)
ffffffff80003446:	1800                	addi	s0,sp,48
ffffffff80003448:	892e                	mv	s2,a1
ffffffff8000344a:	84aa                	mv	s1,a0
ffffffff8000344c:	80009537          	lui	a0,0x80009
ffffffff80003450:	00050993          	mv	s3,a0
ffffffff80003454:	80008537          	lui	a0,0x80008
ffffffff80003458:	62850593          	addi	a1,a0,1576 # ffffffff80008628 <$d.1+0x119>
ffffffff8000345c:	80008537          	lui	a0,0x80008
ffffffff80003460:	39850613          	addi	a2,a0,920 # ffffffff80008398 <$d.2+0x20>
ffffffff80003464:	80008537          	lui	a0,0x80008
ffffffff80003468:	27d50693          	addi	a3,a0,637 # ffffffff8000827d <$d.2+0x157>
ffffffff8000346c:	05800713          	li	a4,88
ffffffff80003470:	854e                	mv	a0,s3
ffffffff80003472:	ffffe097          	auipc	ra,0xffffe
ffffffff80003476:	fb2080e7          	jalr	-78(ra) # ffffffff80001424 <spinlock_lock_debug>
ffffffff8000347a:	8000a537          	lui	a0,0x8000a
ffffffff8000347e:	05853803          	ld	a6,88(a0) # ffffffff8000a058 <PmmLength>
ffffffff80003482:	02080e63          	beqz	a6,ffffffff800034be <pmm_alloc_advanced+0x86>
ffffffff80003486:	8000a537          	lui	a0,0x8000a
ffffffff8000348a:	05053503          	ld	a0,80(a0) # ffffffff8000a050 <PmmBitmap>
ffffffff8000348e:	4601                	li	a2,0
ffffffff80003490:	4a01                	li	s4,0
ffffffff80003492:	cc8d                	beqz	s1,ffffffff800034cc <pmm_alloc_advanced+0x94>
ffffffff80003494:	86b2                	mv	a3,a2
ffffffff80003496:	8726                	mv	a4,s1
ffffffff80003498:	85d2                	mv	a1,s4
ffffffff8000349a:	0035d793          	srli	a5,a1,0x3
ffffffff8000349e:	9bf1                	andi	a5,a5,-4
ffffffff800034a0:	97aa                	add	a5,a5,a0
ffffffff800034a2:	439c                	lw	a5,0(a5)
ffffffff800034a4:	00d7d7bb          	srlw	a5,a5,a3
ffffffff800034a8:	8b85                	andi	a5,a5,1
ffffffff800034aa:	e791                	bnez	a5,ffffffff800034b6 <pmm_alloc_advanced+0x7e>
ffffffff800034ac:	0585                	addi	a1,a1,1
ffffffff800034ae:	177d                	addi	a4,a4,-1 # ffffffffffffefff <ActiveTasks+0x7faee7d7>
ffffffff800034b0:	0685                	addi	a3,a3,1
ffffffff800034b2:	f765                	bnez	a4,ffffffff8000349a <pmm_alloc_advanced+0x62>
ffffffff800034b4:	a829                	j	ffffffff800034ce <pmm_alloc_advanced+0x96>
ffffffff800034b6:	9a4a                	add	s4,s4,s2
ffffffff800034b8:	964a                	add	a2,a2,s2
ffffffff800034ba:	fd0a6ce3          	bltu	s4,a6,ffffffff80003492 <pmm_alloc_advanced+0x5a>
ffffffff800034be:	854e                	mv	a0,s3
ffffffff800034c0:	fffff097          	auipc	ra,0xfffff
ffffffff800034c4:	d08080e7          	jalr	-760(ra) # ffffffff800021c8 <spinlock_unlock>
ffffffff800034c8:	4501                	li	a0,0
ffffffff800034ca:	a881                	j	ffffffff8000351a <pmm_alloc_advanced+0xe2>
ffffffff800034cc:	4a01                	li	s4,0
ffffffff800034ce:	8000a5b7          	lui	a1,0x8000a
ffffffff800034d2:	0605b603          	ld	a2,96(a1) # ffffffff8000a060 <PmmFreePages>
ffffffff800034d6:	c601                	beqz	a2,ffffffff800034de <pmm_alloc_advanced+0xa6>
ffffffff800034d8:	8e05                	sub	a2,a2,s1
ffffffff800034da:	06c5b023          	sd	a2,96(a1)
ffffffff800034de:	009a05b3          	add	a1,s4,s1
ffffffff800034e2:	02ba7263          	bgeu	s4,a1,ffffffff80003506 <pmm_alloc_advanced+0xce>
ffffffff800034e6:	4805                	li	a6,1
ffffffff800034e8:	8652                	mv	a2,s4
ffffffff800034ea:	86d2                	mv	a3,s4
ffffffff800034ec:	0036d713          	srli	a4,a3,0x3
ffffffff800034f0:	9b71                	andi	a4,a4,-4
ffffffff800034f2:	972a                	add	a4,a4,a0
ffffffff800034f4:	431c                	lw	a5,0(a4)
ffffffff800034f6:	00c815bb          	sllw	a1,a6,a2
ffffffff800034fa:	8ddd                	or	a1,a1,a5
ffffffff800034fc:	c30c                	sw	a1,0(a4)
ffffffff800034fe:	0685                	addi	a3,a3,1
ffffffff80003500:	14fd                	addi	s1,s1,-1
ffffffff80003502:	0605                	addi	a2,a2,1
ffffffff80003504:	f4e5                	bnez	s1,ffffffff800034ec <pmm_alloc_advanced+0xb4>
ffffffff80003506:	80009537          	lui	a0,0x80009
ffffffff8000350a:	00050513          	mv	a0,a0
ffffffff8000350e:	fffff097          	auipc	ra,0xfffff
ffffffff80003512:	cba080e7          	jalr	-838(ra) # ffffffff800021c8 <spinlock_unlock>
ffffffff80003516:	00ca1513          	slli	a0,s4,0xc
ffffffff8000351a:	70a2                	ld	ra,40(sp)
ffffffff8000351c:	7402                	ld	s0,32(sp)
ffffffff8000351e:	64e2                	ld	s1,24(sp)
ffffffff80003520:	6942                	ld	s2,16(sp)
ffffffff80003522:	69a2                	ld	s3,8(sp)
ffffffff80003524:	6a02                	ld	s4,0(sp)
ffffffff80003526:	6145                	addi	sp,sp,48
ffffffff80003528:	8082                	ret

ffffffff8000352a <vmm_init>:
ffffffff8000352a:	7139                	addi	sp,sp,-64
ffffffff8000352c:	fc06                	sd	ra,56(sp)
ffffffff8000352e:	f822                	sd	s0,48(sp)
ffffffff80003530:	f426                	sd	s1,40(sp)
ffffffff80003532:	f04a                	sd	s2,32(sp)
ffffffff80003534:	ec4e                	sd	s3,24(sp)
ffffffff80003536:	e852                	sd	s4,16(sp)
ffffffff80003538:	e456                	sd	s5,8(sp)
ffffffff8000353a:	0080                	addi	s0,sp,64
ffffffff8000353c:	84b6                	mv	s1,a3
ffffffff8000353e:	89b2                	mv	s3,a2
ffffffff80003540:	892e                	mv	s2,a1
ffffffff80003542:	8a2a                	mv	s4,a0
ffffffff80003544:	fffff097          	auipc	ra,0xfffff
ffffffff80003548:	eae080e7          	jalr	-338(ra) # ffffffff800023f2 <arch_vmm_preinit>
ffffffff8000354c:	8000aab7          	lui	s5,0x8000a
ffffffff80003550:	074ab823          	sd	s4,112(s5) # ffffffff8000a070 <VmmKernelBase>
ffffffff80003554:	8000aa37          	lui	s4,0x8000a
ffffffff80003558:	072a3c23          	sd	s2,120(s4) # ffffffff8000a078 <VmmPhysicalKernelBase>
ffffffff8000355c:	c4b9                	beqz	s1,ffffffff800035aa <vmm_init+0x80>
ffffffff8000355e:	4519                	li	a0,6
ffffffff80003560:	a021                	j	ffffffff80003568 <vmm_init+0x3e>
ffffffff80003562:	14fd                	addi	s1,s1,-1
ffffffff80003564:	09a1                	addi	s3,s3,8 # 1008 <$d.3+0x66>
ffffffff80003566:	c0b1                	beqz	s1,ffffffff800035aa <vmm_init+0x80>
ffffffff80003568:	0009b583          	ld	a1,0(s3)
ffffffff8000356c:	6990                	ld	a2,16(a1)
ffffffff8000356e:	fea61ae3          	bne	a2,a0,ffffffff80003562 <vmm_init+0x38>
ffffffff80003572:	6190                	ld	a2,0(a1)
ffffffff80003574:	ff2617e3          	bne	a2,s2,ffffffff80003562 <vmm_init+0x38>
ffffffff80003578:	02b91513          	slli	a0,s2,0x2b
ffffffff8000357c:	c115                	beqz	a0,ffffffff800035a0 <vmm_init+0x76>
ffffffff8000357e:	6588                	ld	a0,8(a1)
ffffffff80003580:	6585                	lui	a1,0x1
ffffffff80003582:	35fd                	addiw	a1,a1,-1 # fff <$d.3+0x5d>
ffffffff80003584:	952e                	add	a0,a0,a1
ffffffff80003586:	8131                	srli	a0,a0,0xc
ffffffff80003588:	20000593          	li	a1,512
ffffffff8000358c:	00000097          	auipc	ra,0x0
ffffffff80003590:	eac080e7          	jalr	-340(ra) # ffffffff80003438 <pmm_alloc_advanced>
ffffffff80003594:	8000a5b7          	lui	a1,0x8000a
ffffffff80003598:	06a5bc23          	sd	a0,120(a1) # ffffffff8000a078 <VmmPhysicalKernelBase>
ffffffff8000359c:	0009b583          	ld	a1,0(s3)
ffffffff800035a0:	6588                	ld	a0,8(a1)
ffffffff800035a2:	8000a5b7          	lui	a1,0x8000a
ffffffff800035a6:	08a5b023          	sd	a0,128(a1) # ffffffff8000a080 <VmmKernelSize>
ffffffff800035aa:	fffff097          	auipc	ra,0xfffff
ffffffff800035ae:	e8a080e7          	jalr	-374(ra) # ffffffff80002434 <vmm_setup_pt>
ffffffff800035b2:	8000a9b7          	lui	s3,0x8000a
ffffffff800035b6:	06a9b423          	sd	a0,104(s3) # ffffffff8000a068 <KernelPageMap>
ffffffff800035ba:	10000693          	li	a3,256
ffffffff800035be:	4739                	li	a4,14
ffffffff800035c0:	4581                	li	a1,0
ffffffff800035c2:	4601                	li	a2,0
ffffffff800035c4:	fffff097          	auipc	ra,0xfffff
ffffffff800035c8:	f18080e7          	jalr	-232(ra) # ffffffff800024dc <vmm_map_huge>
ffffffff800035cc:	078a3503          	ld	a0,120(s4)
ffffffff800035d0:	800095b7          	lui	a1,0x80009
ffffffff800035d4:	2305b683          	ld	a3,560(a1) # ffffffff80009230 <MEM_PHYS_OFFSET>
ffffffff800035d8:	070ab583          	ld	a1,112(s5)
ffffffff800035dc:	8000a4b7          	lui	s1,0x8000a
ffffffff800035e0:	0804b603          	ld	a2,128(s1) # ffffffff8000a080 <VmmKernelSize>
ffffffff800035e4:	9536                	add	a0,a0,a3
ffffffff800035e6:	00003097          	auipc	ra,0x3
ffffffff800035ea:	2aa080e7          	jalr	682(ra) # ffffffff80006890 <memcpy>
ffffffff800035ee:	0689b503          	ld	a0,104(s3)
ffffffff800035f2:	fffff097          	auipc	ra,0xfffff
ffffffff800035f6:	f26080e7          	jalr	-218(ra) # ffffffff80002518 <vmm_set_pt>
ffffffff800035fa:	078a3503          	ld	a0,120(s4)
ffffffff800035fe:	01250e63          	beq	a0,s2,ffffffff8000361a <vmm_init+0xf0>
ffffffff80003602:	0804b503          	ld	a0,128(s1)
ffffffff80003606:	6585                	lui	a1,0x1
ffffffff80003608:	35fd                	addiw	a1,a1,-1 # fff <$d.3+0x5d>
ffffffff8000360a:	952e                	add	a0,a0,a1
ffffffff8000360c:	00c55593          	srli	a1,a0,0xc
ffffffff80003610:	854a                	mv	a0,s2
ffffffff80003612:	00000097          	auipc	ra,0x0
ffffffff80003616:	d44080e7          	jalr	-700(ra) # ffffffff80003356 <pmm_free>
ffffffff8000361a:	80008537          	lui	a0,0x80008
ffffffff8000361e:	42b50513          	addi	a0,a0,1067 # ffffffff8000842b <$d.2>
ffffffff80003622:	70e2                	ld	ra,56(sp)
ffffffff80003624:	7442                	ld	s0,48(sp)
ffffffff80003626:	74a2                	ld	s1,40(sp)
ffffffff80003628:	7902                	ld	s2,32(sp)
ffffffff8000362a:	69e2                	ld	s3,24(sp)
ffffffff8000362c:	6a42                	ld	s4,16(sp)
ffffffff8000362e:	6aa2                	ld	s5,8(sp)
ffffffff80003630:	6121                	addi	sp,sp,64
ffffffff80003632:	00004317          	auipc	t1,0x4
ffffffff80003636:	21430067          	jr	532(t1) # ffffffff80007846 <printf>

ffffffff8000363a <process_init_process_table>:
ffffffff8000363a:	1141                	addi	sp,sp,-16
ffffffff8000363c:	e406                	sd	ra,8(sp)
ffffffff8000363e:	e022                	sd	s0,0(sp)
ffffffff80003640:	0800                	addi	s0,sp,16
ffffffff80003642:	80510537          	lui	a0,0x80510
ffffffff80003646:	00050513          	mv	a0,a0
ffffffff8000364a:	800085b7          	lui	a1,0x80008
ffffffff8000364e:	7a158593          	addi	a1,a1,1953 # ffffffff800087a1 <$d.2>
ffffffff80003652:	80008637          	lui	a2,0x80008
ffffffff80003656:	64260613          	addi	a2,a2,1602 # ffffffff80008642 <$d.1+0x133>
ffffffff8000365a:	800096b7          	lui	a3,0x80009
ffffffff8000365e:	81e68693          	addi	a3,a3,-2018 # ffffffff8000881e <$d.2+0x7d>
ffffffff80003662:	472d                	li	a4,11
ffffffff80003664:	ffffe097          	auipc	ra,0xffffe
ffffffff80003668:	dc0080e7          	jalr	-576(ra) # ffffffff80001424 <spinlock_lock_debug>
ffffffff8000366c:	80510537          	lui	a0,0x80510
ffffffff80003670:	02850513          	addi	a0,a0,40 # ffffffff80510028 <ProcessTable>
ffffffff80003674:	7ff50593          	addi	a1,a0,2047
ffffffff80003678:	0585                	addi	a1,a1,1
ffffffff8000367a:	00053023          	sd	zero,0(a0)
ffffffff8000367e:	0521                	addi	a0,a0,8
ffffffff80003680:	feb51de3          	bne	a0,a1,ffffffff8000367a <process_init_process_table+0x40>
ffffffff80003684:	80510537          	lui	a0,0x80510
ffffffff80003688:	00050513          	mv	a0,a0
ffffffff8000368c:	60a2                	ld	ra,8(sp)
ffffffff8000368e:	6402                	ld	s0,0(sp)
ffffffff80003690:	0141                	addi	sp,sp,16
ffffffff80003692:	fffff317          	auipc	t1,0xfffff
ffffffff80003696:	b3630067          	jr	-1226(t1) # ffffffff800021c8 <spinlock_unlock>

ffffffff8000369a <process_create>:
ffffffff8000369a:	7135                	addi	sp,sp,-160
ffffffff8000369c:	ed06                	sd	ra,152(sp)
ffffffff8000369e:	e922                	sd	s0,144(sp)
ffffffff800036a0:	e526                	sd	s1,136(sp)
ffffffff800036a2:	e14a                	sd	s2,128(sp)
ffffffff800036a4:	fcce                	sd	s3,120(sp)
ffffffff800036a6:	f8d2                	sd	s4,112(sp)
ffffffff800036a8:	1100                	addi	s0,sp,160
ffffffff800036aa:	89aa                	mv	s3,a0
ffffffff800036ac:	80510537          	lui	a0,0x80510
ffffffff800036b0:	00050513          	mv	a0,a0
ffffffff800036b4:	800085b7          	lui	a1,0x80008
ffffffff800036b8:	7a158593          	addi	a1,a1,1953 # ffffffff800087a1 <$d.2>
ffffffff800036bc:	80008637          	lui	a2,0x80008
ffffffff800036c0:	24d60613          	addi	a2,a2,589 # ffffffff8000824d <$d.2+0x127>
ffffffff800036c4:	800096b7          	lui	a3,0x80009
ffffffff800036c8:	81e68693          	addi	a3,a3,-2018 # ffffffff8000881e <$d.2+0x7d>
ffffffff800036cc:	474d                	li	a4,19
ffffffff800036ce:	ffffe097          	auipc	ra,0xffffe
ffffffff800036d2:	d56080e7          	jalr	-682(ra) # ffffffff80001424 <spinlock_lock_debug>
ffffffff800036d6:	4901                	li	s2,0
ffffffff800036d8:	80510537          	lui	a0,0x80510
ffffffff800036dc:	02850a13          	addi	s4,a0,40 # ffffffff80510028 <ProcessTable>
ffffffff800036e0:	10000513          	li	a0,256
ffffffff800036e4:	000a3583          	ld	a1,0(s4)
ffffffff800036e8:	cd99                	beqz	a1,ffffffff80003706 <process_create+0x6c>
ffffffff800036ea:	0905                	addi	s2,s2,1
ffffffff800036ec:	0a21                	addi	s4,s4,8
ffffffff800036ee:	fea91be3          	bne	s2,a0,ffffffff800036e4 <process_create+0x4a>
ffffffff800036f2:	80008537          	lui	a0,0x80008
ffffffff800036f6:	4b850513          	addi	a0,a0,1208 # ffffffff800084b8 <$d.2+0x8d>
ffffffff800036fa:	00004097          	auipc	ra,0x4
ffffffff800036fe:	14c080e7          	jalr	332(ra) # ffffffff80007846 <printf>
ffffffff80003702:	597d                	li	s2,-1
ffffffff80003704:	a6c5                	j	ffffffff80003ae4 <process_create+0x44a>
ffffffff80003706:	07800513          	li	a0,120
ffffffff8000370a:	fffff097          	auipc	ra,0xfffff
ffffffff8000370e:	470080e7          	jalr	1136(ra) # ffffffff80002b7a <kmalloc>
ffffffff80003712:	84aa                	mv	s1,a0
ffffffff80003714:	17400513          	li	a0,372
ffffffff80003718:	10000593          	li	a1,256
ffffffff8000371c:	00000097          	auipc	ra,0x0
ffffffff80003720:	87e080e7          	jalr	-1922(ra) # ffffffff80002f9a <kcalloc>
ffffffff80003724:	4581                	li	a1,0
ffffffff80003726:	03855613          	srli	a2,a0,0x38
ffffffff8000372a:	00c48ba3          	sb	a2,23(s1)
ffffffff8000372e:	03055613          	srli	a2,a0,0x30
ffffffff80003732:	00c48b23          	sb	a2,22(s1)
ffffffff80003736:	02855613          	srli	a2,a0,0x28
ffffffff8000373a:	00c48aa3          	sb	a2,21(s1)
ffffffff8000373e:	02055613          	srli	a2,a0,0x20
ffffffff80003742:	00c48a23          	sb	a2,20(s1)
ffffffff80003746:	01855613          	srli	a2,a0,0x18
ffffffff8000374a:	00c489a3          	sb	a2,19(s1)
ffffffff8000374e:	01055613          	srli	a2,a0,0x10
ffffffff80003752:	00c48923          	sb	a2,18(s1)
ffffffff80003756:	00a48823          	sb	a0,16(s1)
ffffffff8000375a:	8121                	srli	a0,a0,0x8
ffffffff8000375c:	00a488a3          	sb	a0,17(s1)
ffffffff80003760:	0389d513          	srli	a0,s3,0x38
ffffffff80003764:	00a487a3          	sb	a0,15(s1)
ffffffff80003768:	0309d513          	srli	a0,s3,0x30
ffffffff8000376c:	00a48723          	sb	a0,14(s1)
ffffffff80003770:	0289d513          	srli	a0,s3,0x28
ffffffff80003774:	00a486a3          	sb	a0,13(s1)
ffffffff80003778:	0209d513          	srli	a0,s3,0x20
ffffffff8000377c:	00a48623          	sb	a0,12(s1)
ffffffff80003780:	0189d513          	srli	a0,s3,0x18
ffffffff80003784:	00a485a3          	sb	a0,11(s1)
ffffffff80003788:	0109d513          	srli	a0,s3,0x10
ffffffff8000378c:	00a48523          	sb	a0,10(s1)
ffffffff80003790:	0089d513          	srli	a0,s3,0x8
ffffffff80003794:	00a484a3          	sb	a0,9(s1)
ffffffff80003798:	01348423          	sb	s3,8(s1)
ffffffff8000379c:	03895513          	srli	a0,s2,0x38
ffffffff800037a0:	00a483a3          	sb	a0,7(s1)
ffffffff800037a4:	03095513          	srli	a0,s2,0x30
ffffffff800037a8:	00a48323          	sb	a0,6(s1)
ffffffff800037ac:	02895513          	srli	a0,s2,0x28
ffffffff800037b0:	00a482a3          	sb	a0,5(s1)
ffffffff800037b4:	02095513          	srli	a0,s2,0x20
ffffffff800037b8:	00a48223          	sb	a0,4(s1)
ffffffff800037bc:	01895513          	srli	a0,s2,0x18
ffffffff800037c0:	00a481a3          	sb	a0,3(s1)
ffffffff800037c4:	01095513          	srli	a0,s2,0x10
ffffffff800037c8:	00a48123          	sb	a0,2(s1)
ffffffff800037cc:	00895513          	srli	a0,s2,0x8
ffffffff800037d0:	00a480a3          	sb	a0,1(s1)
ffffffff800037d4:	01248023          	sb	s2,0(s1)
ffffffff800037d8:	4505                	li	a0,1
ffffffff800037da:	00b51813          	slli	a6,a0,0xb
ffffffff800037de:	0114c603          	lbu	a2,17(s1)
ffffffff800037e2:	0104c683          	lbu	a3,16(s1)
ffffffff800037e6:	0124c703          	lbu	a4,18(s1)
ffffffff800037ea:	0134c783          	lbu	a5,19(s1)
ffffffff800037ee:	0622                	slli	a2,a2,0x8
ffffffff800037f0:	8e55                	or	a2,a2,a3
ffffffff800037f2:	0742                	slli	a4,a4,0x10
ffffffff800037f4:	07e2                	slli	a5,a5,0x18
ffffffff800037f6:	8f5d                	or	a4,a4,a5
ffffffff800037f8:	8e59                	or	a2,a2,a4
ffffffff800037fa:	0154c683          	lbu	a3,21(s1)
ffffffff800037fe:	0144c703          	lbu	a4,20(s1)
ffffffff80003802:	0164c783          	lbu	a5,22(s1)
ffffffff80003806:	0174c503          	lbu	a0,23(s1)
ffffffff8000380a:	06a2                	slli	a3,a3,0x8
ffffffff8000380c:	8ed9                	or	a3,a3,a4
ffffffff8000380e:	07c2                	slli	a5,a5,0x10
ffffffff80003810:	0562                	slli	a0,a0,0x18
ffffffff80003812:	8d5d                	or	a0,a0,a5
ffffffff80003814:	8d55                	or	a0,a0,a3
ffffffff80003816:	1502                	slli	a0,a0,0x20
ffffffff80003818:	8d51                	or	a0,a0,a2
ffffffff8000381a:	952e                	add	a0,a0,a1
ffffffff8000381c:	05a1                	addi	a1,a1,8
ffffffff8000381e:	00053023          	sd	zero,0(a0)
ffffffff80003822:	fb059ee3          	bne	a1,a6,ffffffff800037de <process_create+0x144>
ffffffff80003826:	040483a3          	sb	zero,71(s1)
ffffffff8000382a:	04048323          	sb	zero,70(s1)
ffffffff8000382e:	07800513          	li	a0,120
ffffffff80003832:	04a482a3          	sb	a0,69(s1)
ffffffff80003836:	04048223          	sb	zero,68(s1)
ffffffff8000383a:	040481a3          	sb	zero,67(s1)
ffffffff8000383e:	04048123          	sb	zero,66(s1)
ffffffff80003842:	040480a3          	sb	zero,65(s1)
ffffffff80003846:	04048023          	sb	zero,64(s1)
ffffffff8000384a:	fc042423          	sw	zero,-56(s0)
ffffffff8000384e:	80008537          	lui	a0,0x80008
ffffffff80003852:	50f50513          	addi	a0,a0,1295 # ffffffff8000850f <$d.1>
ffffffff80003856:	faa43c23          	sd	a0,-72(s0)
ffffffff8000385a:	faa43823          	sd	a0,-80(s0)
ffffffff8000385e:	fa042423          	sw	zero,-88(s0)
ffffffff80003862:	55fd                	li	a1,-1
ffffffff80003864:	f8b43c23          	sd	a1,-104(s0)
ffffffff80003868:	fc842603          	lw	a2,-56(s0)
ffffffff8000386c:	04c48423          	sb	a2,72(s1)
ffffffff80003870:	01065693          	srli	a3,a2,0x10
ffffffff80003874:	04d48523          	sb	a3,74(s1)
ffffffff80003878:	01865693          	srli	a3,a2,0x18
ffffffff8000387c:	04d485a3          	sb	a3,75(s1)
ffffffff80003880:	8221                	srli	a2,a2,0x8
ffffffff80003882:	04c484a3          	sb	a2,73(s1)
ffffffff80003886:	fc442603          	lw	a2,-60(s0)
ffffffff8000388a:	04c48623          	sb	a2,76(s1)
ffffffff8000388e:	01865693          	srli	a3,a2,0x18
ffffffff80003892:	04d487a3          	sb	a3,79(s1)
ffffffff80003896:	01065693          	srli	a3,a2,0x10
ffffffff8000389a:	04d48723          	sb	a3,78(s1)
ffffffff8000389e:	8221                	srli	a2,a2,0x8
ffffffff800038a0:	04c486a3          	sb	a2,77(s1)
ffffffff800038a4:	fb843603          	ld	a2,-72(s0)
ffffffff800038a8:	04c48823          	sb	a2,80(s1)
ffffffff800038ac:	01065693          	srli	a3,a2,0x10
ffffffff800038b0:	04d48923          	sb	a3,82(s1)
ffffffff800038b4:	01865693          	srli	a3,a2,0x18
ffffffff800038b8:	04d489a3          	sb	a3,83(s1)
ffffffff800038bc:	00865693          	srli	a3,a2,0x8
ffffffff800038c0:	04d488a3          	sb	a3,81(s1)
ffffffff800038c4:	03065693          	srli	a3,a2,0x30
ffffffff800038c8:	04d48b23          	sb	a3,86(s1)
ffffffff800038cc:	03865693          	srli	a3,a2,0x38
ffffffff800038d0:	04d48ba3          	sb	a3,87(s1)
ffffffff800038d4:	02065693          	srli	a3,a2,0x20
ffffffff800038d8:	04d48a23          	sb	a3,84(s1)
ffffffff800038dc:	9221                	srli	a2,a2,0x28
ffffffff800038de:	04c48aa3          	sb	a2,85(s1)
ffffffff800038e2:	fb043603          	ld	a2,-80(s0)
ffffffff800038e6:	04c48c23          	sb	a2,88(s1)
ffffffff800038ea:	01065693          	srli	a3,a2,0x10
ffffffff800038ee:	04d48d23          	sb	a3,90(s1)
ffffffff800038f2:	01865693          	srli	a3,a2,0x18
ffffffff800038f6:	04d48da3          	sb	a3,91(s1)
ffffffff800038fa:	00865693          	srli	a3,a2,0x8
ffffffff800038fe:	04d48ca3          	sb	a3,89(s1)
ffffffff80003902:	03065693          	srli	a3,a2,0x30
ffffffff80003906:	04d48f23          	sb	a3,94(s1)
ffffffff8000390a:	03865693          	srli	a3,a2,0x38
ffffffff8000390e:	04d48fa3          	sb	a3,95(s1)
ffffffff80003912:	02065693          	srli	a3,a2,0x20
ffffffff80003916:	04d48e23          	sb	a3,92(s1)
ffffffff8000391a:	9221                	srli	a2,a2,0x28
ffffffff8000391c:	04c48ea3          	sb	a2,93(s1)
ffffffff80003920:	fa842603          	lw	a2,-88(s0)
ffffffff80003924:	06c48023          	sb	a2,96(s1)
ffffffff80003928:	01065693          	srli	a3,a2,0x10
ffffffff8000392c:	06d48123          	sb	a3,98(s1)
ffffffff80003930:	01865693          	srli	a3,a2,0x18
ffffffff80003934:	06d481a3          	sb	a3,99(s1)
ffffffff80003938:	8221                	srli	a2,a2,0x8
ffffffff8000393a:	06c480a3          	sb	a2,97(s1)
ffffffff8000393e:	fa442603          	lw	a2,-92(s0)
ffffffff80003942:	06c48223          	sb	a2,100(s1)
ffffffff80003946:	01865693          	srli	a3,a2,0x18
ffffffff8000394a:	06d483a3          	sb	a3,103(s1)
ffffffff8000394e:	01065693          	srli	a3,a2,0x10
ffffffff80003952:	06d48323          	sb	a3,102(s1)
ffffffff80003956:	8221                	srli	a2,a2,0x8
ffffffff80003958:	06c482a3          	sb	a2,101(s1)
ffffffff8000395c:	f9843603          	ld	a2,-104(s0)
ffffffff80003960:	06c48423          	sb	a2,104(s1)
ffffffff80003964:	01065693          	srli	a3,a2,0x10
ffffffff80003968:	06d48523          	sb	a3,106(s1)
ffffffff8000396c:	01865693          	srli	a3,a2,0x18
ffffffff80003970:	06d485a3          	sb	a3,107(s1)
ffffffff80003974:	00865693          	srli	a3,a2,0x8
ffffffff80003978:	06d484a3          	sb	a3,105(s1)
ffffffff8000397c:	03065693          	srli	a3,a2,0x30
ffffffff80003980:	06d48723          	sb	a3,110(s1)
ffffffff80003984:	03865693          	srli	a3,a2,0x38
ffffffff80003988:	06d487a3          	sb	a3,111(s1)
ffffffff8000398c:	02065693          	srli	a3,a2,0x20
ffffffff80003990:	06d48623          	sb	a3,108(s1)
ffffffff80003994:	9221                	srli	a2,a2,0x28
ffffffff80003996:	06c486a3          	sb	a2,109(s1)
ffffffff8000399a:	f8042823          	sw	zero,-112(s0)
ffffffff8000399e:	f8a43023          	sd	a0,-128(s0)
ffffffff800039a2:	f6a43c23          	sd	a0,-136(s0)
ffffffff800039a6:	f6042823          	sw	zero,-144(s0)
ffffffff800039aa:	f6b43023          	sd	a1,-160(s0)
ffffffff800039ae:	f9042503          	lw	a0,-112(s0)
ffffffff800039b2:	00a48c23          	sb	a0,24(s1)
ffffffff800039b6:	01855593          	srli	a1,a0,0x18
ffffffff800039ba:	00b48da3          	sb	a1,27(s1)
ffffffff800039be:	01055593          	srli	a1,a0,0x10
ffffffff800039c2:	00b48d23          	sb	a1,26(s1)
ffffffff800039c6:	8121                	srli	a0,a0,0x8
ffffffff800039c8:	00a48ca3          	sb	a0,25(s1)
ffffffff800039cc:	f8c42503          	lw	a0,-116(s0)
ffffffff800039d0:	00a48e23          	sb	a0,28(s1)
ffffffff800039d4:	01855593          	srli	a1,a0,0x18
ffffffff800039d8:	00b48fa3          	sb	a1,31(s1)
ffffffff800039dc:	01055593          	srli	a1,a0,0x10
ffffffff800039e0:	00b48f23          	sb	a1,30(s1)
ffffffff800039e4:	8121                	srli	a0,a0,0x8
ffffffff800039e6:	00a48ea3          	sb	a0,29(s1)
ffffffff800039ea:	f8043503          	ld	a0,-128(s0)
ffffffff800039ee:	02a48023          	sb	a0,32(s1)
ffffffff800039f2:	01055593          	srli	a1,a0,0x10
ffffffff800039f6:	02b48123          	sb	a1,34(s1)
ffffffff800039fa:	01855593          	srli	a1,a0,0x18
ffffffff800039fe:	02b481a3          	sb	a1,35(s1)
ffffffff80003a02:	00855593          	srli	a1,a0,0x8
ffffffff80003a06:	02b480a3          	sb	a1,33(s1)
ffffffff80003a0a:	03055593          	srli	a1,a0,0x30
ffffffff80003a0e:	02b48323          	sb	a1,38(s1)
ffffffff80003a12:	03855593          	srli	a1,a0,0x38
ffffffff80003a16:	02b483a3          	sb	a1,39(s1)
ffffffff80003a1a:	02055593          	srli	a1,a0,0x20
ffffffff80003a1e:	02b48223          	sb	a1,36(s1)
ffffffff80003a22:	9121                	srli	a0,a0,0x28
ffffffff80003a24:	02a482a3          	sb	a0,37(s1)
ffffffff80003a28:	f7843503          	ld	a0,-136(s0)
ffffffff80003a2c:	02a48423          	sb	a0,40(s1)
ffffffff80003a30:	01055593          	srli	a1,a0,0x10
ffffffff80003a34:	02b48523          	sb	a1,42(s1)
ffffffff80003a38:	01855593          	srli	a1,a0,0x18
ffffffff80003a3c:	02b485a3          	sb	a1,43(s1)
ffffffff80003a40:	00855593          	srli	a1,a0,0x8
ffffffff80003a44:	02b484a3          	sb	a1,41(s1)
ffffffff80003a48:	03055593          	srli	a1,a0,0x30
ffffffff80003a4c:	02b48723          	sb	a1,46(s1)
ffffffff80003a50:	03855593          	srli	a1,a0,0x38
ffffffff80003a54:	02b487a3          	sb	a1,47(s1)
ffffffff80003a58:	02055593          	srli	a1,a0,0x20
ffffffff80003a5c:	02b48623          	sb	a1,44(s1)
ffffffff80003a60:	9121                	srli	a0,a0,0x28
ffffffff80003a62:	02a486a3          	sb	a0,45(s1)
ffffffff80003a66:	f7042503          	lw	a0,-144(s0)
ffffffff80003a6a:	02a48823          	sb	a0,48(s1)
ffffffff80003a6e:	01055593          	srli	a1,a0,0x10
ffffffff80003a72:	02b48923          	sb	a1,50(s1)
ffffffff80003a76:	01855593          	srli	a1,a0,0x18
ffffffff80003a7a:	02b489a3          	sb	a1,51(s1)
ffffffff80003a7e:	8121                	srli	a0,a0,0x8
ffffffff80003a80:	02a488a3          	sb	a0,49(s1)
ffffffff80003a84:	f6c42503          	lw	a0,-148(s0)
ffffffff80003a88:	02a48a23          	sb	a0,52(s1)
ffffffff80003a8c:	01855593          	srli	a1,a0,0x18
ffffffff80003a90:	02b48ba3          	sb	a1,55(s1)
ffffffff80003a94:	01055593          	srli	a1,a0,0x10
ffffffff80003a98:	02b48b23          	sb	a1,54(s1)
ffffffff80003a9c:	8121                	srli	a0,a0,0x8
ffffffff80003a9e:	02a48aa3          	sb	a0,53(s1)
ffffffff80003aa2:	f6043503          	ld	a0,-160(s0)
ffffffff80003aa6:	02a48c23          	sb	a0,56(s1)
ffffffff80003aaa:	01055593          	srli	a1,a0,0x10
ffffffff80003aae:	02b48d23          	sb	a1,58(s1)
ffffffff80003ab2:	01855593          	srli	a1,a0,0x18
ffffffff80003ab6:	02b48da3          	sb	a1,59(s1)
ffffffff80003aba:	00855593          	srli	a1,a0,0x8
ffffffff80003abe:	02b48ca3          	sb	a1,57(s1)
ffffffff80003ac2:	03055593          	srli	a1,a0,0x30
ffffffff80003ac6:	02b48f23          	sb	a1,62(s1)
ffffffff80003aca:	03855593          	srli	a1,a0,0x38
ffffffff80003ace:	02b48fa3          	sb	a1,63(s1)
ffffffff80003ad2:	02055593          	srli	a1,a0,0x20
ffffffff80003ad6:	02b48e23          	sb	a1,60(s1)
ffffffff80003ada:	9121                	srli	a0,a0,0x28
ffffffff80003adc:	02a48ea3          	sb	a0,61(s1)
ffffffff80003ae0:	009a3023          	sd	s1,0(s4)
ffffffff80003ae4:	80510537          	lui	a0,0x80510
ffffffff80003ae8:	00050513          	mv	a0,a0
ffffffff80003aec:	ffffe097          	auipc	ra,0xffffe
ffffffff80003af0:	6dc080e7          	jalr	1756(ra) # ffffffff800021c8 <spinlock_unlock>
ffffffff80003af4:	854a                	mv	a0,s2
ffffffff80003af6:	60ea                	ld	ra,152(sp)
ffffffff80003af8:	644a                	ld	s0,144(sp)
ffffffff80003afa:	64aa                	ld	s1,136(sp)
ffffffff80003afc:	690a                	ld	s2,128(sp)
ffffffff80003afe:	79e6                	ld	s3,120(sp)
ffffffff80003b00:	7a46                	ld	s4,112(sp)
ffffffff80003b02:	610d                	addi	sp,sp,160
ffffffff80003b04:	8082                	ret

ffffffff80003b06 <process_get_process>:
ffffffff80003b06:	7179                	addi	sp,sp,-48
ffffffff80003b08:	f406                	sd	ra,40(sp)
ffffffff80003b0a:	f022                	sd	s0,32(sp)
ffffffff80003b0c:	ec26                	sd	s1,24(sp)
ffffffff80003b0e:	e84a                	sd	s2,16(sp)
ffffffff80003b10:	e44e                	sd	s3,8(sp)
ffffffff80003b12:	e052                	sd	s4,0(sp)
ffffffff80003b14:	1800                	addi	s0,sp,48
ffffffff80003b16:	0ff00593          	li	a1,255
ffffffff80003b1a:	00a5f463          	bgeu	a1,a0,ffffffff80003b22 <process_get_process+0x1c>
ffffffff80003b1e:	4481                	li	s1,0
ffffffff80003b20:	a0ad                	j	ffffffff80003b8a <process_get_process+0x84>
ffffffff80003b22:	84aa                	mv	s1,a0
ffffffff80003b24:	80510537          	lui	a0,0x80510
ffffffff80003b28:	00050913          	mv	s2,a0
ffffffff80003b2c:	80008537          	lui	a0,0x80008
ffffffff80003b30:	7a150993          	addi	s3,a0,1953 # ffffffff800087a1 <$d.2>
ffffffff80003b34:	80008537          	lui	a0,0x80008
ffffffff80003b38:	2d850a13          	addi	s4,a0,728 # ffffffff800082d8 <$d.1+0x22>
ffffffff80003b3c:	80009537          	lui	a0,0x80009
ffffffff80003b40:	81e50693          	addi	a3,a0,-2018 # ffffffff8000881e <$d.2+0x7d>
ffffffff80003b44:	03800713          	li	a4,56
ffffffff80003b48:	854a                	mv	a0,s2
ffffffff80003b4a:	85ce                	mv	a1,s3
ffffffff80003b4c:	8652                	mv	a2,s4
ffffffff80003b4e:	ffffe097          	auipc	ra,0xffffe
ffffffff80003b52:	8d6080e7          	jalr	-1834(ra) # ffffffff80001424 <spinlock_lock_debug>
ffffffff80003b56:	048e                	slli	s1,s1,0x3
ffffffff80003b58:	80510537          	lui	a0,0x80510
ffffffff80003b5c:	02850513          	addi	a0,a0,40 # ffffffff80510028 <ProcessTable>
ffffffff80003b60:	9526                	add	a0,a0,s1
ffffffff80003b62:	6104                	ld	s1,0(a0)
ffffffff80003b64:	01848513          	addi	a0,s1,24
ffffffff80003b68:	800085b7          	lui	a1,0x80008
ffffffff80003b6c:	52658693          	addi	a3,a1,1318 # ffffffff80008526 <$d.1+0x17>
ffffffff80003b70:	03b00713          	li	a4,59
ffffffff80003b74:	85ce                	mv	a1,s3
ffffffff80003b76:	8652                	mv	a2,s4
ffffffff80003b78:	ffffe097          	auipc	ra,0xffffe
ffffffff80003b7c:	8ac080e7          	jalr	-1876(ra) # ffffffff80001424 <spinlock_lock_debug>
ffffffff80003b80:	854a                	mv	a0,s2
ffffffff80003b82:	ffffe097          	auipc	ra,0xffffe
ffffffff80003b86:	646080e7          	jalr	1606(ra) # ffffffff800021c8 <spinlock_unlock>
ffffffff80003b8a:	8526                	mv	a0,s1
ffffffff80003b8c:	70a2                	ld	ra,40(sp)
ffffffff80003b8e:	7402                	ld	s0,32(sp)
ffffffff80003b90:	64e2                	ld	s1,24(sp)
ffffffff80003b92:	6942                	ld	s2,16(sp)
ffffffff80003b94:	69a2                	ld	s3,8(sp)
ffffffff80003b96:	6a02                	ld	s4,0(sp)
ffffffff80003b98:	6145                	addi	sp,sp,48
ffffffff80003b9a:	8082                	ret

ffffffff80003b9c <thread_create>:
ffffffff80003b9c:	7175                	addi	sp,sp,-144
ffffffff80003b9e:	e506                	sd	ra,136(sp)
ffffffff80003ba0:	e122                	sd	s0,128(sp)
ffffffff80003ba2:	fca6                	sd	s1,120(sp)
ffffffff80003ba4:	f8ca                	sd	s2,112(sp)
ffffffff80003ba6:	f4ce                	sd	s3,104(sp)
ffffffff80003ba8:	f0d2                	sd	s4,96(sp)
ffffffff80003baa:	ecd6                	sd	s5,88(sp)
ffffffff80003bac:	e8da                	sd	s6,80(sp)
ffffffff80003bae:	e4de                	sd	s7,72(sp)
ffffffff80003bb0:	e0e2                	sd	s8,64(sp)
ffffffff80003bb2:	0900                	addi	s0,sp,144
ffffffff80003bb4:	8ab2                	mv	s5,a2
ffffffff80003bb6:	8b2e                	mv	s6,a1
ffffffff80003bb8:	8a2a                	mv	s4,a0
ffffffff80003bba:	00000097          	auipc	ra,0x0
ffffffff80003bbe:	f4c080e7          	jalr	-180(ra) # ffffffff80003b06 <process_get_process>
ffffffff80003bc2:	3e050e63          	beqz	a0,ffffffff80003fbe <thread_create+0x422>
ffffffff80003bc6:	892a                	mv	s2,a0
ffffffff80003bc8:	4b81                	li	s7,0
ffffffff80003bca:	4c01                	li	s8,0
ffffffff80003bcc:	4481                	li	s1,0
ffffffff80003bce:	01154503          	lbu	a0,17(a0)
ffffffff80003bd2:	01094583          	lbu	a1,16(s2)
ffffffff80003bd6:	01294603          	lbu	a2,18(s2)
ffffffff80003bda:	01394683          	lbu	a3,19(s2)
ffffffff80003bde:	0522                	slli	a0,a0,0x8
ffffffff80003be0:	8d4d                	or	a0,a0,a1
ffffffff80003be2:	0642                	slli	a2,a2,0x10
ffffffff80003be4:	06e2                	slli	a3,a3,0x18
ffffffff80003be6:	8e55                	or	a2,a2,a3
ffffffff80003be8:	8d51                	or	a0,a0,a2
ffffffff80003bea:	01594583          	lbu	a1,21(s2)
ffffffff80003bee:	01494603          	lbu	a2,20(s2)
ffffffff80003bf2:	01694683          	lbu	a3,22(s2)
ffffffff80003bf6:	01794703          	lbu	a4,23(s2)
ffffffff80003bfa:	05a2                	slli	a1,a1,0x8
ffffffff80003bfc:	8dd1                	or	a1,a1,a2
ffffffff80003bfe:	06c2                	slli	a3,a3,0x10
ffffffff80003c00:	0762                	slli	a4,a4,0x18
ffffffff80003c02:	8ed9                	or	a3,a3,a4
ffffffff80003c04:	8dd5                	or	a1,a1,a3
ffffffff80003c06:	1582                	slli	a1,a1,0x20
ffffffff80003c08:	8d4d                	or	a0,a0,a1
ffffffff80003c0a:	4589                	li	a1,2
ffffffff80003c0c:	6615                	lui	a2,0x5
ffffffff80003c0e:	10000693          	li	a3,256
ffffffff80003c12:	01750733          	add	a4,a0,s7
ffffffff80003c16:	6318                	ld	a4,0(a4)
ffffffff80003c18:	0705                	addi	a4,a4,1
ffffffff80003c1a:	02b76163          	bltu	a4,a1,ffffffff80003c3c <thread_create+0xa0>
ffffffff80003c1e:	0485                	addi	s1,s1,1
ffffffff80003c20:	9c32                	add	s8,s8,a2
ffffffff80003c22:	0ba1                	addi	s7,s7,8
ffffffff80003c24:	fed497e3          	bne	s1,a3,ffffffff80003c12 <thread_create+0x76>
ffffffff80003c28:	80008537          	lui	a0,0x80008
ffffffff80003c2c:	32e50513          	addi	a0,a0,814 # ffffffff8000832e <$d.1>
ffffffff80003c30:	00004097          	auipc	ra,0x4
ffffffff80003c34:	c16080e7          	jalr	-1002(ra) # ffffffff80007846 <printf>
ffffffff80003c38:	54fd                	li	s1,-1
ffffffff80003c3a:	ae9d                	j	ffffffff80003fb0 <thread_create+0x414>
ffffffff80003c3c:	17400513          	li	a0,372
ffffffff80003c40:	fffff097          	auipc	ra,0xfffff
ffffffff80003c44:	f3a080e7          	jalr	-198(ra) # ffffffff80002b7a <kmalloc>
ffffffff80003c48:	fa042423          	sw	zero,-88(s0)
ffffffff80003c4c:	800085b7          	lui	a1,0x80008
ffffffff80003c50:	50f58593          	addi	a1,a1,1295 # ffffffff8000850f <$d.1>
ffffffff80003c54:	f8b43c23          	sd	a1,-104(s0)
ffffffff80003c58:	f8b43823          	sd	a1,-112(s0)
ffffffff80003c5c:	f8042423          	sw	zero,-120(s0)
ffffffff80003c60:	55fd                	li	a1,-1
ffffffff80003c62:	f6b43c23          	sd	a1,-136(s0)
ffffffff80003c66:	fa842583          	lw	a1,-88(s0)
ffffffff80003c6a:	89aa                	mv	s3,a0
ffffffff80003c6c:	14b50623          	sb	a1,332(a0)
ffffffff80003c70:	0185d513          	srli	a0,a1,0x18
ffffffff80003c74:	14a987a3          	sb	a0,335(s3)
ffffffff80003c78:	0105d513          	srli	a0,a1,0x10
ffffffff80003c7c:	14a98723          	sb	a0,334(s3)
ffffffff80003c80:	81a1                	srli	a1,a1,0x8
ffffffff80003c82:	14b986a3          	sb	a1,333(s3)
ffffffff80003c86:	fa442503          	lw	a0,-92(s0)
ffffffff80003c8a:	14a98823          	sb	a0,336(s3)
ffffffff80003c8e:	01855593          	srli	a1,a0,0x18
ffffffff80003c92:	14b989a3          	sb	a1,339(s3)
ffffffff80003c96:	01055593          	srli	a1,a0,0x10
ffffffff80003c9a:	14b98923          	sb	a1,338(s3)
ffffffff80003c9e:	8121                	srli	a0,a0,0x8
ffffffff80003ca0:	14a988a3          	sb	a0,337(s3)
ffffffff80003ca4:	f9843503          	ld	a0,-104(s0)
ffffffff80003ca8:	14a98a23          	sb	a0,340(s3)
ffffffff80003cac:	03855593          	srli	a1,a0,0x38
ffffffff80003cb0:	14b98da3          	sb	a1,347(s3)
ffffffff80003cb4:	03055593          	srli	a1,a0,0x30
ffffffff80003cb8:	14b98d23          	sb	a1,346(s3)
ffffffff80003cbc:	02855593          	srli	a1,a0,0x28
ffffffff80003cc0:	14b98ca3          	sb	a1,345(s3)
ffffffff80003cc4:	02055593          	srli	a1,a0,0x20
ffffffff80003cc8:	14b98c23          	sb	a1,344(s3)
ffffffff80003ccc:	01855593          	srli	a1,a0,0x18
ffffffff80003cd0:	14b98ba3          	sb	a1,343(s3)
ffffffff80003cd4:	01055593          	srli	a1,a0,0x10
ffffffff80003cd8:	14b98b23          	sb	a1,342(s3)
ffffffff80003cdc:	8121                	srli	a0,a0,0x8
ffffffff80003cde:	14a98aa3          	sb	a0,341(s3)
ffffffff80003ce2:	f9043503          	ld	a0,-112(s0)
ffffffff80003ce6:	14a98e23          	sb	a0,348(s3)
ffffffff80003cea:	03855593          	srli	a1,a0,0x38
ffffffff80003cee:	16b981a3          	sb	a1,355(s3)
ffffffff80003cf2:	03055593          	srli	a1,a0,0x30
ffffffff80003cf6:	16b98123          	sb	a1,354(s3)
ffffffff80003cfa:	02855593          	srli	a1,a0,0x28
ffffffff80003cfe:	16b980a3          	sb	a1,353(s3)
ffffffff80003d02:	02055593          	srli	a1,a0,0x20
ffffffff80003d06:	16b98023          	sb	a1,352(s3)
ffffffff80003d0a:	01855593          	srli	a1,a0,0x18
ffffffff80003d0e:	14b98fa3          	sb	a1,351(s3)
ffffffff80003d12:	01055593          	srli	a1,a0,0x10
ffffffff80003d16:	14b98f23          	sb	a1,350(s3)
ffffffff80003d1a:	8121                	srli	a0,a0,0x8
ffffffff80003d1c:	14a98ea3          	sb	a0,349(s3)
ffffffff80003d20:	f8842503          	lw	a0,-120(s0)
ffffffff80003d24:	16a98223          	sb	a0,356(s3)
ffffffff80003d28:	01855593          	srli	a1,a0,0x18
ffffffff80003d2c:	16b983a3          	sb	a1,359(s3)
ffffffff80003d30:	01055593          	srli	a1,a0,0x10
ffffffff80003d34:	16b98323          	sb	a1,358(s3)
ffffffff80003d38:	8121                	srli	a0,a0,0x8
ffffffff80003d3a:	16a982a3          	sb	a0,357(s3)
ffffffff80003d3e:	f8442503          	lw	a0,-124(s0)
ffffffff80003d42:	16a98423          	sb	a0,360(s3)
ffffffff80003d46:	01855593          	srli	a1,a0,0x18
ffffffff80003d4a:	16b985a3          	sb	a1,363(s3)
ffffffff80003d4e:	01055593          	srli	a1,a0,0x10
ffffffff80003d52:	16b98523          	sb	a1,362(s3)
ffffffff80003d56:	8121                	srli	a0,a0,0x8
ffffffff80003d58:	16a984a3          	sb	a0,361(s3)
ffffffff80003d5c:	f7843503          	ld	a0,-136(s0)
ffffffff80003d60:	16a98623          	sb	a0,364(s3)
ffffffff80003d64:	03855593          	srli	a1,a0,0x38
ffffffff80003d68:	16b989a3          	sb	a1,371(s3)
ffffffff80003d6c:	03055593          	srli	a1,a0,0x30
ffffffff80003d70:	16b98923          	sb	a1,370(s3)
ffffffff80003d74:	02855593          	srli	a1,a0,0x28
ffffffff80003d78:	16b988a3          	sb	a1,369(s3)
ffffffff80003d7c:	02055593          	srli	a1,a0,0x20
ffffffff80003d80:	16b98823          	sb	a1,368(s3)
ffffffff80003d84:	01855593          	srli	a1,a0,0x18
ffffffff80003d88:	16b987a3          	sb	a1,367(s3)
ffffffff80003d8c:	01055593          	srli	a1,a0,0x10
ffffffff80003d90:	16b98723          	sb	a1,366(s3)
ffffffff80003d94:	8121                	srli	a0,a0,0x8
ffffffff80003d96:	16a986a3          	sb	a0,365(s3)
ffffffff80003d9a:	030a5513          	srli	a0,s4,0x30
ffffffff80003d9e:	12a98523          	sb	a0,298(s3)
ffffffff80003da2:	038a5513          	srli	a0,s4,0x38
ffffffff80003da6:	12a985a3          	sb	a0,299(s3)
ffffffff80003daa:	020a5513          	srli	a0,s4,0x20
ffffffff80003dae:	12a98423          	sb	a0,296(s3)
ffffffff80003db2:	028a5513          	srli	a0,s4,0x28
ffffffff80003db6:	12a984a3          	sb	a0,297(s3)
ffffffff80003dba:	010a5513          	srli	a0,s4,0x10
ffffffff80003dbe:	12a98323          	sb	a0,294(s3)
ffffffff80003dc2:	018a5513          	srli	a0,s4,0x18
ffffffff80003dc6:	12a983a3          	sb	a0,295(s3)
ffffffff80003dca:	13498223          	sb	s4,292(s3)
ffffffff80003dce:	008a5513          	srli	a0,s4,0x8
ffffffff80003dd2:	12a982a3          	sb	a0,293(s3)
ffffffff80003dd6:	0304d513          	srli	a0,s1,0x30
ffffffff80003dda:	12a98123          	sb	a0,290(s3)
ffffffff80003dde:	0384d513          	srli	a0,s1,0x38
ffffffff80003de2:	12a981a3          	sb	a0,291(s3)
ffffffff80003de6:	0204d513          	srli	a0,s1,0x20
ffffffff80003dea:	12a98023          	sb	a0,288(s3)
ffffffff80003dee:	0284d513          	srli	a0,s1,0x28
ffffffff80003df2:	12a980a3          	sb	a0,289(s3)
ffffffff80003df6:	0104d513          	srli	a0,s1,0x10
ffffffff80003dfa:	10a98f23          	sb	a0,286(s3)
ffffffff80003dfe:	0184d513          	srli	a0,s1,0x18
ffffffff80003e02:	10a98fa3          	sb	a0,287(s3)
ffffffff80003e06:	10998e23          	sb	s1,284(s3)
ffffffff80003e0a:	0084d513          	srli	a0,s1,0x8
ffffffff80003e0e:	10a98ea3          	sb	a0,285(s3)
ffffffff80003e12:	0ff00513          	li	a0,255
ffffffff80003e16:	12a989a3          	sb	a0,307(s3)
ffffffff80003e1a:	12a98923          	sb	a0,306(s3)
ffffffff80003e1e:	12a988a3          	sb	a0,305(s3)
ffffffff80003e22:	12a98823          	sb	a0,304(s3)
ffffffff80003e26:	12a987a3          	sb	a0,303(s3)
ffffffff80003e2a:	12a98723          	sb	a0,302(s3)
ffffffff80003e2e:	12a986a3          	sb	a0,301(s3)
ffffffff80003e32:	12a98623          	sb	a0,300(s3)
ffffffff80003e36:	854e                	mv	a0,s3
ffffffff80003e38:	85da                	mv	a1,s6
ffffffff80003e3a:	8656                	mv	a2,s5
ffffffff80003e3c:	ffffe097          	auipc	ra,0xffffe
ffffffff80003e40:	3d6080e7          	jalr	982(ra) # ffffffff80002212 <arch_thread_init_regs>
ffffffff80003e44:	6521                	lui	a0,0x8
ffffffff80003e46:	6aa1                	lui	s5,0x8
ffffffff80003e48:	fffff097          	auipc	ra,0xfffff
ffffffff80003e4c:	d32080e7          	jalr	-718(ra) # ffffffff80002b7a <kmalloc>
ffffffff80003e50:	9aaa                	add	s5,s5,a0
ffffffff80003e52:	13598a23          	sb	s5,308(s3)
ffffffff80003e56:	038ad513          	srli	a0,s5,0x38
ffffffff80003e5a:	12a98da3          	sb	a0,315(s3)
ffffffff80003e5e:	030ad513          	srli	a0,s5,0x30
ffffffff80003e62:	12a98d23          	sb	a0,314(s3)
ffffffff80003e66:	028ad513          	srli	a0,s5,0x28
ffffffff80003e6a:	12a98ca3          	sb	a0,313(s3)
ffffffff80003e6e:	020ad513          	srli	a0,s5,0x20
ffffffff80003e72:	12a98c23          	sb	a0,312(s3)
ffffffff80003e76:	018ad513          	srli	a0,s5,0x18
ffffffff80003e7a:	12a98ba3          	sb	a0,311(s3)
ffffffff80003e7e:	010ad513          	srli	a0,s5,0x10
ffffffff80003e82:	12a98b23          	sb	a0,310(s3)
ffffffff80003e86:	008ad513          	srli	a0,s5,0x8
ffffffff80003e8a:	12a98aa3          	sb	a0,309(s3)
ffffffff80003e8e:	fe0abc23          	sd	zero,-8(s5) # 7ff8 <$d.4+0x277>
ffffffff80003e92:	0a0a0f63          	beqz	s4,ffffffff80003f50 <thread_create+0x3b4>
ffffffff80003e96:	556d                	li	a0,-5
ffffffff80003e98:	0576                	slli	a0,a0,0x1d
ffffffff80003e9a:	8145                	srli	a0,a0,0x11
ffffffff80003e9c:	41850a33          	sub	s4,a0,s8
ffffffff80003ea0:	80000537          	lui	a0,0x80000
ffffffff80003ea4:	8145                	srli	a0,a0,0x11
ffffffff80003ea6:	41850ab3          	sub	s5,a0,s8
ffffffff80003eaa:	4511                	li	a0,4
ffffffff80003eac:	fffff097          	auipc	ra,0xfffff
ffffffff80003eb0:	54c080e7          	jalr	1356(ra) # ffffffff800033f8 <pmm_alloc>
ffffffff80003eb4:	862a                	mv	a2,a0
ffffffff80003eb6:	00994503          	lbu	a0,9(s2)
ffffffff80003eba:	00894583          	lbu	a1,8(s2)
ffffffff80003ebe:	00a94683          	lbu	a3,10(s2)
ffffffff80003ec2:	00b94703          	lbu	a4,11(s2)
ffffffff80003ec6:	0522                	slli	a0,a0,0x8
ffffffff80003ec8:	8d4d                	or	a0,a0,a1
ffffffff80003eca:	06c2                	slli	a3,a3,0x10
ffffffff80003ecc:	0762                	slli	a4,a4,0x18
ffffffff80003ece:	8ed9                	or	a3,a3,a4
ffffffff80003ed0:	8d55                	or	a0,a0,a3
ffffffff80003ed2:	00d94583          	lbu	a1,13(s2)
ffffffff80003ed6:	00c94683          	lbu	a3,12(s2)
ffffffff80003eda:	00e94703          	lbu	a4,14(s2)
ffffffff80003ede:	00f94783          	lbu	a5,15(s2)
ffffffff80003ee2:	05a2                	slli	a1,a1,0x8
ffffffff80003ee4:	8dd5                	or	a1,a1,a3
ffffffff80003ee6:	0742                	slli	a4,a4,0x10
ffffffff80003ee8:	07e2                	slli	a5,a5,0x18
ffffffff80003eea:	8f5d                	or	a4,a4,a5
ffffffff80003eec:	8dd9                	or	a1,a1,a4
ffffffff80003eee:	1582                	slli	a1,a1,0x20
ffffffff80003ef0:	8d4d                	or	a0,a0,a1
ffffffff80003ef2:	4691                	li	a3,4
ffffffff80003ef4:	4779                	li	a4,30
ffffffff80003ef6:	85d6                	mv	a1,s5
ffffffff80003ef8:	ffffe097          	auipc	ra,0xffffe
ffffffff80003efc:	5cc080e7          	jalr	1484(ra) # ffffffff800024c4 <vmm_map>
ffffffff80003f00:	00994503          	lbu	a0,9(s2)
ffffffff80003f04:	00894583          	lbu	a1,8(s2)
ffffffff80003f08:	00a94603          	lbu	a2,10(s2)
ffffffff80003f0c:	00b94683          	lbu	a3,11(s2)
ffffffff80003f10:	0522                	slli	a0,a0,0x8
ffffffff80003f12:	8d4d                	or	a0,a0,a1
ffffffff80003f14:	0642                	slli	a2,a2,0x10
ffffffff80003f16:	06e2                	slli	a3,a3,0x18
ffffffff80003f18:	8e55                	or	a2,a2,a3
ffffffff80003f1a:	8d51                	or	a0,a0,a2
ffffffff80003f1c:	00d94583          	lbu	a1,13(s2)
ffffffff80003f20:	00c94603          	lbu	a2,12(s2)
ffffffff80003f24:	00e94683          	lbu	a3,14(s2)
ffffffff80003f28:	00f94703          	lbu	a4,15(s2)
ffffffff80003f2c:	05a2                	slli	a1,a1,0x8
ffffffff80003f2e:	8dd1                	or	a1,a1,a2
ffffffff80003f30:	06c2                	slli	a3,a3,0x10
ffffffff80003f32:	0762                	slli	a4,a4,0x18
ffffffff80003f34:	8ed9                	or	a3,a3,a4
ffffffff80003f36:	8dd5                	or	a1,a1,a3
ffffffff80003f38:	1582                	slli	a1,a1,0x20
ffffffff80003f3a:	8d4d                	or	a0,a0,a1
ffffffff80003f3c:	4605                	li	a2,1
ffffffff80003f3e:	4a85                	li	s5,1
ffffffff80003f40:	85d2                	mv	a1,s4
ffffffff80003f42:	ffffe097          	auipc	ra,0xffffe
ffffffff80003f46:	7d2080e7          	jalr	2002(ra) # ffffffff80002714 <vmm_unmap>
ffffffff80003f4a:	1abe                	slli	s5,s5,0x2f
ffffffff80003f4c:	418a8ab3          	sub	s5,s5,s8
ffffffff80003f50:	80008537          	lui	a0,0x80008
ffffffff80003f54:	1a950513          	addi	a0,a0,425 # ffffffff800081a9 <$d.2+0x83>
ffffffff80003f58:	85d6                	mv	a1,s5
ffffffff80003f5a:	00004097          	auipc	ra,0x4
ffffffff80003f5e:	8ec080e7          	jalr	-1812(ra) # ffffffff80007846 <printf>
ffffffff80003f62:	854e                	mv	a0,s3
ffffffff80003f64:	85d6                	mv	a1,s5
ffffffff80003f66:	ffffe097          	auipc	ra,0xffffe
ffffffff80003f6a:	442080e7          	jalr	1090(ra) # ffffffff800023a8 <arch_thread_set_stack>
ffffffff80003f6e:	01194503          	lbu	a0,17(s2)
ffffffff80003f72:	01094583          	lbu	a1,16(s2)
ffffffff80003f76:	01294603          	lbu	a2,18(s2)
ffffffff80003f7a:	01394683          	lbu	a3,19(s2)
ffffffff80003f7e:	0522                	slli	a0,a0,0x8
ffffffff80003f80:	8d4d                	or	a0,a0,a1
ffffffff80003f82:	0642                	slli	a2,a2,0x10
ffffffff80003f84:	06e2                	slli	a3,a3,0x18
ffffffff80003f86:	8e55                	or	a2,a2,a3
ffffffff80003f88:	8d51                	or	a0,a0,a2
ffffffff80003f8a:	01594583          	lbu	a1,21(s2)
ffffffff80003f8e:	01494603          	lbu	a2,20(s2)
ffffffff80003f92:	01694683          	lbu	a3,22(s2)
ffffffff80003f96:	01794703          	lbu	a4,23(s2)
ffffffff80003f9a:	05a2                	slli	a1,a1,0x8
ffffffff80003f9c:	8dd1                	or	a1,a1,a2
ffffffff80003f9e:	06c2                	slli	a3,a3,0x10
ffffffff80003fa0:	0762                	slli	a4,a4,0x18
ffffffff80003fa2:	8ed9                	or	a3,a3,a4
ffffffff80003fa4:	8dd5                	or	a1,a1,a3
ffffffff80003fa6:	1582                	slli	a1,a1,0x20
ffffffff80003fa8:	8d4d                	or	a0,a0,a1
ffffffff80003faa:	955e                	add	a0,a0,s7
ffffffff80003fac:	01353023          	sd	s3,0(a0)
ffffffff80003fb0:	01890513          	addi	a0,s2,24
ffffffff80003fb4:	ffffe097          	auipc	ra,0xffffe
ffffffff80003fb8:	214080e7          	jalr	532(ra) # ffffffff800021c8 <spinlock_unlock>
ffffffff80003fbc:	a011                	j	ffffffff80003fc0 <thread_create+0x424>
ffffffff80003fbe:	54fd                	li	s1,-1
ffffffff80003fc0:	8526                	mv	a0,s1
ffffffff80003fc2:	60aa                	ld	ra,136(sp)
ffffffff80003fc4:	640a                	ld	s0,128(sp)
ffffffff80003fc6:	74e6                	ld	s1,120(sp)
ffffffff80003fc8:	7946                	ld	s2,112(sp)
ffffffff80003fca:	79a6                	ld	s3,104(sp)
ffffffff80003fcc:	7a06                	ld	s4,96(sp)
ffffffff80003fce:	6ae6                	ld	s5,88(sp)
ffffffff80003fd0:	6b46                	ld	s6,80(sp)
ffffffff80003fd2:	6ba6                	ld	s7,72(sp)
ffffffff80003fd4:	6c06                	ld	s8,64(sp)
ffffffff80003fd6:	6149                	addi	sp,sp,144
ffffffff80003fd8:	8082                	ret

ffffffff80003fda <scheduler_init>:
ffffffff80003fda:	7179                	addi	sp,sp,-48
ffffffff80003fdc:	f406                	sd	ra,40(sp)
ffffffff80003fde:	f022                	sd	s0,32(sp)
ffffffff80003fe0:	ec26                	sd	s1,24(sp)
ffffffff80003fe2:	1800                	addi	s0,sp,48
ffffffff80003fe4:	84aa                	mv	s1,a0
ffffffff80003fe6:	fffff097          	auipc	ra,0xfffff
ffffffff80003fea:	654080e7          	jalr	1620(ra) # ffffffff8000363a <process_init_process_table>
ffffffff80003fee:	80511537          	lui	a0,0x80511
ffffffff80003ff2:	82850513          	addi	a0,a0,-2008 # ffffffff80510828 <ActiveTasks>
ffffffff80003ff6:	6585                	lui	a1,0x1
ffffffff80003ff8:	95aa                	add	a1,a1,a0
ffffffff80003ffa:	00053023          	sd	zero,0(a0)
ffffffff80003ffe:	0521                	addi	a0,a0,8
ffffffff80004000:	feb51de3          	bne	a0,a1,ffffffff80003ffa <scheduler_init+0x20>
ffffffff80004004:	8000a537          	lui	a0,0x8000a
ffffffff80004008:	06853503          	ld	a0,104(a0) # ffffffff8000a068 <KernelPageMap>
ffffffff8000400c:	fffff097          	auipc	ra,0xfffff
ffffffff80004010:	68e080e7          	jalr	1678(ra) # ffffffff8000369a <process_create>
ffffffff80004014:	fc943c23          	sd	s1,-40(s0)
ffffffff80004018:	fe043023          	sd	zero,-32(s0)
ffffffff8000401c:	fd840613          	addi	a2,s0,-40
ffffffff80004020:	4501                	li	a0,0
ffffffff80004022:	4581                	li	a1,0
ffffffff80004024:	00000097          	auipc	ra,0x0
ffffffff80004028:	b78080e7          	jalr	-1160(ra) # ffffffff80003b9c <thread_create>
ffffffff8000402c:	85aa                	mv	a1,a0
ffffffff8000402e:	4501                	li	a0,0
ffffffff80004030:	00000097          	auipc	ra,0x0
ffffffff80004034:	01c080e7          	jalr	28(ra) # ffffffff8000404c <scheduler_add_task>
ffffffff80004038:	8000a537          	lui	a0,0x8000a
ffffffff8000403c:	4585                	li	a1,1
ffffffff8000403e:	08b50423          	sb	a1,136(a0) # ffffffff8000a088 <SchedulerRunning>
ffffffff80004042:	70a2                	ld	ra,40(sp)
ffffffff80004044:	7402                	ld	s0,32(sp)
ffffffff80004046:	64e2                	ld	s1,24(sp)
ffffffff80004048:	6145                	addi	sp,sp,48
ffffffff8000404a:	8082                	ret

ffffffff8000404c <scheduler_add_task>:
ffffffff8000404c:	7179                	addi	sp,sp,-48
ffffffff8000404e:	f406                	sd	ra,40(sp)
ffffffff80004050:	f022                	sd	s0,32(sp)
ffffffff80004052:	ec26                	sd	s1,24(sp)
ffffffff80004054:	e84a                	sd	s2,16(sp)
ffffffff80004056:	e44e                	sd	s3,8(sp)
ffffffff80004058:	1800                	addi	s0,sp,48
ffffffff8000405a:	84ae                	mv	s1,a1
ffffffff8000405c:	00000097          	auipc	ra,0x0
ffffffff80004060:	aaa080e7          	jalr	-1366(ra) # ffffffff80003b06 <process_get_process>
ffffffff80004064:	c57d                	beqz	a0,ffffffff80004152 <scheduler_add_task+0x106>
ffffffff80004066:	01154583          	lbu	a1,17(a0)
ffffffff8000406a:	01054603          	lbu	a2,16(a0)
ffffffff8000406e:	01254683          	lbu	a3,18(a0)
ffffffff80004072:	01354703          	lbu	a4,19(a0)
ffffffff80004076:	05a2                	slli	a1,a1,0x8
ffffffff80004078:	8dd1                	or	a1,a1,a2
ffffffff8000407a:	06c2                	slli	a3,a3,0x10
ffffffff8000407c:	0762                	slli	a4,a4,0x18
ffffffff8000407e:	8ed9                	or	a3,a3,a4
ffffffff80004080:	8dd5                	or	a1,a1,a3
ffffffff80004082:	01554603          	lbu	a2,21(a0)
ffffffff80004086:	01454683          	lbu	a3,20(a0)
ffffffff8000408a:	01654703          	lbu	a4,22(a0)
ffffffff8000408e:	01754783          	lbu	a5,23(a0)
ffffffff80004092:	0622                	slli	a2,a2,0x8
ffffffff80004094:	8e55                	or	a2,a2,a3
ffffffff80004096:	0742                	slli	a4,a4,0x10
ffffffff80004098:	07e2                	slli	a5,a5,0x18
ffffffff8000409a:	8f5d                	or	a4,a4,a5
ffffffff8000409c:	8e59                	or	a2,a2,a4
ffffffff8000409e:	1602                	slli	a2,a2,0x20
ffffffff800040a0:	8dd1                	or	a1,a1,a2
ffffffff800040a2:	048e                	slli	s1,s1,0x3
ffffffff800040a4:	95a6                	add	a1,a1,s1
ffffffff800040a6:	0005b903          	ld	s2,0(a1) # 1000 <$d.3+0x5e>
ffffffff800040aa:	0a090663          	beqz	s2,ffffffff80004156 <scheduler_add_task+0x10a>
ffffffff800040ae:	12c94583          	lbu	a1,300(s2)
ffffffff800040b2:	12d94603          	lbu	a2,301(s2)
ffffffff800040b6:	12e94683          	lbu	a3,302(s2)
ffffffff800040ba:	12f94703          	lbu	a4,303(s2)
ffffffff800040be:	0622                	slli	a2,a2,0x8
ffffffff800040c0:	8dd1                	or	a1,a1,a2
ffffffff800040c2:	06c2                	slli	a3,a3,0x10
ffffffff800040c4:	0762                	slli	a4,a4,0x18
ffffffff800040c6:	8ed9                	or	a3,a3,a4
ffffffff800040c8:	13094603          	lbu	a2,304(s2)
ffffffff800040cc:	13194703          	lbu	a4,305(s2)
ffffffff800040d0:	8dd5                	or	a1,a1,a3
ffffffff800040d2:	13294683          	lbu	a3,306(s2)
ffffffff800040d6:	13394783          	lbu	a5,307(s2)
ffffffff800040da:	0722                	slli	a4,a4,0x8
ffffffff800040dc:	8e59                	or	a2,a2,a4
ffffffff800040de:	06c2                	slli	a3,a3,0x10
ffffffff800040e0:	07e2                	slli	a5,a5,0x18
ffffffff800040e2:	8edd                	or	a3,a3,a5
ffffffff800040e4:	8e55                	or	a2,a2,a3
ffffffff800040e6:	1602                	slli	a2,a2,0x20
ffffffff800040e8:	8dd1                	or	a1,a1,a2
ffffffff800040ea:	54fd                	li	s1,-1
ffffffff800040ec:	0c959763          	bne	a1,s1,ffffffff800041ba <scheduler_add_task+0x16e>
ffffffff800040f0:	89aa                	mv	s3,a0
ffffffff800040f2:	80009537          	lui	a0,0x80009
ffffffff800040f6:	02850513          	addi	a0,a0,40 # ffffffff80009028 <EntrySchedulerLock>
ffffffff800040fa:	800085b7          	lui	a1,0x80008
ffffffff800040fe:	65d58593          	addi	a1,a1,1629 # ffffffff8000865d <$d.1+0x14e>
ffffffff80004102:	80008637          	lui	a2,0x80008
ffffffff80004106:	4de60613          	addi	a2,a2,1246 # ffffffff800084de <$d.2+0xb3>
ffffffff8000410a:	800086b7          	lui	a3,0x80008
ffffffff8000410e:	0b268693          	addi	a3,a3,178 # ffffffff800080b2 <$d.3+0x6e>
ffffffff80004112:	02b00713          	li	a4,43
ffffffff80004116:	ffffd097          	auipc	ra,0xffffd
ffffffff8000411a:	30e080e7          	jalr	782(ra) # ffffffff80001424 <spinlock_lock_debug>
ffffffff8000411e:	4481                	li	s1,0
ffffffff80004120:	80511537          	lui	a0,0x80511
ffffffff80004124:	82850513          	addi	a0,a0,-2008 # ffffffff80510828 <ActiveTasks>
ffffffff80004128:	4585                	li	a1,1
ffffffff8000412a:	20000613          	li	a2,512
ffffffff8000412e:	6114                	ld	a3,0(a0)
ffffffff80004130:	0685                	addi	a3,a3,1
ffffffff80004132:	02d5f463          	bgeu	a1,a3,ffffffff8000415a <scheduler_add_task+0x10e>
ffffffff80004136:	0485                	addi	s1,s1,1
ffffffff80004138:	0521                	addi	a0,a0,8
ffffffff8000413a:	fec49ae3          	bne	s1,a2,ffffffff8000412e <scheduler_add_task+0xe2>
ffffffff8000413e:	80008537          	lui	a0,0x80008
ffffffff80004142:	56e50513          	addi	a0,a0,1390 # ffffffff8000856e <$d.1+0x5f>
ffffffff80004146:	00003097          	auipc	ra,0x3
ffffffff8000414a:	700080e7          	jalr	1792(ra) # ffffffff80007846 <printf>
ffffffff8000414e:	54fd                	li	s1,-1
ffffffff80004150:	a8a1                	j	ffffffff800041a8 <scheduler_add_task+0x15c>
ffffffff80004152:	54fd                	li	s1,-1
ffffffff80004154:	a885                	j	ffffffff800041c4 <scheduler_add_task+0x178>
ffffffff80004156:	54fd                	li	s1,-1
ffffffff80004158:	a08d                	j	ffffffff800041ba <scheduler_add_task+0x16e>
ffffffff8000415a:	12990623          	sb	s1,300(s2)
ffffffff8000415e:	0384d593          	srli	a1,s1,0x38
ffffffff80004162:	12b909a3          	sb	a1,307(s2)
ffffffff80004166:	0304d593          	srli	a1,s1,0x30
ffffffff8000416a:	12b90923          	sb	a1,306(s2)
ffffffff8000416e:	0284d593          	srli	a1,s1,0x28
ffffffff80004172:	12b908a3          	sb	a1,305(s2)
ffffffff80004176:	0204d593          	srli	a1,s1,0x20
ffffffff8000417a:	12b90823          	sb	a1,304(s2)
ffffffff8000417e:	0184d593          	srli	a1,s1,0x18
ffffffff80004182:	12b907a3          	sb	a1,303(s2)
ffffffff80004186:	0104d593          	srli	a1,s1,0x10
ffffffff8000418a:	12b90723          	sb	a1,302(s2)
ffffffff8000418e:	0084d593          	srli	a1,s1,0x8
ffffffff80004192:	12b906a3          	sb	a1,301(s2)
ffffffff80004196:	8000a5b7          	lui	a1,0x8000a
ffffffff8000419a:	0905b603          	ld	a2,144(a1) # ffffffff8000a090 <TotalActiveTasks>
ffffffff8000419e:	01253023          	sd	s2,0(a0)
ffffffff800041a2:	0605                	addi	a2,a2,1
ffffffff800041a4:	08c5b823          	sd	a2,144(a1)
ffffffff800041a8:	80009537          	lui	a0,0x80009
ffffffff800041ac:	02850513          	addi	a0,a0,40 # ffffffff80009028 <EntrySchedulerLock>
ffffffff800041b0:	ffffe097          	auipc	ra,0xffffe
ffffffff800041b4:	018080e7          	jalr	24(ra) # ffffffff800021c8 <spinlock_unlock>
ffffffff800041b8:	854e                	mv	a0,s3
ffffffff800041ba:	0561                	addi	a0,a0,24
ffffffff800041bc:	ffffe097          	auipc	ra,0xffffe
ffffffff800041c0:	00c080e7          	jalr	12(ra) # ffffffff800021c8 <spinlock_unlock>
ffffffff800041c4:	8526                	mv	a0,s1
ffffffff800041c6:	70a2                	ld	ra,40(sp)
ffffffff800041c8:	7402                	ld	s0,32(sp)
ffffffff800041ca:	64e2                	ld	s1,24(sp)
ffffffff800041cc:	6942                	ld	s2,16(sp)
ffffffff800041ce:	69a2                	ld	s3,8(sp)
ffffffff800041d0:	6145                	addi	sp,sp,48
ffffffff800041d2:	8082                	ret

ffffffff800041d4 <scheduler_schedule>:
ffffffff800041d4:	7159                	addi	sp,sp,-112
ffffffff800041d6:	f486                	sd	ra,104(sp)
ffffffff800041d8:	f0a2                	sd	s0,96(sp)
ffffffff800041da:	eca6                	sd	s1,88(sp)
ffffffff800041dc:	e8ca                	sd	s2,80(sp)
ffffffff800041de:	e4ce                	sd	s3,72(sp)
ffffffff800041e0:	e0d2                	sd	s4,64(sp)
ffffffff800041e2:	fc56                	sd	s5,56(sp)
ffffffff800041e4:	f85a                	sd	s6,48(sp)
ffffffff800041e6:	f45e                	sd	s7,40(sp)
ffffffff800041e8:	f062                	sd	s8,32(sp)
ffffffff800041ea:	ec66                	sd	s9,24(sp)
ffffffff800041ec:	1880                	addi	s0,sp,112
ffffffff800041ee:	89aa                	mv	s3,a0
ffffffff800041f0:	ffffd097          	auipc	ra,0xffffd
ffffffff800041f4:	976080e7          	jalr	-1674(ra) # ffffffff80000b66 <arch_disable_interrupts>
ffffffff800041f8:	8000a537          	lui	a0,0x8000a
ffffffff800041fc:	08854503          	lbu	a0,136(a0) # ffffffff8000a088 <SchedulerRunning>
ffffffff80004200:	c511                	beqz	a0,ffffffff8000420c <scheduler_schedule+0x38>
ffffffff80004202:	ffffc097          	auipc	ra,0xffffc
ffffffff80004206:	514080e7          	jalr	1300(ra) # ffffffff80000716 <arch_cpu_get_preempt_counter>
ffffffff8000420a:	c10d                	beqz	a0,ffffffff8000422c <scheduler_schedule+0x58>
ffffffff8000420c:	70a6                	ld	ra,104(sp)
ffffffff8000420e:	7406                	ld	s0,96(sp)
ffffffff80004210:	64e6                	ld	s1,88(sp)
ffffffff80004212:	6946                	ld	s2,80(sp)
ffffffff80004214:	69a6                	ld	s3,72(sp)
ffffffff80004216:	6a06                	ld	s4,64(sp)
ffffffff80004218:	7ae2                	ld	s5,56(sp)
ffffffff8000421a:	7b42                	ld	s6,48(sp)
ffffffff8000421c:	7ba2                	ld	s7,40(sp)
ffffffff8000421e:	7c02                	ld	s8,32(sp)
ffffffff80004220:	6ce2                	ld	s9,24(sp)
ffffffff80004222:	6165                	addi	sp,sp,112
ffffffff80004224:	ffffd317          	auipc	t1,0xffffd
ffffffff80004228:	92630067          	jr	-1754(t1) # ffffffff80000b4a <arch_enable_interrupts>
ffffffff8000422c:	80009537          	lui	a0,0x80009
ffffffff80004230:	02850913          	addi	s2,a0,40 # ffffffff80009028 <EntrySchedulerLock>
ffffffff80004234:	80008537          	lui	a0,0x80008
ffffffff80004238:	65d50a13          	addi	s4,a0,1629 # ffffffff8000865d <$d.1+0x14e>
ffffffff8000423c:	80008537          	lui	a0,0x80008
ffffffff80004240:	69650493          	addi	s1,a0,1686 # ffffffff80008696 <$d.1+0x187>
ffffffff80004244:	80008537          	lui	a0,0x80008
ffffffff80004248:	0b250693          	addi	a3,a0,178 # ffffffff800080b2 <$d.3+0x6e>
ffffffff8000424c:	05e00713          	li	a4,94
ffffffff80004250:	854a                	mv	a0,s2
ffffffff80004252:	85d2                	mv	a1,s4
ffffffff80004254:	8626                	mv	a2,s1
ffffffff80004256:	ffffd097          	auipc	ra,0xffffd
ffffffff8000425a:	1ce080e7          	jalr	462(ra) # ffffffff80001424 <spinlock_lock_debug>
ffffffff8000425e:	ffffc097          	auipc	ra,0xffffc
ffffffff80004262:	41e080e7          	jalr	1054(ra) # ffffffff8000067c <arch_cpu_decrement_preempt_counter>
ffffffff80004266:	80009537          	lui	a0,0x80009
ffffffff8000426a:	05050513          	addi	a0,a0,80 # ffffffff80009050 <SchedulerLock>
ffffffff8000426e:	06000693          	li	a3,96
ffffffff80004272:	85d2                	mv	a1,s4
ffffffff80004274:	8626                	mv	a2,s1
ffffffff80004276:	ffffd097          	auipc	ra,0xffffd
ffffffff8000427a:	13e080e7          	jalr	318(ra) # ffffffff800013b4 <spinlock_try_lock_debug>
ffffffff8000427e:	c515                	beqz	a0,ffffffff800042aa <scheduler_schedule+0xd6>
ffffffff80004280:	ffffc097          	auipc	ra,0xffffc
ffffffff80004284:	362080e7          	jalr	866(ra) # ffffffff800005e2 <arch_cpu_increment_preempt_counter>
ffffffff80004288:	854a                	mv	a0,s2
ffffffff8000428a:	70a6                	ld	ra,104(sp)
ffffffff8000428c:	7406                	ld	s0,96(sp)
ffffffff8000428e:	64e6                	ld	s1,88(sp)
ffffffff80004290:	6946                	ld	s2,80(sp)
ffffffff80004292:	69a6                	ld	s3,72(sp)
ffffffff80004294:	6a06                	ld	s4,64(sp)
ffffffff80004296:	7ae2                	ld	s5,56(sp)
ffffffff80004298:	7b42                	ld	s6,48(sp)
ffffffff8000429a:	7ba2                	ld	s7,40(sp)
ffffffff8000429c:	7c02                	ld	s8,32(sp)
ffffffff8000429e:	6ce2                	ld	s9,24(sp)
ffffffff800042a0:	6165                	addi	sp,sp,112
ffffffff800042a2:	ffffe317          	auipc	t1,0xffffe
ffffffff800042a6:	f2630067          	jr	-218(t1) # ffffffff800021c8 <spinlock_unlock>
ffffffff800042aa:	ffffc097          	auipc	ra,0xffffc
ffffffff800042ae:	3d2080e7          	jalr	978(ra) # ffffffff8000067c <arch_cpu_decrement_preempt_counter>
ffffffff800042b2:	ffffc097          	auipc	ra,0xffffc
ffffffff800042b6:	4c2080e7          	jalr	1218(ra) # ffffffff80000774 <arch_cpu_get_current_pid>
ffffffff800042ba:	faa43023          	sd	a0,-96(s0)
ffffffff800042be:	ffffc097          	auipc	ra,0xffffc
ffffffff800042c2:	518080e7          	jalr	1304(ra) # ffffffff800007d6 <arch_cpu_get_current_tid>
ffffffff800042c6:	f8a43c23          	sd	a0,-104(s0)
ffffffff800042ca:	ffffc097          	auipc	ra,0xffffc
ffffffff800042ce:	56e080e7          	jalr	1390(ra) # ffffffff80000838 <arch_cpu_get_current_taskid>
ffffffff800042d2:	f8a43823          	sd	a0,-112(s0)
ffffffff800042d6:	f9043503          	ld	a0,-112(s0)
ffffffff800042da:	55fd                	li	a1,-1
ffffffff800042dc:	0ab50963          	beq	a0,a1,ffffffff8000438e <scheduler_schedule+0x1ba>
ffffffff800042e0:	f9043503          	ld	a0,-112(s0)
ffffffff800042e4:	050e                	slli	a0,a0,0x3
ffffffff800042e6:	805115b7          	lui	a1,0x80511
ffffffff800042ea:	82858593          	addi	a1,a1,-2008 # ffffffff80510828 <ActiveTasks>
ffffffff800042ee:	952e                	add	a0,a0,a1
ffffffff800042f0:	00053903          	ld	s2,0(a0)
ffffffff800042f4:	00190513          	addi	a0,s2,1
ffffffff800042f8:	4589                	li	a1,2
ffffffff800042fa:	08b56a63          	bltu	a0,a1,ffffffff8000438e <scheduler_schedule+0x1ba>
ffffffff800042fe:	11800613          	li	a2,280
ffffffff80004302:	854a                	mv	a0,s2
ffffffff80004304:	85ce                	mv	a1,s3
ffffffff80004306:	00002097          	auipc	ra,0x2
ffffffff8000430a:	58a080e7          	jalr	1418(ra) # ffffffff80006890 <memcpy>
ffffffff8000430e:	0ff00513          	li	a0,255
ffffffff80004312:	14a905a3          	sb	a0,331(s2)
ffffffff80004316:	14a90523          	sb	a0,330(s2)
ffffffff8000431a:	14a904a3          	sb	a0,329(s2)
ffffffff8000431e:	14a90423          	sb	a0,328(s2)
ffffffff80004322:	14a903a3          	sb	a0,327(s2)
ffffffff80004326:	14a90323          	sb	a0,326(s2)
ffffffff8000432a:	14a902a3          	sb	a0,325(s2)
ffffffff8000432e:	14a90223          	sb	a0,324(s2)
ffffffff80004332:	fa043503          	ld	a0,-96(s0)
ffffffff80004336:	c131                	beqz	a0,ffffffff8000437a <scheduler_schedule+0x1a6>
ffffffff80004338:	ffffc097          	auipc	ra,0xffffc
ffffffff8000433c:	562080e7          	jalr	1378(ra) # ffffffff8000089a <arch_cpu_get_thread_user_stack>
ffffffff80004340:	12a90e23          	sb	a0,316(s2)
ffffffff80004344:	03855593          	srli	a1,a0,0x38
ffffffff80004348:	14b901a3          	sb	a1,323(s2)
ffffffff8000434c:	03055593          	srli	a1,a0,0x30
ffffffff80004350:	14b90123          	sb	a1,322(s2)
ffffffff80004354:	02855593          	srli	a1,a0,0x28
ffffffff80004358:	14b900a3          	sb	a1,321(s2)
ffffffff8000435c:	02055593          	srli	a1,a0,0x20
ffffffff80004360:	14b90023          	sb	a1,320(s2)
ffffffff80004364:	01855593          	srli	a1,a0,0x18
ffffffff80004368:	12b90fa3          	sb	a1,319(s2)
ffffffff8000436c:	01055593          	srli	a1,a0,0x10
ffffffff80004370:	12b90f23          	sb	a1,318(s2)
ffffffff80004374:	8121                	srli	a0,a0,0x8
ffffffff80004376:	12a90ea3          	sb	a0,317(s2)
ffffffff8000437a:	ffffc097          	auipc	ra,0xffffc
ffffffff8000437e:	268080e7          	jalr	616(ra) # ffffffff800005e2 <arch_cpu_increment_preempt_counter>
ffffffff80004382:	14c90513          	addi	a0,s2,332
ffffffff80004386:	ffffe097          	auipc	ra,0xffffe
ffffffff8000438a:	e42080e7          	jalr	-446(ra) # ffffffff800021c8 <spinlock_unlock>
ffffffff8000438e:	f9043483          	ld	s1,-112(s0)
ffffffff80004392:	8000aa37          	lui	s4,0x8000a
ffffffff80004396:	090a3503          	ld	a0,144(s4) # ffffffff8000a090 <TotalActiveTasks>
ffffffff8000439a:	c93d                	beqz	a0,ffffffff80004410 <scheduler_schedule+0x23c>
ffffffff8000439c:	4a81                	li	s5,0
ffffffff8000439e:	0485                	addi	s1,s1,1
ffffffff800043a0:	80511b37          	lui	s6,0x80511
ffffffff800043a4:	828b0b93          	addi	s7,s6,-2008 # ffffffff80510828 <ActiveTasks>
ffffffff800043a8:	5c7d                	li	s8,-1
ffffffff800043aa:	800085b7          	lui	a1,0x80008
ffffffff800043ae:	65d58913          	addi	s2,a1,1629 # ffffffff8000865d <$d.1+0x14e>
ffffffff800043b2:	800085b7          	lui	a1,0x80008
ffffffff800043b6:	22758993          	addi	s3,a1,551 # ffffffff80008227 <$d.2+0x101>
ffffffff800043ba:	a811                	j	ffffffff800043ce <scheduler_schedule+0x1fa>
ffffffff800043bc:	0485                	addi	s1,s1,1
ffffffff800043be:	e0048593          	addi	a1,s1,-512
ffffffff800043c2:	0015b593          	seqz	a1,a1
ffffffff800043c6:	15fd                	addi	a1,a1,-1
ffffffff800043c8:	8ced                	and	s1,s1,a1
ffffffff800043ca:	04aaf363          	bgeu	s5,a0,ffffffff80004410 <scheduler_schedule+0x23c>
ffffffff800043ce:	00349593          	slli	a1,s1,0x3
ffffffff800043d2:	95de                	add	a1,a1,s7
ffffffff800043d4:	0005bc83          	ld	s9,0(a1)
ffffffff800043d8:	000c8563          	beqz	s9,ffffffff800043e2 <scheduler_schedule+0x20e>
ffffffff800043dc:	018c9a63          	bne	s9,s8,ffffffff800043f0 <scheduler_schedule+0x21c>
ffffffff800043e0:	bff1                	j	ffffffff800043bc <scheduler_schedule+0x1e8>
ffffffff800043e2:	828b3c83          	ld	s9,-2008(s6)
ffffffff800043e6:	020c8563          	beqz	s9,ffffffff80004410 <scheduler_schedule+0x23c>
ffffffff800043ea:	4481                	li	s1,0
ffffffff800043ec:	fd8c88e3          	beq	s9,s8,ffffffff800043bc <scheduler_schedule+0x1e8>
ffffffff800043f0:	14cc8513          	addi	a0,s9,332
ffffffff800043f4:	04a00693          	li	a3,74
ffffffff800043f8:	85ca                	mv	a1,s2
ffffffff800043fa:	864e                	mv	a2,s3
ffffffff800043fc:	ffffd097          	auipc	ra,0xffffd
ffffffff80004400:	fb8080e7          	jalr	-72(ra) # ffffffff800013b4 <spinlock_try_lock_debug>
ffffffff80004404:	42050463          	beqz	a0,ffffffff8000482c <scheduler_schedule+0x658>
ffffffff80004408:	090a3503          	ld	a0,144(s4)
ffffffff8000440c:	0a85                	addi	s5,s5,1
ffffffff8000440e:	b77d                	j	ffffffff800043bc <scheduler_schedule+0x1e8>
ffffffff80004410:	ffffd097          	auipc	ra,0xffffd
ffffffff80004414:	dbe080e7          	jalr	-578(ra) # ffffffff800011ce <arch_scheduler_idle>
ffffffff80004418:	4c81                	li	s9,0
ffffffff8000441a:	124cc503          	lbu	a0,292(s9)
ffffffff8000441e:	125cc583          	lbu	a1,293(s9)
ffffffff80004422:	126cc603          	lbu	a2,294(s9)
ffffffff80004426:	127cc683          	lbu	a3,295(s9)
ffffffff8000442a:	05a2                	slli	a1,a1,0x8
ffffffff8000442c:	8d4d                	or	a0,a0,a1
ffffffff8000442e:	0642                	slli	a2,a2,0x10
ffffffff80004430:	06e2                	slli	a3,a3,0x18
ffffffff80004432:	8e55                	or	a2,a2,a3
ffffffff80004434:	128cc583          	lbu	a1,296(s9)
ffffffff80004438:	129cc683          	lbu	a3,297(s9)
ffffffff8000443c:	8d51                	or	a0,a0,a2
ffffffff8000443e:	12acc603          	lbu	a2,298(s9)
ffffffff80004442:	12bcc703          	lbu	a4,299(s9)
ffffffff80004446:	06a2                	slli	a3,a3,0x8
ffffffff80004448:	8dd5                	or	a1,a1,a3
ffffffff8000444a:	0642                	slli	a2,a2,0x10
ffffffff8000444c:	0762                	slli	a4,a4,0x18
ffffffff8000444e:	8e59                	or	a2,a2,a4
ffffffff80004450:	8dd1                	or	a1,a1,a2
ffffffff80004452:	1582                	slli	a1,a1,0x20
ffffffff80004454:	8d4d                	or	a0,a0,a1
ffffffff80004456:	ffffc097          	auipc	ra,0xffffc
ffffffff8000445a:	500080e7          	jalr	1280(ra) # ffffffff80000956 <arch_cpu_set_current_pid>
ffffffff8000445e:	11ccc503          	lbu	a0,284(s9)
ffffffff80004462:	11dcc583          	lbu	a1,285(s9)
ffffffff80004466:	11ecc603          	lbu	a2,286(s9)
ffffffff8000446a:	11fcc683          	lbu	a3,287(s9)
ffffffff8000446e:	05a2                	slli	a1,a1,0x8
ffffffff80004470:	8d4d                	or	a0,a0,a1
ffffffff80004472:	0642                	slli	a2,a2,0x10
ffffffff80004474:	06e2                	slli	a3,a3,0x18
ffffffff80004476:	8e55                	or	a2,a2,a3
ffffffff80004478:	120cc583          	lbu	a1,288(s9)
ffffffff8000447c:	121cc683          	lbu	a3,289(s9)
ffffffff80004480:	8d51                	or	a0,a0,a2
ffffffff80004482:	122cc603          	lbu	a2,290(s9)
ffffffff80004486:	123cc703          	lbu	a4,291(s9)
ffffffff8000448a:	06a2                	slli	a3,a3,0x8
ffffffff8000448c:	8dd5                	or	a1,a1,a3
ffffffff8000448e:	0642                	slli	a2,a2,0x10
ffffffff80004490:	0762                	slli	a4,a4,0x18
ffffffff80004492:	8e59                	or	a2,a2,a4
ffffffff80004494:	8dd1                	or	a1,a1,a2
ffffffff80004496:	1582                	slli	a1,a1,0x20
ffffffff80004498:	8d4d                	or	a0,a0,a1
ffffffff8000449a:	ffffc097          	auipc	ra,0xffffc
ffffffff8000449e:	520080e7          	jalr	1312(ra) # ffffffff800009ba <arch_cpu_set_current_tid>
ffffffff800044a2:	12ccc503          	lbu	a0,300(s9)
ffffffff800044a6:	12dcc583          	lbu	a1,301(s9)
ffffffff800044aa:	12ecc603          	lbu	a2,302(s9)
ffffffff800044ae:	12fcc683          	lbu	a3,303(s9)
ffffffff800044b2:	05a2                	slli	a1,a1,0x8
ffffffff800044b4:	8d4d                	or	a0,a0,a1
ffffffff800044b6:	0642                	slli	a2,a2,0x10
ffffffff800044b8:	06e2                	slli	a3,a3,0x18
ffffffff800044ba:	8e55                	or	a2,a2,a3
ffffffff800044bc:	130cc583          	lbu	a1,304(s9)
ffffffff800044c0:	131cc683          	lbu	a3,305(s9)
ffffffff800044c4:	8d51                	or	a0,a0,a2
ffffffff800044c6:	132cc603          	lbu	a2,306(s9)
ffffffff800044ca:	133cc703          	lbu	a4,307(s9)
ffffffff800044ce:	06a2                	slli	a3,a3,0x8
ffffffff800044d0:	8dd5                	or	a1,a1,a3
ffffffff800044d2:	0642                	slli	a2,a2,0x10
ffffffff800044d4:	0762                	slli	a4,a4,0x18
ffffffff800044d6:	8e59                	or	a2,a2,a4
ffffffff800044d8:	8dd1                	or	a1,a1,a2
ffffffff800044da:	1582                	slli	a1,a1,0x20
ffffffff800044dc:	8d4d                	or	a0,a0,a1
ffffffff800044de:	ffffc097          	auipc	ra,0xffffc
ffffffff800044e2:	540080e7          	jalr	1344(ra) # ffffffff80000a1e <arch_cpu_set_current_taskid>
ffffffff800044e6:	ffffc097          	auipc	ra,0xffffc
ffffffff800044ea:	09a080e7          	jalr	154(ra) # ffffffff80000580 <arch_cpu_get_index>
ffffffff800044ee:	124cc603          	lbu	a2,292(s9)
ffffffff800044f2:	125cc683          	lbu	a3,293(s9)
ffffffff800044f6:	882a                	mv	a6,a0
ffffffff800044f8:	126cc503          	lbu	a0,294(s9)
ffffffff800044fc:	127cc703          	lbu	a4,295(s9)
ffffffff80004500:	06a2                	slli	a3,a3,0x8
ffffffff80004502:	8e55                	or	a2,a2,a3
ffffffff80004504:	0542                	slli	a0,a0,0x10
ffffffff80004506:	0762                	slli	a4,a4,0x18
ffffffff80004508:	8d59                	or	a0,a0,a4
ffffffff8000450a:	128cc683          	lbu	a3,296(s9)
ffffffff8000450e:	129cc703          	lbu	a4,297(s9)
ffffffff80004512:	8d51                	or	a0,a0,a2
ffffffff80004514:	12acc603          	lbu	a2,298(s9)
ffffffff80004518:	12bcc783          	lbu	a5,299(s9)
ffffffff8000451c:	0722                	slli	a4,a4,0x8
ffffffff8000451e:	8ed9                	or	a3,a3,a4
ffffffff80004520:	0642                	slli	a2,a2,0x10
ffffffff80004522:	07e2                	slli	a5,a5,0x18
ffffffff80004524:	8e5d                	or	a2,a2,a5
ffffffff80004526:	8e55                	or	a2,a2,a3
ffffffff80004528:	1602                	slli	a2,a2,0x20
ffffffff8000452a:	11ccc683          	lbu	a3,284(s9)
ffffffff8000452e:	11dcc703          	lbu	a4,285(s9)
ffffffff80004532:	8e49                	or	a2,a2,a0
ffffffff80004534:	11ecc503          	lbu	a0,286(s9)
ffffffff80004538:	11fcc783          	lbu	a5,287(s9)
ffffffff8000453c:	0722                	slli	a4,a4,0x8
ffffffff8000453e:	8ed9                	or	a3,a3,a4
ffffffff80004540:	0542                	slli	a0,a0,0x10
ffffffff80004542:	07e2                	slli	a5,a5,0x18
ffffffff80004544:	8d5d                	or	a0,a0,a5
ffffffff80004546:	120cc703          	lbu	a4,288(s9)
ffffffff8000454a:	121cc783          	lbu	a5,289(s9)
ffffffff8000454e:	8d55                	or	a0,a0,a3
ffffffff80004550:	122cc683          	lbu	a3,290(s9)
ffffffff80004554:	123cc483          	lbu	s1,291(s9)
ffffffff80004558:	07a2                	slli	a5,a5,0x8
ffffffff8000455a:	8f5d                	or	a4,a4,a5
ffffffff8000455c:	06c2                	slli	a3,a3,0x10
ffffffff8000455e:	04e2                	slli	s1,s1,0x18
ffffffff80004560:	8ec5                	or	a3,a3,s1
ffffffff80004562:	8ed9                	or	a3,a3,a4
ffffffff80004564:	1682                	slli	a3,a3,0x20
ffffffff80004566:	12ccc703          	lbu	a4,300(s9)
ffffffff8000456a:	12dcc783          	lbu	a5,301(s9)
ffffffff8000456e:	8ec9                	or	a3,a3,a0
ffffffff80004570:	12ecc503          	lbu	a0,302(s9)
ffffffff80004574:	12fcc483          	lbu	s1,303(s9)
ffffffff80004578:	07a2                	slli	a5,a5,0x8
ffffffff8000457a:	8f5d                	or	a4,a4,a5
ffffffff8000457c:	0542                	slli	a0,a0,0x10
ffffffff8000457e:	04e2                	slli	s1,s1,0x18
ffffffff80004580:	8d45                	or	a0,a0,s1
ffffffff80004582:	130cc783          	lbu	a5,304(s9)
ffffffff80004586:	131cc483          	lbu	s1,305(s9)
ffffffff8000458a:	8d59                	or	a0,a0,a4
ffffffff8000458c:	132cc703          	lbu	a4,306(s9)
ffffffff80004590:	133cc583          	lbu	a1,307(s9)
ffffffff80004594:	04a2                	slli	s1,s1,0x8
ffffffff80004596:	8fc5                	or	a5,a5,s1
ffffffff80004598:	0742                	slli	a4,a4,0x10
ffffffff8000459a:	05e2                	slli	a1,a1,0x18
ffffffff8000459c:	8dd9                	or	a1,a1,a4
ffffffff8000459e:	8ddd                	or	a1,a1,a5
ffffffff800045a0:	1582                	slli	a1,a1,0x20
ffffffff800045a2:	00a5e733          	or	a4,a1,a0
ffffffff800045a6:	80008537          	lui	a0,0x80008
ffffffff800045aa:	7ba50513          	addi	a0,a0,1978 # ffffffff800087ba <$d.2+0x19>
ffffffff800045ae:	85c2                	mv	a1,a6
ffffffff800045b0:	00003097          	auipc	ra,0x3
ffffffff800045b4:	334080e7          	jalr	820(ra) # ffffffff800078e4 <printf_scheduler>
ffffffff800045b8:	124cc503          	lbu	a0,292(s9)
ffffffff800045bc:	125cc583          	lbu	a1,293(s9)
ffffffff800045c0:	126cc603          	lbu	a2,294(s9)
ffffffff800045c4:	127cc683          	lbu	a3,295(s9)
ffffffff800045c8:	05a2                	slli	a1,a1,0x8
ffffffff800045ca:	8d4d                	or	a0,a0,a1
ffffffff800045cc:	0642                	slli	a2,a2,0x10
ffffffff800045ce:	06e2                	slli	a3,a3,0x18
ffffffff800045d0:	8e55                	or	a2,a2,a3
ffffffff800045d2:	128cc583          	lbu	a1,296(s9)
ffffffff800045d6:	129cc683          	lbu	a3,297(s9)
ffffffff800045da:	8d51                	or	a0,a0,a2
ffffffff800045dc:	12acc603          	lbu	a2,298(s9)
ffffffff800045e0:	12bcc703          	lbu	a4,299(s9)
ffffffff800045e4:	06a2                	slli	a3,a3,0x8
ffffffff800045e6:	8dd5                	or	a1,a1,a3
ffffffff800045e8:	0642                	slli	a2,a2,0x10
ffffffff800045ea:	0762                	slli	a4,a4,0x18
ffffffff800045ec:	8e59                	or	a2,a2,a4
ffffffff800045ee:	8dd1                	or	a1,a1,a2
ffffffff800045f0:	1582                	slli	a1,a1,0x20
ffffffff800045f2:	8d4d                	or	a0,a0,a1
ffffffff800045f4:	c549                	beqz	a0,ffffffff8000467e <scheduler_schedule+0x4aa>
ffffffff800045f6:	134cc503          	lbu	a0,308(s9)
ffffffff800045fa:	135cc583          	lbu	a1,309(s9)
ffffffff800045fe:	136cc603          	lbu	a2,310(s9)
ffffffff80004602:	137cc683          	lbu	a3,311(s9)
ffffffff80004606:	05a2                	slli	a1,a1,0x8
ffffffff80004608:	8d4d                	or	a0,a0,a1
ffffffff8000460a:	0642                	slli	a2,a2,0x10
ffffffff8000460c:	06e2                	slli	a3,a3,0x18
ffffffff8000460e:	8e55                	or	a2,a2,a3
ffffffff80004610:	138cc583          	lbu	a1,312(s9)
ffffffff80004614:	139cc683          	lbu	a3,313(s9)
ffffffff80004618:	8d51                	or	a0,a0,a2
ffffffff8000461a:	13acc603          	lbu	a2,314(s9)
ffffffff8000461e:	13bcc703          	lbu	a4,315(s9)
ffffffff80004622:	06a2                	slli	a3,a3,0x8
ffffffff80004624:	8dd5                	or	a1,a1,a3
ffffffff80004626:	0642                	slli	a2,a2,0x10
ffffffff80004628:	0762                	slli	a4,a4,0x18
ffffffff8000462a:	8e59                	or	a2,a2,a4
ffffffff8000462c:	8dd1                	or	a1,a1,a2
ffffffff8000462e:	1582                	slli	a1,a1,0x20
ffffffff80004630:	8d4d                	or	a0,a0,a1
ffffffff80004632:	ffffc097          	auipc	ra,0xffffc
ffffffff80004636:	4b4080e7          	jalr	1204(ra) # ffffffff80000ae6 <arch_cpu_set_thread_kernel_stack>
ffffffff8000463a:	13ccc503          	lbu	a0,316(s9)
ffffffff8000463e:	13dcc583          	lbu	a1,317(s9)
ffffffff80004642:	13ecc603          	lbu	a2,318(s9)
ffffffff80004646:	13fcc683          	lbu	a3,319(s9)
ffffffff8000464a:	05a2                	slli	a1,a1,0x8
ffffffff8000464c:	8d4d                	or	a0,a0,a1
ffffffff8000464e:	0642                	slli	a2,a2,0x10
ffffffff80004650:	06e2                	slli	a3,a3,0x18
ffffffff80004652:	8e55                	or	a2,a2,a3
ffffffff80004654:	140cc583          	lbu	a1,320(s9)
ffffffff80004658:	141cc683          	lbu	a3,321(s9)
ffffffff8000465c:	8d51                	or	a0,a0,a2
ffffffff8000465e:	142cc603          	lbu	a2,322(s9)
ffffffff80004662:	143cc703          	lbu	a4,323(s9)
ffffffff80004666:	06a2                	slli	a3,a3,0x8
ffffffff80004668:	8dd5                	or	a1,a1,a3
ffffffff8000466a:	0642                	slli	a2,a2,0x10
ffffffff8000466c:	0762                	slli	a4,a4,0x18
ffffffff8000466e:	8e59                	or	a2,a2,a4
ffffffff80004670:	8dd1                	or	a1,a1,a2
ffffffff80004672:	1582                	slli	a1,a1,0x20
ffffffff80004674:	8d4d                	or	a0,a0,a1
ffffffff80004676:	ffffc097          	auipc	ra,0xffffc
ffffffff8000467a:	40c080e7          	jalr	1036(ra) # ffffffff80000a82 <arch_cpu_set_thread_user_stack>
ffffffff8000467e:	ffffc097          	auipc	ra,0xffffc
ffffffff80004682:	f02080e7          	jalr	-254(ra) # ffffffff80000580 <arch_cpu_get_index>
ffffffff80004686:	14ac8223          	sb	a0,324(s9)
ffffffff8000468a:	03855593          	srli	a1,a0,0x38
ffffffff8000468e:	14bc85a3          	sb	a1,331(s9)
ffffffff80004692:	03055593          	srli	a1,a0,0x30
ffffffff80004696:	14bc8523          	sb	a1,330(s9)
ffffffff8000469a:	02855593          	srli	a1,a0,0x28
ffffffff8000469e:	14bc84a3          	sb	a1,329(s9)
ffffffff800046a2:	02055593          	srli	a1,a0,0x20
ffffffff800046a6:	14bc8423          	sb	a1,328(s9)
ffffffff800046aa:	01855593          	srli	a1,a0,0x18
ffffffff800046ae:	14bc83a3          	sb	a1,327(s9)
ffffffff800046b2:	01055593          	srli	a1,a0,0x10
ffffffff800046b6:	14bc8323          	sb	a1,326(s9)
ffffffff800046ba:	8121                	srli	a0,a0,0x8
ffffffff800046bc:	14ac82a3          	sb	a0,325(s9)
ffffffff800046c0:	124cc503          	lbu	a0,292(s9)
ffffffff800046c4:	125cc583          	lbu	a1,293(s9)
ffffffff800046c8:	126cc603          	lbu	a2,294(s9)
ffffffff800046cc:	127cc683          	lbu	a3,295(s9)
ffffffff800046d0:	05a2                	slli	a1,a1,0x8
ffffffff800046d2:	8d4d                	or	a0,a0,a1
ffffffff800046d4:	0642                	slli	a2,a2,0x10
ffffffff800046d6:	06e2                	slli	a3,a3,0x18
ffffffff800046d8:	8e55                	or	a2,a2,a3
ffffffff800046da:	128cc583          	lbu	a1,296(s9)
ffffffff800046de:	129cc683          	lbu	a3,297(s9)
ffffffff800046e2:	8d51                	or	a0,a0,a2
ffffffff800046e4:	12acc603          	lbu	a2,298(s9)
ffffffff800046e8:	12bcc703          	lbu	a4,299(s9)
ffffffff800046ec:	06a2                	slli	a3,a3,0x8
ffffffff800046ee:	8dd5                	or	a1,a1,a3
ffffffff800046f0:	0642                	slli	a2,a2,0x10
ffffffff800046f2:	0762                	slli	a4,a4,0x18
ffffffff800046f4:	8e59                	or	a2,a2,a4
ffffffff800046f6:	8dd1                	or	a1,a1,a2
ffffffff800046f8:	1582                	slli	a1,a1,0x20
ffffffff800046fa:	8d4d                	or	a0,a0,a1
ffffffff800046fc:	fffff097          	auipc	ra,0xfffff
ffffffff80004700:	40a080e7          	jalr	1034(ra) # ffffffff80003b06 <process_get_process>
ffffffff80004704:	892a                	mv	s2,a0
ffffffff80004706:	0561                	addi	a0,a0,24
ffffffff80004708:	ffffe097          	auipc	ra,0xffffe
ffffffff8000470c:	ac0080e7          	jalr	-1344(ra) # ffffffff800021c8 <spinlock_unlock>
ffffffff80004710:	124cc503          	lbu	a0,292(s9)
ffffffff80004714:	125cc583          	lbu	a1,293(s9)
ffffffff80004718:	126cc603          	lbu	a2,294(s9)
ffffffff8000471c:	127cc683          	lbu	a3,295(s9)
ffffffff80004720:	05a2                	slli	a1,a1,0x8
ffffffff80004722:	8d4d                	or	a0,a0,a1
ffffffff80004724:	0642                	slli	a2,a2,0x10
ffffffff80004726:	06e2                	slli	a3,a3,0x18
ffffffff80004728:	8e55                	or	a2,a2,a3
ffffffff8000472a:	128cc583          	lbu	a1,296(s9)
ffffffff8000472e:	129cc683          	lbu	a3,297(s9)
ffffffff80004732:	8d51                	or	a0,a0,a2
ffffffff80004734:	12acc603          	lbu	a2,298(s9)
ffffffff80004738:	12bcc703          	lbu	a4,299(s9)
ffffffff8000473c:	06a2                	slli	a3,a3,0x8
ffffffff8000473e:	8dd5                	or	a1,a1,a3
ffffffff80004740:	0642                	slli	a2,a2,0x10
ffffffff80004742:	0762                	slli	a4,a4,0x18
ffffffff80004744:	8e59                	or	a2,a2,a4
ffffffff80004746:	fa043683          	ld	a3,-96(s0)
ffffffff8000474a:	8dd1                	or	a1,a1,a2
ffffffff8000474c:	1582                	slli	a1,a1,0x20
ffffffff8000474e:	8d4d                	or	a0,a0,a1
ffffffff80004750:	89ca                	mv	s3,s2
ffffffff80004752:	02d50663          	beq	a0,a3,ffffffff8000477e <scheduler_schedule+0x5aa>
ffffffff80004756:	fa043503          	ld	a0,-96(s0)
ffffffff8000475a:	55fd                	li	a1,-1
ffffffff8000475c:	02b50063          	beq	a0,a1,ffffffff8000477c <scheduler_schedule+0x5a8>
ffffffff80004760:	fa043503          	ld	a0,-96(s0)
ffffffff80004764:	fffff097          	auipc	ra,0xfffff
ffffffff80004768:	3a2080e7          	jalr	930(ra) # ffffffff80003b06 <process_get_process>
ffffffff8000476c:	c901                	beqz	a0,ffffffff8000477c <scheduler_schedule+0x5a8>
ffffffff8000476e:	89aa                	mv	s3,a0
ffffffff80004770:	0561                	addi	a0,a0,24
ffffffff80004772:	ffffe097          	auipc	ra,0xffffe
ffffffff80004776:	a56080e7          	jalr	-1450(ra) # ffffffff800021c8 <spinlock_unlock>
ffffffff8000477a:	a011                	j	ffffffff8000477e <scheduler_schedule+0x5aa>
ffffffff8000477c:	4981                	li	s3,0
ffffffff8000477e:	fa043583          	ld	a1,-96(s0)
ffffffff80004782:	00994503          	lbu	a0,9(s2)
ffffffff80004786:	00894603          	lbu	a2,8(s2)
ffffffff8000478a:	00a94683          	lbu	a3,10(s2)
ffffffff8000478e:	00b94703          	lbu	a4,11(s2)
ffffffff80004792:	0522                	slli	a0,a0,0x8
ffffffff80004794:	8d51                	or	a0,a0,a2
ffffffff80004796:	06c2                	slli	a3,a3,0x10
ffffffff80004798:	0762                	slli	a4,a4,0x18
ffffffff8000479a:	8ed9                	or	a3,a3,a4
ffffffff8000479c:	8d55                	or	a0,a0,a3
ffffffff8000479e:	00d94603          	lbu	a2,13(s2)
ffffffff800047a2:	00c94683          	lbu	a3,12(s2)
ffffffff800047a6:	00e94703          	lbu	a4,14(s2)
ffffffff800047aa:	00f94783          	lbu	a5,15(s2)
ffffffff800047ae:	0622                	slli	a2,a2,0x8
ffffffff800047b0:	8e55                	or	a2,a2,a3
ffffffff800047b2:	0742                	slli	a4,a4,0x10
ffffffff800047b4:	07e2                	slli	a5,a5,0x18
ffffffff800047b6:	8f5d                	or	a4,a4,a5
ffffffff800047b8:	8e59                	or	a2,a2,a4
ffffffff800047ba:	1602                	slli	a2,a2,0x20
ffffffff800047bc:	56fd                	li	a3,-1
ffffffff800047be:	8d51                	or	a0,a0,a2
ffffffff800047c0:	04d58263          	beq	a1,a3,ffffffff80004804 <scheduler_schedule+0x630>
ffffffff800047c4:	0099c583          	lbu	a1,9(s3)
ffffffff800047c8:	0089c603          	lbu	a2,8(s3)
ffffffff800047cc:	00a9c683          	lbu	a3,10(s3)
ffffffff800047d0:	00b9c703          	lbu	a4,11(s3)
ffffffff800047d4:	05a2                	slli	a1,a1,0x8
ffffffff800047d6:	8dd1                	or	a1,a1,a2
ffffffff800047d8:	06c2                	slli	a3,a3,0x10
ffffffff800047da:	0762                	slli	a4,a4,0x18
ffffffff800047dc:	8ed9                	or	a3,a3,a4
ffffffff800047de:	8dd5                	or	a1,a1,a3
ffffffff800047e0:	00d9c603          	lbu	a2,13(s3)
ffffffff800047e4:	00c9c683          	lbu	a3,12(s3)
ffffffff800047e8:	00e9c703          	lbu	a4,14(s3)
ffffffff800047ec:	00f9c783          	lbu	a5,15(s3)
ffffffff800047f0:	0622                	slli	a2,a2,0x8
ffffffff800047f2:	8e55                	or	a2,a2,a3
ffffffff800047f4:	0742                	slli	a4,a4,0x10
ffffffff800047f6:	07e2                	slli	a5,a5,0x18
ffffffff800047f8:	8f5d                	or	a4,a4,a5
ffffffff800047fa:	8e59                	or	a2,a2,a4
ffffffff800047fc:	1602                	slli	a2,a2,0x20
ffffffff800047fe:	8dd1                	or	a1,a1,a2
ffffffff80004800:	00b50463          	beq	a0,a1,ffffffff80004808 <scheduler_schedule+0x634>
ffffffff80004804:	610c                	ld	a1,0(a0)
ffffffff80004806:	a011                	j	ffffffff8000480a <scheduler_schedule+0x636>
ffffffff80004808:	4581                	li	a1,0
ffffffff8000480a:	8566                	mv	a0,s9
ffffffff8000480c:	70a6                	ld	ra,104(sp)
ffffffff8000480e:	7406                	ld	s0,96(sp)
ffffffff80004810:	64e6                	ld	s1,88(sp)
ffffffff80004812:	6946                	ld	s2,80(sp)
ffffffff80004814:	69a6                	ld	s3,72(sp)
ffffffff80004816:	6a06                	ld	s4,64(sp)
ffffffff80004818:	7ae2                	ld	s5,56(sp)
ffffffff8000481a:	7b42                	ld	s6,48(sp)
ffffffff8000481c:	7ba2                	ld	s7,40(sp)
ffffffff8000481e:	7c02                	ld	s8,32(sp)
ffffffff80004820:	6ce2                	ld	s9,24(sp)
ffffffff80004822:	6165                	addi	sp,sp,112
ffffffff80004824:	ffffd317          	auipc	t1,0xffffd
ffffffff80004828:	9d030067          	jr	-1584(t1) # ffffffff800011f4 <arch_scheduler_switch_task>
ffffffff8000482c:	ffffc097          	auipc	ra,0xffffc
ffffffff80004830:	e50080e7          	jalr	-432(ra) # ffffffff8000067c <arch_cpu_decrement_preempt_counter>
ffffffff80004834:	b6dd                	j	ffffffff8000441a <scheduler_schedule+0x246>

ffffffff80004836 <dtb_find_node>:
ffffffff80004836:	8000a6b7          	lui	a3,0x8000a
ffffffff8000483a:	0986b683          	ld	a3,152(a3) # ffffffff8000a098 <DTBNodes>
ffffffff8000483e:	18068763          	beqz	a3,ffffffff800049cc <dtb_find_node+0x196>
ffffffff80004842:	7159                	addi	sp,sp,-112
ffffffff80004844:	f486                	sd	ra,104(sp)
ffffffff80004846:	f0a2                	sd	s0,96(sp)
ffffffff80004848:	eca6                	sd	s1,88(sp)
ffffffff8000484a:	e8ca                	sd	s2,80(sp)
ffffffff8000484c:	e4ce                	sd	s3,72(sp)
ffffffff8000484e:	e0d2                	sd	s4,64(sp)
ffffffff80004850:	fc56                	sd	s5,56(sp)
ffffffff80004852:	f85a                	sd	s6,48(sp)
ffffffff80004854:	f45e                	sd	s7,40(sp)
ffffffff80004856:	f062                	sd	s8,32(sp)
ffffffff80004858:	ec66                	sd	s9,24(sp)
ffffffff8000485a:	e86a                	sd	s10,16(sp)
ffffffff8000485c:	e46e                	sd	s11,8(sp)
ffffffff8000485e:	1880                	addi	s0,sp,112
ffffffff80004860:	8ab2                	mv	s5,a2
ffffffff80004862:	89ae                	mv	s3,a1
ffffffff80004864:	00002097          	auipc	ra,0x2
ffffffff80004868:	182080e7          	jalr	386(ra) # ffffffff800069e6 <strdup>
ffffffff8000486c:	892a                	mv	s2,a0
ffffffff8000486e:	f8a43823          	sd	a0,-112(s0)
ffffffff80004872:	00054503          	lbu	a0,0(a0)
ffffffff80004876:	02f00593          	li	a1,47
ffffffff8000487a:	00b51663          	bne	a0,a1,ffffffff80004886 <dtb_find_node+0x50>
ffffffff8000487e:	00190513          	addi	a0,s2,1
ffffffff80004882:	f8a43823          	sd	a0,-112(s0)
ffffffff80004886:	8000ab37          	lui	s6,0x8000a
ffffffff8000488a:	098b3503          	ld	a0,152(s6) # ffffffff8000a098 <DTBNodes>
ffffffff8000488e:	0521                	addi	a0,a0,8
ffffffff80004890:	800085b7          	lui	a1,0x80008
ffffffff80004894:	70558593          	addi	a1,a1,1797 # ffffffff80008705 <$d.2>
ffffffff80004898:	80008637          	lui	a2,0x80008
ffffffff8000489c:	35360613          	addi	a2,a2,851 # ffffffff80008353 <$d.1+0x25>
ffffffff800048a0:	800086b7          	lui	a3,0x80008
ffffffff800048a4:	60c68693          	addi	a3,a3,1548 # ffffffff8000860c <$d.1+0xfd>
ffffffff800048a8:	4755                	li	a4,21
ffffffff800048aa:	ffffd097          	auipc	ra,0xffffd
ffffffff800048ae:	b7a080e7          	jalr	-1158(ra) # ffffffff80001424 <spinlock_lock_debug>
ffffffff800048b2:	098b3503          	ld	a0,152(s6)
ffffffff800048b6:	00053c83          	ld	s9,0(a0)
ffffffff800048ba:	80008537          	lui	a0,0x80008
ffffffff800048be:	23f50a13          	addi	s4,a0,575 # ffffffff8000823f <$d.2+0x119>
ffffffff800048c2:	f9040513          	addi	a0,s0,-112
ffffffff800048c6:	85d2                	mv	a1,s4
ffffffff800048c8:	00002097          	auipc	ra,0x2
ffffffff800048cc:	1be080e7          	jalr	446(ra) # ffffffff80006a86 <strsep>
ffffffff800048d0:	cd71                	beqz	a0,ffffffff800049ac <dtb_find_node+0x176>
ffffffff800048d2:	8baa                	mv	s7,a0
ffffffff800048d4:	4d01                	li	s10,0
ffffffff800048d6:	80008537          	lui	a0,0x80008
ffffffff800048da:	25c50d93          	addi	s11,a0,604 # ffffffff8000825c <$d.2+0x136>
ffffffff800048de:	855e                	mv	a0,s7
ffffffff800048e0:	85ee                	mv	a1,s11
ffffffff800048e2:	00002097          	auipc	ra,0x2
ffffffff800048e6:	062080e7          	jalr	98(ra) # ffffffff80006944 <strcmp>
ffffffff800048ea:	c169                	beqz	a0,ffffffff800049ac <dtb_find_node+0x176>
ffffffff800048ec:	008cb503          	ld	a0,8(s9)
ffffffff800048f0:	00853c03          	ld	s8,8(a0)
ffffffff800048f4:	000c1d63          	bnez	s8,ffffffff8000490e <dtb_find_node+0xd8>
ffffffff800048f8:	a8e1                	j	ffffffff800049d0 <dtb_find_node+0x19a>
ffffffff800048fa:	85de                	mv	a1,s7
ffffffff800048fc:	00002097          	auipc	ra,0x2
ffffffff80004900:	048080e7          	jalr	72(ra) # ffffffff80006944 <strcmp>
ffffffff80004904:	e949                	bnez	a0,ffffffff80004996 <dtb_find_node+0x160>
ffffffff80004906:	010c3c03          	ld	s8,16(s8) # 4000010 <$d.3+0x3ff52c2>
ffffffff8000490a:	0c0c0363          	beqz	s8,ffffffff800049d0 <dtb_find_node+0x19a>
ffffffff8000490e:	000c3c83          	ld	s9,0(s8)
ffffffff80004912:	000cbb03          	ld	s6,0(s9)
ffffffff80004916:	000b3503          	ld	a0,0(s6)
ffffffff8000491a:	fe0a90e3          	bnez	s5,ffffffff800048fa <dtb_find_node+0xc4>
ffffffff8000491e:	00002097          	auipc	ra,0x2
ffffffff80004922:	0a0080e7          	jalr	160(ra) # ffffffff800069be <strlen>
ffffffff80004926:	84aa                	mv	s1,a0
ffffffff80004928:	855e                	mv	a0,s7
ffffffff8000492a:	00002097          	auipc	ra,0x2
ffffffff8000492e:	094080e7          	jalr	148(ra) # ffffffff800069be <strlen>
ffffffff80004932:	02957063          	bgeu	a0,s1,ffffffff80004952 <dtb_find_node+0x11c>
ffffffff80004936:	000b3483          	ld	s1,0(s6)
ffffffff8000493a:	855e                	mv	a0,s7
ffffffff8000493c:	00002097          	auipc	ra,0x2
ffffffff80004940:	082080e7          	jalr	130(ra) # ffffffff800069be <strlen>
ffffffff80004944:	9526                	add	a0,a0,s1
ffffffff80004946:	00054503          	lbu	a0,0(a0)
ffffffff8000494a:	04000593          	li	a1,64
ffffffff8000494e:	02b50063          	beq	a0,a1,ffffffff8000496e <dtb_find_node+0x138>
ffffffff80004952:	000b3503          	ld	a0,0(s6)
ffffffff80004956:	00002097          	auipc	ra,0x2
ffffffff8000495a:	068080e7          	jalr	104(ra) # ffffffff800069be <strlen>
ffffffff8000495e:	84aa                	mv	s1,a0
ffffffff80004960:	855e                	mv	a0,s7
ffffffff80004962:	00002097          	auipc	ra,0x2
ffffffff80004966:	05c080e7          	jalr	92(ra) # ffffffff800069be <strlen>
ffffffff8000496a:	f8956ee3          	bltu	a0,s1,ffffffff80004906 <dtb_find_node+0xd0>
ffffffff8000496e:	000b3483          	ld	s1,0(s6)
ffffffff80004972:	855e                	mv	a0,s7
ffffffff80004974:	00002097          	auipc	ra,0x2
ffffffff80004978:	04a080e7          	jalr	74(ra) # ffffffff800069be <strlen>
ffffffff8000497c:	862a                	mv	a2,a0
ffffffff8000497e:	8526                	mv	a0,s1
ffffffff80004980:	85de                	mv	a1,s7
ffffffff80004982:	00002097          	auipc	ra,0x2
ffffffff80004986:	ff8080e7          	jalr	-8(ra) # ffffffff8000697a <strncmp>
ffffffff8000498a:	fd35                	bnez	a0,ffffffff80004906 <dtb_find_node+0xd0>
ffffffff8000498c:	013d0463          	beq	s10,s3,ffffffff80004994 <dtb_find_node+0x15e>
ffffffff80004990:	2d05                	addiw	s10,s10,1
ffffffff80004992:	bf95                	j	ffffffff80004906 <dtb_find_node+0xd0>
ffffffff80004994:	8d4e                	mv	s10,s3
ffffffff80004996:	f9040513          	addi	a0,s0,-112
ffffffff8000499a:	85d2                	mv	a1,s4
ffffffff8000499c:	00002097          	auipc	ra,0x2
ffffffff800049a0:	0ea080e7          	jalr	234(ra) # ffffffff80006a86 <strsep>
ffffffff800049a4:	8baa                	mv	s7,a0
ffffffff800049a6:	8000ab37          	lui	s6,0x8000a
ffffffff800049aa:	f915                	bnez	a0,ffffffff800048de <dtb_find_node+0xa8>
ffffffff800049ac:	098b3503          	ld	a0,152(s6) # ffffffff8000a098 <DTBNodes>
ffffffff800049b0:	000cb483          	ld	s1,0(s9)
ffffffff800049b4:	0521                	addi	a0,a0,8
ffffffff800049b6:	ffffe097          	auipc	ra,0xffffe
ffffffff800049ba:	812080e7          	jalr	-2030(ra) # ffffffff800021c8 <spinlock_unlock>
ffffffff800049be:	854a                	mv	a0,s2
ffffffff800049c0:	ffffe097          	auipc	ra,0xffffe
ffffffff800049c4:	272080e7          	jalr	626(ra) # ffffffff80002c32 <kfree>
ffffffff800049c8:	8526                	mv	a0,s1
ffffffff800049ca:	a015                	j	ffffffff800049ee <dtb_find_node+0x1b8>
ffffffff800049cc:	4501                	li	a0,0
ffffffff800049ce:	8082                	ret
ffffffff800049d0:	854a                	mv	a0,s2
ffffffff800049d2:	ffffe097          	auipc	ra,0xffffe
ffffffff800049d6:	260080e7          	jalr	608(ra) # ffffffff80002c32 <kfree>
ffffffff800049da:	8000a537          	lui	a0,0x8000a
ffffffff800049de:	09853503          	ld	a0,152(a0) # ffffffff8000a098 <DTBNodes>
ffffffff800049e2:	0521                	addi	a0,a0,8
ffffffff800049e4:	ffffd097          	auipc	ra,0xffffd
ffffffff800049e8:	7e4080e7          	jalr	2020(ra) # ffffffff800021c8 <spinlock_unlock>
ffffffff800049ec:	4501                	li	a0,0
ffffffff800049ee:	70a6                	ld	ra,104(sp)
ffffffff800049f0:	7406                	ld	s0,96(sp)
ffffffff800049f2:	64e6                	ld	s1,88(sp)
ffffffff800049f4:	6946                	ld	s2,80(sp)
ffffffff800049f6:	69a6                	ld	s3,72(sp)
ffffffff800049f8:	6a06                	ld	s4,64(sp)
ffffffff800049fa:	7ae2                	ld	s5,56(sp)
ffffffff800049fc:	7b42                	ld	s6,48(sp)
ffffffff800049fe:	7ba2                	ld	s7,40(sp)
ffffffff80004a00:	7c02                	ld	s8,32(sp)
ffffffff80004a02:	6ce2                	ld	s9,24(sp)
ffffffff80004a04:	6d42                	ld	s10,16(sp)
ffffffff80004a06:	6da2                	ld	s11,8(sp)
ffffffff80004a08:	6165                	addi	sp,sp,112
ffffffff80004a0a:	8082                	ret

ffffffff80004a0c <dtb_prop_read_u32>:
ffffffff80004a0c:	715d                	addi	sp,sp,-80
ffffffff80004a0e:	e486                	sd	ra,72(sp)
ffffffff80004a10:	e0a2                	sd	s0,64(sp)
ffffffff80004a12:	fc26                	sd	s1,56(sp)
ffffffff80004a14:	f84a                	sd	s2,48(sp)
ffffffff80004a16:	f44e                	sd	s3,40(sp)
ffffffff80004a18:	f052                	sd	s4,32(sp)
ffffffff80004a1a:	ec56                	sd	s5,24(sp)
ffffffff80004a1c:	e85a                	sd	s6,16(sp)
ffffffff80004a1e:	e45e                	sd	s7,8(sp)
ffffffff80004a20:	0880                	addi	s0,sp,80
ffffffff80004a22:	8000a737          	lui	a4,0x8000a
ffffffff80004a26:	09873703          	ld	a4,152(a4) # ffffffff8000a098 <DTBNodes>
ffffffff80004a2a:	5a7d                	li	s4,-1
ffffffff80004a2c:	c325                	beqz	a4,ffffffff80004a8c <dtb_prop_read_u32+0x80>
ffffffff80004a2e:	89b6                	mv	s3,a3
ffffffff80004a30:	8932                	mv	s2,a2
ffffffff80004a32:	8b2e                	mv	s6,a1
ffffffff80004a34:	8aaa                	mv	s5,a0
ffffffff80004a36:	6508                	ld	a0,8(a0)
ffffffff80004a38:	0561                	addi	a0,a0,24
ffffffff80004a3a:	800085b7          	lui	a1,0x80008
ffffffff80004a3e:	70558593          	addi	a1,a1,1797 # ffffffff80008705 <$d.2>
ffffffff80004a42:	80008637          	lui	a2,0x80008
ffffffff80004a46:	5c360613          	addi	a2,a2,1475 # ffffffff800085c3 <$d.1+0xb4>
ffffffff80004a4a:	800086b7          	lui	a3,0x80008
ffffffff80004a4e:	0c668693          	addi	a3,a3,198 # ffffffff800080c6 <$d.3+0x82>
ffffffff80004a52:	04d00713          	li	a4,77
ffffffff80004a56:	ffffd097          	auipc	ra,0xffffd
ffffffff80004a5a:	9ce080e7          	jalr	-1586(ra) # ffffffff80001424 <spinlock_lock_debug>
ffffffff80004a5e:	008ab503          	ld	a0,8(s5)
ffffffff80004a62:	6504                	ld	s1,8(a0)
ffffffff80004a64:	cc99                	beqz	s1,ffffffff80004a82 <dtb_prop_read_u32+0x76>
ffffffff80004a66:	0004bb83          	ld	s7,0(s1)
ffffffff80004a6a:	000bb583          	ld	a1,0(s7)
ffffffff80004a6e:	855a                	mv	a0,s6
ffffffff80004a70:	00002097          	auipc	ra,0x2
ffffffff80004a74:	ed4080e7          	jalr	-300(ra) # ffffffff80006944 <strcmp>
ffffffff80004a78:	c515                	beqz	a0,ffffffff80004aa4 <dtb_prop_read_u32+0x98>
ffffffff80004a7a:	6884                	ld	s1,16(s1)
ffffffff80004a7c:	f4ed                	bnez	s1,ffffffff80004a66 <dtb_prop_read_u32+0x5a>
ffffffff80004a7e:	008ab503          	ld	a0,8(s5)
ffffffff80004a82:	0561                	addi	a0,a0,24
ffffffff80004a84:	ffffd097          	auipc	ra,0xffffd
ffffffff80004a88:	744080e7          	jalr	1860(ra) # ffffffff800021c8 <spinlock_unlock>
ffffffff80004a8c:	8552                	mv	a0,s4
ffffffff80004a8e:	60a6                	ld	ra,72(sp)
ffffffff80004a90:	6406                	ld	s0,64(sp)
ffffffff80004a92:	74e2                	ld	s1,56(sp)
ffffffff80004a94:	7942                	ld	s2,48(sp)
ffffffff80004a96:	79a2                	ld	s3,40(sp)
ffffffff80004a98:	7a02                	ld	s4,32(sp)
ffffffff80004a9a:	6ae2                	ld	s5,24(sp)
ffffffff80004a9c:	6b42                	ld	s6,16(sp)
ffffffff80004a9e:	6ba2                	ld	s7,8(sp)
ffffffff80004aa0:	6161                	addi	sp,sp,80
ffffffff80004aa2:	8082                	ret
ffffffff80004aa4:	008ab503          	ld	a0,8(s5)
ffffffff80004aa8:	0561                	addi	a0,a0,24
ffffffff80004aaa:	ffffd097          	auipc	ra,0xffffd
ffffffff80004aae:	71e080e7          	jalr	1822(ra) # ffffffff800021c8 <spinlock_unlock>
ffffffff80004ab2:	010bb503          	ld	a0,16(s7)
ffffffff80004ab6:	00498593          	addi	a1,s3,4
ffffffff80004aba:	fcb569e3          	bltu	a0,a1,ffffffff80004a8c <dtb_prop_read_u32+0x80>
ffffffff80004abe:	00090f63          	beqz	s2,ffffffff80004adc <dtb_prop_read_u32+0xd0>
ffffffff80004ac2:	008bb503          	ld	a0,8(s7)
ffffffff80004ac6:	098a                	slli	s3,s3,0x2
ffffffff80004ac8:	954e                	add	a0,a0,s3
ffffffff80004aca:	4108                	lw	a0,0(a0)
ffffffff80004acc:	00003097          	auipc	ra,0x3
ffffffff80004ad0:	0ba080e7          	jalr	186(ra) # ffffffff80007b86 <be32>
ffffffff80004ad4:	4a01                	li	s4,0
ffffffff80004ad6:	00a92023          	sw	a0,0(s2)
ffffffff80004ada:	bf4d                	j	ffffffff80004a8c <dtb_prop_read_u32+0x80>
ffffffff80004adc:	4a01                	li	s4,0
ffffffff80004ade:	b77d                	j	ffffffff80004a8c <dtb_prop_read_u32+0x80>

ffffffff80004ae0 <dtb_prop_read_u64>:
ffffffff80004ae0:	715d                	addi	sp,sp,-80
ffffffff80004ae2:	e486                	sd	ra,72(sp)
ffffffff80004ae4:	e0a2                	sd	s0,64(sp)
ffffffff80004ae6:	fc26                	sd	s1,56(sp)
ffffffff80004ae8:	f84a                	sd	s2,48(sp)
ffffffff80004aea:	f44e                	sd	s3,40(sp)
ffffffff80004aec:	f052                	sd	s4,32(sp)
ffffffff80004aee:	ec56                	sd	s5,24(sp)
ffffffff80004af0:	e85a                	sd	s6,16(sp)
ffffffff80004af2:	e45e                	sd	s7,8(sp)
ffffffff80004af4:	0880                	addi	s0,sp,80
ffffffff80004af6:	8000a737          	lui	a4,0x8000a
ffffffff80004afa:	09873703          	ld	a4,152(a4) # ffffffff8000a098 <DTBNodes>
ffffffff80004afe:	5a7d                	li	s4,-1
ffffffff80004b00:	c325                	beqz	a4,ffffffff80004b60 <dtb_prop_read_u64+0x80>
ffffffff80004b02:	89b6                	mv	s3,a3
ffffffff80004b04:	8932                	mv	s2,a2
ffffffff80004b06:	8b2e                	mv	s6,a1
ffffffff80004b08:	8aaa                	mv	s5,a0
ffffffff80004b0a:	6508                	ld	a0,8(a0)
ffffffff80004b0c:	0561                	addi	a0,a0,24
ffffffff80004b0e:	800085b7          	lui	a1,0x80008
ffffffff80004b12:	70558593          	addi	a1,a1,1797 # ffffffff80008705 <$d.2>
ffffffff80004b16:	80008637          	lui	a2,0x80008
ffffffff80004b1a:	4f160613          	addi	a2,a2,1265 # ffffffff800084f1 <$d.2+0xc6>
ffffffff80004b1e:	800086b7          	lui	a3,0x80008
ffffffff80004b22:	0c668693          	addi	a3,a3,198 # ffffffff800080c6 <$d.3+0x82>
ffffffff80004b26:	06300713          	li	a4,99
ffffffff80004b2a:	ffffd097          	auipc	ra,0xffffd
ffffffff80004b2e:	8fa080e7          	jalr	-1798(ra) # ffffffff80001424 <spinlock_lock_debug>
ffffffff80004b32:	008ab503          	ld	a0,8(s5)
ffffffff80004b36:	6504                	ld	s1,8(a0)
ffffffff80004b38:	cc99                	beqz	s1,ffffffff80004b56 <dtb_prop_read_u64+0x76>
ffffffff80004b3a:	0004bb83          	ld	s7,0(s1)
ffffffff80004b3e:	000bb583          	ld	a1,0(s7)
ffffffff80004b42:	855a                	mv	a0,s6
ffffffff80004b44:	00002097          	auipc	ra,0x2
ffffffff80004b48:	e00080e7          	jalr	-512(ra) # ffffffff80006944 <strcmp>
ffffffff80004b4c:	c515                	beqz	a0,ffffffff80004b78 <dtb_prop_read_u64+0x98>
ffffffff80004b4e:	6884                	ld	s1,16(s1)
ffffffff80004b50:	f4ed                	bnez	s1,ffffffff80004b3a <dtb_prop_read_u64+0x5a>
ffffffff80004b52:	008ab503          	ld	a0,8(s5)
ffffffff80004b56:	0561                	addi	a0,a0,24
ffffffff80004b58:	ffffd097          	auipc	ra,0xffffd
ffffffff80004b5c:	670080e7          	jalr	1648(ra) # ffffffff800021c8 <spinlock_unlock>
ffffffff80004b60:	8552                	mv	a0,s4
ffffffff80004b62:	60a6                	ld	ra,72(sp)
ffffffff80004b64:	6406                	ld	s0,64(sp)
ffffffff80004b66:	74e2                	ld	s1,56(sp)
ffffffff80004b68:	7942                	ld	s2,48(sp)
ffffffff80004b6a:	79a2                	ld	s3,40(sp)
ffffffff80004b6c:	7a02                	ld	s4,32(sp)
ffffffff80004b6e:	6ae2                	ld	s5,24(sp)
ffffffff80004b70:	6b42                	ld	s6,16(sp)
ffffffff80004b72:	6ba2                	ld	s7,8(sp)
ffffffff80004b74:	6161                	addi	sp,sp,80
ffffffff80004b76:	8082                	ret
ffffffff80004b78:	008ab503          	ld	a0,8(s5)
ffffffff80004b7c:	0561                	addi	a0,a0,24
ffffffff80004b7e:	ffffd097          	auipc	ra,0xffffd
ffffffff80004b82:	64a080e7          	jalr	1610(ra) # ffffffff800021c8 <spinlock_unlock>
ffffffff80004b86:	010bb503          	ld	a0,16(s7)
ffffffff80004b8a:	00498593          	addi	a1,s3,4
ffffffff80004b8e:	fcb569e3          	bltu	a0,a1,ffffffff80004b60 <dtb_prop_read_u64+0x80>
ffffffff80004b92:	00090f63          	beqz	s2,ffffffff80004bb0 <dtb_prop_read_u64+0xd0>
ffffffff80004b96:	008bb503          	ld	a0,8(s7)
ffffffff80004b9a:	098a                	slli	s3,s3,0x2
ffffffff80004b9c:	954e                	add	a0,a0,s3
ffffffff80004b9e:	6108                	ld	a0,0(a0)
ffffffff80004ba0:	00003097          	auipc	ra,0x3
ffffffff80004ba4:	014080e7          	jalr	20(ra) # ffffffff80007bb4 <be64>
ffffffff80004ba8:	4a01                	li	s4,0
ffffffff80004baa:	00a93023          	sd	a0,0(s2)
ffffffff80004bae:	bf4d                	j	ffffffff80004b60 <dtb_prop_read_u64+0x80>
ffffffff80004bb0:	4a01                	li	s4,0
ffffffff80004bb2:	b77d                	j	ffffffff80004b60 <dtb_prop_read_u64+0x80>

ffffffff80004bb4 <dtb_prop_read_address_range>:
ffffffff80004bb4:	715d                	addi	sp,sp,-80
ffffffff80004bb6:	e486                	sd	ra,72(sp)
ffffffff80004bb8:	e0a2                	sd	s0,64(sp)
ffffffff80004bba:	fc26                	sd	s1,56(sp)
ffffffff80004bbc:	f84a                	sd	s2,48(sp)
ffffffff80004bbe:	f44e                	sd	s3,40(sp)
ffffffff80004bc0:	f052                	sd	s4,32(sp)
ffffffff80004bc2:	ec56                	sd	s5,24(sp)
ffffffff80004bc4:	e85a                	sd	s6,16(sp)
ffffffff80004bc6:	0880                	addi	s0,sp,80
ffffffff80004bc8:	893e                	mv	s2,a5
ffffffff80004bca:	84b2                	mv	s1,a2
ffffffff80004bcc:	c32d                	beqz	a4,ffffffff80004c2e <dtb_prop_read_address_range+0x7a>
ffffffff80004bce:	4609                	li	a2,2
ffffffff80004bd0:	04c48063          	beq	s1,a2,ffffffff80004c10 <dtb_prop_read_address_range+0x5c>
ffffffff80004bd4:	4605                	li	a2,1
ffffffff80004bd6:	00c48663          	beq	s1,a2,ffffffff80004be2 <dtb_prop_read_address_range+0x2e>
ffffffff80004bda:	e8b1                	bnez	s1,ffffffff80004c2e <dtb_prop_read_address_range+0x7a>
ffffffff80004bdc:	00073023          	sd	zero,0(a4)
ffffffff80004be0:	a0b9                	j	ffffffff80004c2e <dtb_prop_read_address_range+0x7a>
ffffffff80004be2:	8a3a                	mv	s4,a4
ffffffff80004be4:	89b6                	mv	s3,a3
ffffffff80004be6:	fa042e23          	sw	zero,-68(s0)
ffffffff80004bea:	fbc40613          	addi	a2,s0,-68
ffffffff80004bee:	8aaa                	mv	s5,a0
ffffffff80004bf0:	8b2e                	mv	s6,a1
ffffffff80004bf2:	4681                	li	a3,0
ffffffff80004bf4:	00000097          	auipc	ra,0x0
ffffffff80004bf8:	e18080e7          	jalr	-488(ra) # ffffffff80004a0c <dtb_prop_read_u32>
ffffffff80004bfc:	08054163          	bltz	a0,ffffffff80004c7e <dtb_prop_read_address_range+0xca>
ffffffff80004c00:	fbc46503          	lwu	a0,-68(s0)
ffffffff80004c04:	00aa3023          	sd	a0,0(s4)
ffffffff80004c08:	85da                	mv	a1,s6
ffffffff80004c0a:	8556                	mv	a0,s5
ffffffff80004c0c:	86ce                	mv	a3,s3
ffffffff80004c0e:	a005                	j	ffffffff80004c2e <dtb_prop_read_address_range+0x7a>
ffffffff80004c10:	89aa                	mv	s3,a0
ffffffff80004c12:	8a2e                	mv	s4,a1
ffffffff80004c14:	863a                	mv	a2,a4
ffffffff80004c16:	8ab6                	mv	s5,a3
ffffffff80004c18:	4681                	li	a3,0
ffffffff80004c1a:	00000097          	auipc	ra,0x0
ffffffff80004c1e:	ec6080e7          	jalr	-314(ra) # ffffffff80004ae0 <dtb_prop_read_u64>
ffffffff80004c22:	86d6                	mv	a3,s5
ffffffff80004c24:	85d2                	mv	a1,s4
ffffffff80004c26:	862a                	mv	a2,a0
ffffffff80004c28:	854e                	mv	a0,s3
ffffffff80004c2a:	04064a63          	bltz	a2,ffffffff80004c7e <dtb_prop_read_address_range+0xca>
ffffffff80004c2e:	04090663          	beqz	s2,ffffffff80004c7a <dtb_prop_read_address_range+0xc6>
ffffffff80004c32:	4609                	li	a2,2
ffffffff80004c34:	02c68b63          	beq	a3,a2,ffffffff80004c6a <dtb_prop_read_address_range+0xb6>
ffffffff80004c38:	4605                	li	a2,1
ffffffff80004c3a:	00c68763          	beq	a3,a2,ffffffff80004c48 <dtb_prop_read_address_range+0x94>
ffffffff80004c3e:	ee95                	bnez	a3,ffffffff80004c7a <dtb_prop_read_address_range+0xc6>
ffffffff80004c40:	00093023          	sd	zero,0(s2)
ffffffff80004c44:	4501                	li	a0,0
ffffffff80004c46:	a82d                	j	ffffffff80004c80 <dtb_prop_read_address_range+0xcc>
ffffffff80004c48:	fa042c23          	sw	zero,-72(s0)
ffffffff80004c4c:	fb840613          	addi	a2,s0,-72
ffffffff80004c50:	86a6                	mv	a3,s1
ffffffff80004c52:	00000097          	auipc	ra,0x0
ffffffff80004c56:	dba080e7          	jalr	-582(ra) # ffffffff80004a0c <dtb_prop_read_u32>
ffffffff80004c5a:	02054263          	bltz	a0,ffffffff80004c7e <dtb_prop_read_address_range+0xca>
ffffffff80004c5e:	fb846503          	lwu	a0,-72(s0)
ffffffff80004c62:	00a93023          	sd	a0,0(s2)
ffffffff80004c66:	4501                	li	a0,0
ffffffff80004c68:	a821                	j	ffffffff80004c80 <dtb_prop_read_address_range+0xcc>
ffffffff80004c6a:	864a                	mv	a2,s2
ffffffff80004c6c:	86a6                	mv	a3,s1
ffffffff80004c6e:	00000097          	auipc	ra,0x0
ffffffff80004c72:	e72080e7          	jalr	-398(ra) # ffffffff80004ae0 <dtb_prop_read_u64>
ffffffff80004c76:	00054463          	bltz	a0,ffffffff80004c7e <dtb_prop_read_address_range+0xca>
ffffffff80004c7a:	4501                	li	a0,0
ffffffff80004c7c:	a011                	j	ffffffff80004c80 <dtb_prop_read_address_range+0xcc>
ffffffff80004c7e:	557d                	li	a0,-1
ffffffff80004c80:	60a6                	ld	ra,72(sp)
ffffffff80004c82:	6406                	ld	s0,64(sp)
ffffffff80004c84:	74e2                	ld	s1,56(sp)
ffffffff80004c86:	7942                	ld	s2,48(sp)
ffffffff80004c88:	79a2                	ld	s3,40(sp)
ffffffff80004c8a:	7a02                	ld	s4,32(sp)
ffffffff80004c8c:	6ae2                	ld	s5,24(sp)
ffffffff80004c8e:	6b42                	ld	s6,16(sp)
ffffffff80004c90:	6161                	addi	sp,sp,80
ffffffff80004c92:	8082                	ret

ffffffff80004c94 <dtb_prop_read_string>:
ffffffff80004c94:	8000a637          	lui	a2,0x8000a
ffffffff80004c98:	09863603          	ld	a2,152(a2) # ffffffff8000a098 <DTBNodes>
ffffffff80004c9c:	ca25                	beqz	a2,ffffffff80004d0c <dtb_prop_read_string+0x78>
ffffffff80004c9e:	7179                	addi	sp,sp,-48
ffffffff80004ca0:	f406                	sd	ra,40(sp)
ffffffff80004ca2:	f022                	sd	s0,32(sp)
ffffffff80004ca4:	ec26                	sd	s1,24(sp)
ffffffff80004ca6:	e84a                	sd	s2,16(sp)
ffffffff80004ca8:	e44e                	sd	s3,8(sp)
ffffffff80004caa:	e052                	sd	s4,0(sp)
ffffffff80004cac:	1800                	addi	s0,sp,48
ffffffff80004cae:	89ae                	mv	s3,a1
ffffffff80004cb0:	892a                	mv	s2,a0
ffffffff80004cb2:	6508                	ld	a0,8(a0)
ffffffff80004cb4:	0561                	addi	a0,a0,24
ffffffff80004cb6:	800085b7          	lui	a1,0x80008
ffffffff80004cba:	70558593          	addi	a1,a1,1797 # ffffffff80008705 <$d.2>
ffffffff80004cbe:	80008637          	lui	a2,0x80008
ffffffff80004cc2:	28660613          	addi	a2,a2,646 # ffffffff80008286 <$d.2+0x160>
ffffffff80004cc6:	800086b7          	lui	a3,0x80008
ffffffff80004cca:	0c668693          	addi	a3,a3,198 # ffffffff800080c6 <$d.3+0x82>
ffffffff80004cce:	09b00713          	li	a4,155
ffffffff80004cd2:	ffffc097          	auipc	ra,0xffffc
ffffffff80004cd6:	752080e7          	jalr	1874(ra) # ffffffff80001424 <spinlock_lock_debug>
ffffffff80004cda:	00893503          	ld	a0,8(s2)
ffffffff80004cde:	6504                	ld	s1,8(a0)
ffffffff80004ce0:	cc99                	beqz	s1,ffffffff80004cfe <dtb_prop_read_string+0x6a>
ffffffff80004ce2:	0004ba03          	ld	s4,0(s1)
ffffffff80004ce6:	000a3583          	ld	a1,0(s4)
ffffffff80004cea:	854e                	mv	a0,s3
ffffffff80004cec:	00002097          	auipc	ra,0x2
ffffffff80004cf0:	c58080e7          	jalr	-936(ra) # ffffffff80006944 <strcmp>
ffffffff80004cf4:	cd11                	beqz	a0,ffffffff80004d10 <dtb_prop_read_string+0x7c>
ffffffff80004cf6:	6884                	ld	s1,16(s1)
ffffffff80004cf8:	f4ed                	bnez	s1,ffffffff80004ce2 <dtb_prop_read_string+0x4e>
ffffffff80004cfa:	00893503          	ld	a0,8(s2)
ffffffff80004cfe:	0561                	addi	a0,a0,24
ffffffff80004d00:	ffffd097          	auipc	ra,0xffffd
ffffffff80004d04:	4c8080e7          	jalr	1224(ra) # ffffffff800021c8 <spinlock_unlock>
ffffffff80004d08:	4501                	li	a0,0
ffffffff80004d0a:	a821                	j	ffffffff80004d22 <dtb_prop_read_string+0x8e>
ffffffff80004d0c:	4501                	li	a0,0
ffffffff80004d0e:	8082                	ret
ffffffff80004d10:	00893503          	ld	a0,8(s2)
ffffffff80004d14:	0561                	addi	a0,a0,24
ffffffff80004d16:	ffffd097          	auipc	ra,0xffffd
ffffffff80004d1a:	4b2080e7          	jalr	1202(ra) # ffffffff800021c8 <spinlock_unlock>
ffffffff80004d1e:	008a3503          	ld	a0,8(s4)
ffffffff80004d22:	70a2                	ld	ra,40(sp)
ffffffff80004d24:	7402                	ld	s0,32(sp)
ffffffff80004d26:	64e2                	ld	s1,24(sp)
ffffffff80004d28:	6942                	ld	s2,16(sp)
ffffffff80004d2a:	69a2                	ld	s3,8(sp)
ffffffff80004d2c:	6a02                	ld	s4,0(sp)
ffffffff80004d2e:	6145                	addi	sp,sp,48
ffffffff80004d30:	8082                	ret

ffffffff80004d32 <dtb_prop_read_stringlist>:
ffffffff80004d32:	7139                	addi	sp,sp,-64
ffffffff80004d34:	fc06                	sd	ra,56(sp)
ffffffff80004d36:	f822                	sd	s0,48(sp)
ffffffff80004d38:	f426                	sd	s1,40(sp)
ffffffff80004d3a:	f04a                	sd	s2,32(sp)
ffffffff80004d3c:	ec4e                	sd	s3,24(sp)
ffffffff80004d3e:	e852                	sd	s4,16(sp)
ffffffff80004d40:	e456                	sd	s5,8(sp)
ffffffff80004d42:	0080                	addi	s0,sp,64
ffffffff80004d44:	8000a6b7          	lui	a3,0x8000a
ffffffff80004d48:	0986b683          	ld	a3,152(a3) # ffffffff8000a098 <DTBNodes>
ffffffff80004d4c:	ceb9                	beqz	a3,ffffffff80004daa <dtb_prop_read_stringlist+0x78>
ffffffff80004d4e:	8a2e                	mv	s4,a1
ffffffff80004d50:	892a                	mv	s2,a0
ffffffff80004d52:	89b2                	mv	s3,a2
ffffffff80004d54:	6508                	ld	a0,8(a0)
ffffffff80004d56:	0561                	addi	a0,a0,24
ffffffff80004d58:	800085b7          	lui	a1,0x80008
ffffffff80004d5c:	70558593          	addi	a1,a1,1797 # ffffffff80008705 <$d.2>
ffffffff80004d60:	80008637          	lui	a2,0x80008
ffffffff80004d64:	3ab60613          	addi	a2,a2,939 # ffffffff800083ab <$d.2+0x33>
ffffffff80004d68:	800086b7          	lui	a3,0x80008
ffffffff80004d6c:	0c668693          	addi	a3,a3,198 # ffffffff800080c6 <$d.3+0x82>
ffffffff80004d70:	0af00713          	li	a4,175
ffffffff80004d74:	ffffc097          	auipc	ra,0xffffc
ffffffff80004d78:	6b0080e7          	jalr	1712(ra) # ffffffff80001424 <spinlock_lock_debug>
ffffffff80004d7c:	00893503          	ld	a0,8(s2)
ffffffff80004d80:	6504                	ld	s1,8(a0)
ffffffff80004d82:	cc99                	beqz	s1,ffffffff80004da0 <dtb_prop_read_stringlist+0x6e>
ffffffff80004d84:	0004ba83          	ld	s5,0(s1)
ffffffff80004d88:	000ab583          	ld	a1,0(s5)
ffffffff80004d8c:	8552                	mv	a0,s4
ffffffff80004d8e:	00002097          	auipc	ra,0x2
ffffffff80004d92:	bb6080e7          	jalr	-1098(ra) # ffffffff80006944 <strcmp>
ffffffff80004d96:	c50d                	beqz	a0,ffffffff80004dc0 <dtb_prop_read_stringlist+0x8e>
ffffffff80004d98:	6884                	ld	s1,16(s1)
ffffffff80004d9a:	f4ed                	bnez	s1,ffffffff80004d84 <dtb_prop_read_stringlist+0x52>
ffffffff80004d9c:	00893503          	ld	a0,8(s2)
ffffffff80004da0:	0561                	addi	a0,a0,24
ffffffff80004da2:	ffffd097          	auipc	ra,0xffffd
ffffffff80004da6:	426080e7          	jalr	1062(ra) # ffffffff800021c8 <spinlock_unlock>
ffffffff80004daa:	4901                	li	s2,0
ffffffff80004dac:	854a                	mv	a0,s2
ffffffff80004dae:	70e2                	ld	ra,56(sp)
ffffffff80004db0:	7442                	ld	s0,48(sp)
ffffffff80004db2:	74a2                	ld	s1,40(sp)
ffffffff80004db4:	7902                	ld	s2,32(sp)
ffffffff80004db6:	69e2                	ld	s3,24(sp)
ffffffff80004db8:	6a42                	ld	s4,16(sp)
ffffffff80004dba:	6aa2                	ld	s5,8(sp)
ffffffff80004dbc:	6121                	addi	sp,sp,64
ffffffff80004dbe:	8082                	ret
ffffffff80004dc0:	00893503          	ld	a0,8(s2)
ffffffff80004dc4:	0561                	addi	a0,a0,24
ffffffff80004dc6:	ffffd097          	auipc	ra,0xffffd
ffffffff80004dca:	402080e7          	jalr	1026(ra) # ffffffff800021c8 <spinlock_unlock>
ffffffff80004dce:	010ab503          	ld	a0,16(s5)
ffffffff80004dd2:	dd61                	beqz	a0,ffffffff80004daa <dtb_prop_read_stringlist+0x78>
ffffffff80004dd4:	008ab903          	ld	s2,8(s5)
ffffffff80004dd8:	0985                	addi	s3,s3,1
ffffffff80004dda:	39fd                	addiw	s3,s3,-1
ffffffff80004ddc:	fc0988e3          	beqz	s3,ffffffff80004dac <dtb_prop_read_stringlist+0x7a>
ffffffff80004de0:	854a                	mv	a0,s2
ffffffff80004de2:	00002097          	auipc	ra,0x2
ffffffff80004de6:	bdc080e7          	jalr	-1060(ra) # ffffffff800069be <strlen>
ffffffff80004dea:	008ab583          	ld	a1,8(s5)
ffffffff80004dee:	010ab603          	ld	a2,16(s5)
ffffffff80004df2:	954a                	add	a0,a0,s2
ffffffff80004df4:	00150913          	addi	s2,a0,1
ffffffff80004df8:	40b90533          	sub	a0,s2,a1
ffffffff80004dfc:	fcc56fe3          	bltu	a0,a2,ffffffff80004dda <dtb_prop_read_stringlist+0xa8>
ffffffff80004e00:	b76d                	j	ffffffff80004daa <dtb_prop_read_stringlist+0x78>

ffffffff80004e02 <dtb_init>:
ffffffff80004e02:	7159                	addi	sp,sp,-112
ffffffff80004e04:	f486                	sd	ra,104(sp)
ffffffff80004e06:	f0a2                	sd	s0,96(sp)
ffffffff80004e08:	eca6                	sd	s1,88(sp)
ffffffff80004e0a:	e8ca                	sd	s2,80(sp)
ffffffff80004e0c:	e4ce                	sd	s3,72(sp)
ffffffff80004e0e:	e0d2                	sd	s4,64(sp)
ffffffff80004e10:	fc56                	sd	s5,56(sp)
ffffffff80004e12:	f85a                	sd	s6,48(sp)
ffffffff80004e14:	f45e                	sd	s7,40(sp)
ffffffff80004e16:	f062                	sd	s8,32(sp)
ffffffff80004e18:	ec66                	sd	s9,24(sp)
ffffffff80004e1a:	e86a                	sd	s10,16(sp)
ffffffff80004e1c:	e46e                	sd	s11,8(sp)
ffffffff80004e1e:	1880                	addi	s0,sp,112
ffffffff80004e20:	8aaa                	mv	s5,a0
ffffffff80004e22:	4108                	lw	a0,0(a0)
ffffffff80004e24:	00003097          	auipc	ra,0x3
ffffffff80004e28:	d62080e7          	jalr	-670(ra) # ffffffff80007b86 <be32>
ffffffff80004e2c:	d00e05b7          	lui	a1,0xd00e0
ffffffff80004e30:	eed5859b          	addiw	a1,a1,-275 # ffffffffd00dfeed <ActiveTasks+0x4fbcf6c5>
ffffffff80004e34:	54fd                	li	s1,-1
ffffffff80004e36:	1cb51263          	bne	a0,a1,ffffffff80004ffa <dtb_init+0x1f8>
ffffffff80004e3a:	018aa503          	lw	a0,24(s5)
ffffffff80004e3e:	00003097          	auipc	ra,0x3
ffffffff80004e42:	d48080e7          	jalr	-696(ra) # ffffffff80007b86 <be32>
ffffffff80004e46:	45c5                	li	a1,17
ffffffff80004e48:	1aa5e963          	bltu	a1,a0,ffffffff80004ffa <dtb_init+0x1f8>
ffffffff80004e4c:	00001097          	auipc	ra,0x1
ffffffff80004e50:	8cc080e7          	jalr	-1844(ra) # ffffffff80005718 <gentree_create>
ffffffff80004e54:	008aa583          	lw	a1,8(s5)
ffffffff80004e58:	8000a637          	lui	a2,0x8000a
ffffffff80004e5c:	08a63c23          	sd	a0,152(a2) # ffffffff8000a098 <DTBNodes>
ffffffff80004e60:	852e                	mv	a0,a1
ffffffff80004e62:	00003097          	auipc	ra,0x3
ffffffff80004e66:	d24080e7          	jalr	-732(ra) # ffffffff80007b86 <be32>
ffffffff80004e6a:	024aa583          	lw	a1,36(s5)
ffffffff80004e6e:	18058563          	beqz	a1,ffffffff80004ff8 <dtb_init+0x1f6>
ffffffff80004e72:	4481                	li	s1,0
ffffffff80004e74:	4d81                	li	s11,0
ffffffff80004e76:	4d01                	li	s10,0
ffffffff80004e78:	1502                	slli	a0,a0,0x20
ffffffff80004e7a:	9101                	srli	a0,a0,0x20
ffffffff80004e7c:	01550933          	add	s2,a0,s5
ffffffff80004e80:	4b89                	li	s7,2
ffffffff80004e82:	4c05                	li	s8,1
ffffffff80004e84:	4c8d                	li	s9,3
ffffffff80004e86:	a0d1                	j	ffffffff80004f4a <dtb_init+0x148>
ffffffff80004e88:	15951463          	bne	a0,s9,ffffffff80004fd0 <dtb_init+0x1ce>
ffffffff80004e8c:	00492503          	lw	a0,4(s2)
ffffffff80004e90:	00003097          	auipc	ra,0x3
ffffffff80004e94:	cf6080e7          	jalr	-778(ra) # ffffffff80007b86 <be32>
ffffffff80004e98:	1502                	slli	a0,a0,0x20
ffffffff80004e9a:	9101                	srli	a0,a0,0x20
ffffffff80004e9c:	00c50993          	addi	s3,a0,12
ffffffff80004ea0:	4561                	li	a0,24
ffffffff80004ea2:	ffffe097          	auipc	ra,0xffffe
ffffffff80004ea6:	cd8080e7          	jalr	-808(ra) # ffffffff80002b7a <kmalloc>
ffffffff80004eaa:	00892583          	lw	a1,8(s2)
ffffffff80004eae:	8a2a                	mv	s4,a0
ffffffff80004eb0:	852e                	mv	a0,a1
ffffffff80004eb2:	00003097          	auipc	ra,0x3
ffffffff80004eb6:	cd4080e7          	jalr	-812(ra) # ffffffff80007b86 <be32>
ffffffff80004eba:	00caa583          	lw	a1,12(s5)
ffffffff80004ebe:	8b2a                	mv	s6,a0
ffffffff80004ec0:	852e                	mv	a0,a1
ffffffff80004ec2:	00003097          	auipc	ra,0x3
ffffffff80004ec6:	cc4080e7          	jalr	-828(ra) # ffffffff80007b86 <be32>
ffffffff80004eca:	1502                	slli	a0,a0,0x20
ffffffff80004ecc:	9101                	srli	a0,a0,0x20
ffffffff80004ece:	1b02                	slli	s6,s6,0x20
ffffffff80004ed0:	020b5593          	srli	a1,s6,0x20
ffffffff80004ed4:	95d6                	add	a1,a1,s5
ffffffff80004ed6:	952e                	add	a0,a0,a1
ffffffff80004ed8:	00002097          	auipc	ra,0x2
ffffffff80004edc:	b0e080e7          	jalr	-1266(ra) # ffffffff800069e6 <strdup>
ffffffff80004ee0:	00492583          	lw	a1,4(s2)
ffffffff80004ee4:	00aa3023          	sd	a0,0(s4)
ffffffff80004ee8:	852e                	mv	a0,a1
ffffffff80004eea:	00003097          	auipc	ra,0x3
ffffffff80004eee:	c9c080e7          	jalr	-868(ra) # ffffffff80007b86 <be32>
ffffffff80004ef2:	1502                	slli	a0,a0,0x20
ffffffff80004ef4:	9101                	srli	a0,a0,0x20
ffffffff80004ef6:	00aa3823          	sd	a0,16(s4)
ffffffff80004efa:	ffffe097          	auipc	ra,0xffffe
ffffffff80004efe:	c80080e7          	jalr	-896(ra) # ffffffff80002b7a <kmalloc>
ffffffff80004f02:	010a3603          	ld	a2,16(s4)
ffffffff80004f06:	00aa3423          	sd	a0,8(s4)
ffffffff80004f0a:	00c90593          	addi	a1,s2,12
ffffffff80004f0e:	00002097          	auipc	ra,0x2
ffffffff80004f12:	982080e7          	jalr	-1662(ra) # ffffffff80006890 <memcpy>
ffffffff80004f16:	008d3503          	ld	a0,8(s10)
ffffffff80004f1a:	85d2                	mv	a1,s4
ffffffff80004f1c:	00000097          	auipc	ra,0x0
ffffffff80004f20:	23e080e7          	jalr	574(ra) # ffffffff8000515a <list_push_back>
ffffffff80004f24:	008aa503          	lw	a0,8(s5)
ffffffff80004f28:	098d                	addi	s3,s3,3
ffffffff80004f2a:	ffc9f593          	andi	a1,s3,-4
ffffffff80004f2e:	94ae                	add	s1,s1,a1
ffffffff80004f30:	00003097          	auipc	ra,0x3
ffffffff80004f34:	c56080e7          	jalr	-938(ra) # ffffffff80007b86 <be32>
ffffffff80004f38:	024ae583          	lwu	a1,36(s5)
ffffffff80004f3c:	1502                	slli	a0,a0,0x20
ffffffff80004f3e:	9101                	srli	a0,a0,0x20
ffffffff80004f40:	01548933          	add	s2,s1,s5
ffffffff80004f44:	992a                	add	s2,s2,a0
ffffffff80004f46:	0ab4f963          	bgeu	s1,a1,ffffffff80004ff8 <dtb_init+0x1f6>
ffffffff80004f4a:	00092503          	lw	a0,0(s2)
ffffffff80004f4e:	00003097          	auipc	ra,0x3
ffffffff80004f52:	c38080e7          	jalr	-968(ra) # ffffffff80007b86 <be32>
ffffffff80004f56:	4991                	li	s3,4
ffffffff80004f58:	f2abc8e3          	blt	s7,a0,ffffffff80004e88 <dtb_init+0x86>
ffffffff80004f5c:	03850563          	beq	a0,s8,ffffffff80004f86 <dtb_init+0x184>
ffffffff80004f60:	fd7512e3          	bne	a0,s7,ffffffff80004f24 <dtb_init+0x122>
ffffffff80004f64:	018d2503          	lw	a0,24(s10)
ffffffff80004f68:	fd55                	bnez	a0,ffffffff80004f24 <dtb_init+0x122>
ffffffff80004f6a:	8000a537          	lui	a0,0x8000a
ffffffff80004f6e:	09853503          	ld	a0,152(a0) # ffffffff8000a098 <DTBNodes>
ffffffff80004f72:	010d3583          	ld	a1,16(s10)
ffffffff80004f76:	4601                	li	a2,0
ffffffff80004f78:	00001097          	auipc	ra,0x1
ffffffff80004f7c:	9dc080e7          	jalr	-1572(ra) # ffffffff80005954 <gentree_get_parent>
ffffffff80004f80:	00053d03          	ld	s10,0(a0)
ffffffff80004f84:	b745                	j	ffffffff80004f24 <dtb_init+0x122>
ffffffff80004f86:	00490a13          	addi	s4,s2,4
ffffffff80004f8a:	8552                	mv	a0,s4
ffffffff80004f8c:	00002097          	auipc	ra,0x2
ffffffff80004f90:	a32080e7          	jalr	-1486(ra) # ffffffff800069be <strlen>
ffffffff80004f94:	89aa                	mv	s3,a0
ffffffff80004f96:	02000513          	li	a0,32
ffffffff80004f9a:	ffffe097          	auipc	ra,0xffffe
ffffffff80004f9e:	be0080e7          	jalr	-1056(ra) # ffffffff80002b7a <kmalloc>
ffffffff80004fa2:	8b2a                	mv	s6,a0
ffffffff80004fa4:	00000097          	auipc	ra,0x0
ffffffff80004fa8:	076080e7          	jalr	118(ra) # ffffffff8000501a <list_create>
ffffffff80004fac:	00ab3423          	sd	a0,8(s6)
ffffffff80004fb0:	8552                	mv	a0,s4
ffffffff80004fb2:	00002097          	auipc	ra,0x2
ffffffff80004fb6:	a34080e7          	jalr	-1484(ra) # ffffffff800069e6 <strdup>
ffffffff80004fba:	00ab3023          	sd	a0,0(s6)
ffffffff80004fbe:	001db513          	seqz	a0,s11
ffffffff80004fc2:	00ab2c23          	sw	a0,24(s6)
ffffffff80004fc6:	000d0963          	beqz	s10,ffffffff80004fd8 <dtb_init+0x1d6>
ffffffff80004fca:	010d3583          	ld	a1,16(s10)
ffffffff80004fce:	a031                	j	ffffffff80004fda <dtb_init+0x1d8>
ffffffff80004fd0:	45a5                	li	a1,9
ffffffff80004fd2:	f4b519e3          	bne	a0,a1,ffffffff80004f24 <dtb_init+0x122>
ffffffff80004fd6:	a00d                	j	ffffffff80004ff8 <dtb_init+0x1f6>
ffffffff80004fd8:	4581                	li	a1,0
ffffffff80004fda:	8000a537          	lui	a0,0x8000a
ffffffff80004fde:	09853503          	ld	a0,152(a0) # ffffffff8000a098 <DTBNodes>
ffffffff80004fe2:	0995                	addi	s3,s3,5
ffffffff80004fe4:	865a                	mv	a2,s6
ffffffff80004fe6:	00001097          	auipc	ra,0x1
ffffffff80004fea:	828080e7          	jalr	-2008(ra) # ffffffff8000580e <gentree_insert>
ffffffff80004fee:	00ab3823          	sd	a0,16(s6)
ffffffff80004ff2:	4d85                	li	s11,1
ffffffff80004ff4:	8d5a                	mv	s10,s6
ffffffff80004ff6:	b73d                	j	ffffffff80004f24 <dtb_init+0x122>
ffffffff80004ff8:	4481                	li	s1,0
ffffffff80004ffa:	8526                	mv	a0,s1
ffffffff80004ffc:	70a6                	ld	ra,104(sp)
ffffffff80004ffe:	7406                	ld	s0,96(sp)
ffffffff80005000:	64e6                	ld	s1,88(sp)
ffffffff80005002:	6946                	ld	s2,80(sp)
ffffffff80005004:	69a6                	ld	s3,72(sp)
ffffffff80005006:	6a06                	ld	s4,64(sp)
ffffffff80005008:	7ae2                	ld	s5,56(sp)
ffffffff8000500a:	7b42                	ld	s6,48(sp)
ffffffff8000500c:	7ba2                	ld	s7,40(sp)
ffffffff8000500e:	7c02                	ld	s8,32(sp)
ffffffff80005010:	6ce2                	ld	s9,24(sp)
ffffffff80005012:	6d42                	ld	s10,16(sp)
ffffffff80005014:	6da2                	ld	s11,8(sp)
ffffffff80005016:	6165                	addi	sp,sp,112
ffffffff80005018:	8082                	ret

ffffffff8000501a <list_create>:
ffffffff8000501a:	715d                	addi	sp,sp,-80
ffffffff8000501c:	e486                	sd	ra,72(sp)
ffffffff8000501e:	e0a2                	sd	s0,64(sp)
ffffffff80005020:	0880                	addi	s0,sp,80
ffffffff80005022:	04000513          	li	a0,64
ffffffff80005026:	ffffe097          	auipc	ra,0xffffe
ffffffff8000502a:	b54080e7          	jalr	-1196(ra) # ffffffff80002b7a <kmalloc>
ffffffff8000502e:	00053423          	sd	zero,8(a0)
ffffffff80005032:	00053823          	sd	zero,16(a0)
ffffffff80005036:	00053023          	sd	zero,0(a0)
ffffffff8000503a:	fe042423          	sw	zero,-24(s0)
ffffffff8000503e:	800085b7          	lui	a1,0x80008
ffffffff80005042:	50f58593          	addi	a1,a1,1295 # ffffffff8000850f <$d.1>
ffffffff80005046:	fcb43c23          	sd	a1,-40(s0)
ffffffff8000504a:	fcb43823          	sd	a1,-48(s0)
ffffffff8000504e:	fc042423          	sw	zero,-56(s0)
ffffffff80005052:	55fd                	li	a1,-1
ffffffff80005054:	fab43c23          	sd	a1,-72(s0)
ffffffff80005058:	fe842583          	lw	a1,-24(s0)
ffffffff8000505c:	cd0c                	sw	a1,24(a0)
ffffffff8000505e:	fe442583          	lw	a1,-28(s0)
ffffffff80005062:	cd4c                	sw	a1,28(a0)
ffffffff80005064:	fd843583          	ld	a1,-40(s0)
ffffffff80005068:	f10c                	sd	a1,32(a0)
ffffffff8000506a:	fd043583          	ld	a1,-48(s0)
ffffffff8000506e:	f50c                	sd	a1,40(a0)
ffffffff80005070:	fc842583          	lw	a1,-56(s0)
ffffffff80005074:	d90c                	sw	a1,48(a0)
ffffffff80005076:	fc442583          	lw	a1,-60(s0)
ffffffff8000507a:	d94c                	sw	a1,52(a0)
ffffffff8000507c:	fb843583          	ld	a1,-72(s0)
ffffffff80005080:	fd0c                	sd	a1,56(a0)
ffffffff80005082:	60a6                	ld	ra,72(sp)
ffffffff80005084:	6406                	ld	s0,64(sp)
ffffffff80005086:	6161                	addi	sp,sp,80
ffffffff80005088:	8082                	ret

ffffffff8000508a <list_destroy>:
ffffffff8000508a:	1101                	addi	sp,sp,-32
ffffffff8000508c:	ec06                	sd	ra,24(sp)
ffffffff8000508e:	e822                	sd	s0,16(sp)
ffffffff80005090:	e426                	sd	s1,8(sp)
ffffffff80005092:	e04a                	sd	s2,0(sp)
ffffffff80005094:	1000                	addi	s0,sp,32
ffffffff80005096:	892a                	mv	s2,a0
ffffffff80005098:	6508                	ld	a0,8(a0)
ffffffff8000509a:	c901                	beqz	a0,ffffffff800050aa <list_destroy+0x20>
ffffffff8000509c:	6904                	ld	s1,16(a0)
ffffffff8000509e:	ffffe097          	auipc	ra,0xffffe
ffffffff800050a2:	b94080e7          	jalr	-1132(ra) # ffffffff80002c32 <kfree>
ffffffff800050a6:	8526                	mv	a0,s1
ffffffff800050a8:	f8f5                	bnez	s1,ffffffff8000509c <list_destroy+0x12>
ffffffff800050aa:	854a                	mv	a0,s2
ffffffff800050ac:	60e2                	ld	ra,24(sp)
ffffffff800050ae:	6442                	ld	s0,16(sp)
ffffffff800050b0:	64a2                	ld	s1,8(sp)
ffffffff800050b2:	6902                	ld	s2,0(sp)
ffffffff800050b4:	6105                	addi	sp,sp,32
ffffffff800050b6:	ffffe317          	auipc	t1,0xffffe
ffffffff800050ba:	b7c30067          	jr	-1156(t1) # ffffffff80002c32 <kfree>

ffffffff800050be <list_destroy_node>:
ffffffff800050be:	1141                	addi	sp,sp,-16
ffffffff800050c0:	e406                	sd	ra,8(sp)
ffffffff800050c2:	e022                	sd	s0,0(sp)
ffffffff800050c4:	0800                	addi	s0,sp,16
ffffffff800050c6:	60a2                	ld	ra,8(sp)
ffffffff800050c8:	6402                	ld	s0,0(sp)
ffffffff800050ca:	0141                	addi	sp,sp,16
ffffffff800050cc:	ffffe317          	auipc	t1,0xffffe
ffffffff800050d0:	b6630067          	jr	-1178(t1) # ffffffff80002c32 <kfree>

ffffffff800050d4 <list_push_before>:
ffffffff800050d4:	7179                	addi	sp,sp,-48
ffffffff800050d6:	f406                	sd	ra,40(sp)
ffffffff800050d8:	f022                	sd	s0,32(sp)
ffffffff800050da:	ec26                	sd	s1,24(sp)
ffffffff800050dc:	e84a                	sd	s2,16(sp)
ffffffff800050de:	e44e                	sd	s3,8(sp)
ffffffff800050e0:	e052                	sd	s4,0(sp)
ffffffff800050e2:	1800                	addi	s0,sp,48
ffffffff800050e4:	8a32                	mv	s4,a2
ffffffff800050e6:	89ae                	mv	s3,a1
ffffffff800050e8:	84aa                	mv	s1,a0
ffffffff800050ea:	01850913          	addi	s2,a0,24
ffffffff800050ee:	80008537          	lui	a0,0x80008
ffffffff800050f2:	1af50593          	addi	a1,a0,431 # ffffffff800081af <$d.2+0x89>
ffffffff800050f6:	80008537          	lui	a0,0x80008
ffffffff800050fa:	25d50613          	addi	a2,a0,605 # ffffffff8000825d <$d.2+0x137>
ffffffff800050fe:	80008537          	lui	a0,0x80008
ffffffff80005102:	3e450693          	addi	a3,a0,996 # ffffffff800083e4 <$d.2+0x6c>
ffffffff80005106:	4779                	li	a4,30
ffffffff80005108:	854a                	mv	a0,s2
ffffffff8000510a:	ffffc097          	auipc	ra,0xffffc
ffffffff8000510e:	31a080e7          	jalr	794(ra) # ffffffff80001424 <spinlock_lock_debug>
ffffffff80005112:	4561                	li	a0,24
ffffffff80005114:	ffffe097          	auipc	ra,0xffffe
ffffffff80005118:	a66080e7          	jalr	-1434(ra) # ffffffff80002b7a <kmalloc>
ffffffff8000511c:	688c                	ld	a1,16(s1)
ffffffff8000511e:	01453023          	sd	s4,0(a0)
ffffffff80005122:	e50c                	sd	a1,8(a0)
ffffffff80005124:	01353823          	sd	s3,16(a0)
ffffffff80005128:	01359563          	bne	a1,s3,ffffffff80005132 <list_push_before+0x5e>
ffffffff8000512c:	00053423          	sd	zero,8(a0)
ffffffff80005130:	e888                	sd	a0,16(s1)
ffffffff80005132:	608c                	ld	a1,0(s1)
ffffffff80005134:	00a9b423          	sd	a0,8(s3)
ffffffff80005138:	0585                	addi	a1,a1,1
ffffffff8000513a:	e08c                	sd	a1,0(s1)
ffffffff8000513c:	84aa                	mv	s1,a0
ffffffff8000513e:	854a                	mv	a0,s2
ffffffff80005140:	ffffd097          	auipc	ra,0xffffd
ffffffff80005144:	088080e7          	jalr	136(ra) # ffffffff800021c8 <spinlock_unlock>
ffffffff80005148:	8526                	mv	a0,s1
ffffffff8000514a:	70a2                	ld	ra,40(sp)
ffffffff8000514c:	7402                	ld	s0,32(sp)
ffffffff8000514e:	64e2                	ld	s1,24(sp)
ffffffff80005150:	6942                	ld	s2,16(sp)
ffffffff80005152:	69a2                	ld	s3,8(sp)
ffffffff80005154:	6a02                	ld	s4,0(sp)
ffffffff80005156:	6145                	addi	sp,sp,48
ffffffff80005158:	8082                	ret

ffffffff8000515a <list_push_back>:
ffffffff8000515a:	7179                	addi	sp,sp,-48
ffffffff8000515c:	f406                	sd	ra,40(sp)
ffffffff8000515e:	f022                	sd	s0,32(sp)
ffffffff80005160:	ec26                	sd	s1,24(sp)
ffffffff80005162:	e84a                	sd	s2,16(sp)
ffffffff80005164:	e44e                	sd	s3,8(sp)
ffffffff80005166:	e052                	sd	s4,0(sp)
ffffffff80005168:	1800                	addi	s0,sp,48
ffffffff8000516a:	8a2e                	mv	s4,a1
ffffffff8000516c:	89aa                	mv	s3,a0
ffffffff8000516e:	01850913          	addi	s2,a0,24
ffffffff80005172:	80008537          	lui	a0,0x80008
ffffffff80005176:	1af50593          	addi	a1,a0,431 # ffffffff800081af <$d.2+0x89>
ffffffff8000517a:	80008537          	lui	a0,0x80008
ffffffff8000517e:	75a50613          	addi	a2,a0,1882 # ffffffff8000875a <$d.2+0x55>
ffffffff80005182:	80008537          	lui	a0,0x80008
ffffffff80005186:	3e450693          	addi	a3,a0,996 # ffffffff800083e4 <$d.2+0x6c>
ffffffff8000518a:	03400713          	li	a4,52
ffffffff8000518e:	854a                	mv	a0,s2
ffffffff80005190:	ffffc097          	auipc	ra,0xffffc
ffffffff80005194:	294080e7          	jalr	660(ra) # ffffffff80001424 <spinlock_lock_debug>
ffffffff80005198:	4561                	li	a0,24
ffffffff8000519a:	ffffe097          	auipc	ra,0xffffe
ffffffff8000519e:	9e0080e7          	jalr	-1568(ra) # ffffffff80002b7a <kmalloc>
ffffffff800051a2:	0109b583          	ld	a1,16(s3)
ffffffff800051a6:	84aa                	mv	s1,a0
ffffffff800051a8:	01453023          	sd	s4,0(a0)
ffffffff800051ac:	e50c                	sd	a1,8(a0)
ffffffff800051ae:	00053823          	sd	zero,16(a0)
ffffffff800051b2:	c191                	beqz	a1,ffffffff800051b6 <list_push_back+0x5c>
ffffffff800051b4:	e984                	sd	s1,16(a1)
ffffffff800051b6:	0089b503          	ld	a0,8(s3)
ffffffff800051ba:	0099b823          	sd	s1,16(s3)
ffffffff800051be:	e119                	bnez	a0,ffffffff800051c4 <list_push_back+0x6a>
ffffffff800051c0:	0099b423          	sd	s1,8(s3)
ffffffff800051c4:	0009b503          	ld	a0,0(s3)
ffffffff800051c8:	0505                	addi	a0,a0,1
ffffffff800051ca:	00a9b023          	sd	a0,0(s3)
ffffffff800051ce:	854a                	mv	a0,s2
ffffffff800051d0:	ffffd097          	auipc	ra,0xffffd
ffffffff800051d4:	ff8080e7          	jalr	-8(ra) # ffffffff800021c8 <spinlock_unlock>
ffffffff800051d8:	8526                	mv	a0,s1
ffffffff800051da:	70a2                	ld	ra,40(sp)
ffffffff800051dc:	7402                	ld	s0,32(sp)
ffffffff800051de:	64e2                	ld	s1,24(sp)
ffffffff800051e0:	6942                	ld	s2,16(sp)
ffffffff800051e2:	69a2                	ld	s3,8(sp)
ffffffff800051e4:	6a02                	ld	s4,0(sp)
ffffffff800051e6:	6145                	addi	sp,sp,48
ffffffff800051e8:	8082                	ret

ffffffff800051ea <list_push_front>:
ffffffff800051ea:	7179                	addi	sp,sp,-48
ffffffff800051ec:	f406                	sd	ra,40(sp)
ffffffff800051ee:	f022                	sd	s0,32(sp)
ffffffff800051f0:	ec26                	sd	s1,24(sp)
ffffffff800051f2:	e84a                	sd	s2,16(sp)
ffffffff800051f4:	e44e                	sd	s3,8(sp)
ffffffff800051f6:	1800                	addi	s0,sp,48
ffffffff800051f8:	89ae                	mv	s3,a1
ffffffff800051fa:	84aa                	mv	s1,a0
ffffffff800051fc:	01850913          	addi	s2,a0,24
ffffffff80005200:	80008537          	lui	a0,0x80008
ffffffff80005204:	1af50593          	addi	a1,a0,431 # ffffffff800081af <$d.2+0x89>
ffffffff80005208:	80008537          	lui	a0,0x80008
ffffffff8000520c:	5d550613          	addi	a2,a0,1493 # ffffffff800085d5 <$d.1+0xc6>
ffffffff80005210:	80008537          	lui	a0,0x80008
ffffffff80005214:	3e450693          	addi	a3,a0,996 # ffffffff800083e4 <$d.2+0x6c>
ffffffff80005218:	04900713          	li	a4,73
ffffffff8000521c:	854a                	mv	a0,s2
ffffffff8000521e:	ffffc097          	auipc	ra,0xffffc
ffffffff80005222:	206080e7          	jalr	518(ra) # ffffffff80001424 <spinlock_lock_debug>
ffffffff80005226:	4561                	li	a0,24
ffffffff80005228:	ffffe097          	auipc	ra,0xffffe
ffffffff8000522c:	952080e7          	jalr	-1710(ra) # ffffffff80002b7a <kmalloc>
ffffffff80005230:	648c                	ld	a1,8(s1)
ffffffff80005232:	01353023          	sd	s3,0(a0)
ffffffff80005236:	00053423          	sd	zero,8(a0)
ffffffff8000523a:	e90c                	sd	a1,16(a0)
ffffffff8000523c:	c199                	beqz	a1,ffffffff80005242 <list_push_front+0x58>
ffffffff8000523e:	05a1                	addi	a1,a1,8
ffffffff80005240:	a019                	j	ffffffff80005246 <list_push_front+0x5c>
ffffffff80005242:	01048593          	addi	a1,s1,16
ffffffff80005246:	6090                	ld	a2,0(s1)
ffffffff80005248:	e188                	sd	a0,0(a1)
ffffffff8000524a:	e488                	sd	a0,8(s1)
ffffffff8000524c:	0605                	addi	a2,a2,1
ffffffff8000524e:	e090                	sd	a2,0(s1)
ffffffff80005250:	84aa                	mv	s1,a0
ffffffff80005252:	854a                	mv	a0,s2
ffffffff80005254:	ffffd097          	auipc	ra,0xffffd
ffffffff80005258:	f74080e7          	jalr	-140(ra) # ffffffff800021c8 <spinlock_unlock>
ffffffff8000525c:	8526                	mv	a0,s1
ffffffff8000525e:	70a2                	ld	ra,40(sp)
ffffffff80005260:	7402                	ld	s0,32(sp)
ffffffff80005262:	64e2                	ld	s1,24(sp)
ffffffff80005264:	6942                	ld	s2,16(sp)
ffffffff80005266:	69a2                	ld	s3,8(sp)
ffffffff80005268:	6145                	addi	sp,sp,48
ffffffff8000526a:	8082                	ret

ffffffff8000526c <list_remove_back>:
ffffffff8000526c:	7179                	addi	sp,sp,-48
ffffffff8000526e:	f406                	sd	ra,40(sp)
ffffffff80005270:	f022                	sd	s0,32(sp)
ffffffff80005272:	ec26                	sd	s1,24(sp)
ffffffff80005274:	e84a                	sd	s2,16(sp)
ffffffff80005276:	e44e                	sd	s3,8(sp)
ffffffff80005278:	1800                	addi	s0,sp,48
ffffffff8000527a:	84aa                	mv	s1,a0
ffffffff8000527c:	01850913          	addi	s2,a0,24
ffffffff80005280:	80008537          	lui	a0,0x80008
ffffffff80005284:	1af50593          	addi	a1,a0,431 # ffffffff800081af <$d.2+0x89>
ffffffff80005288:	80008537          	lui	a0,0x80008
ffffffff8000528c:	3c450613          	addi	a2,a0,964 # ffffffff800083c4 <$d.2+0x4c>
ffffffff80005290:	80008537          	lui	a0,0x80008
ffffffff80005294:	3e450693          	addi	a3,a0,996 # ffffffff800083e4 <$d.2+0x6c>
ffffffff80005298:	05d00713          	li	a4,93
ffffffff8000529c:	854a                	mv	a0,s2
ffffffff8000529e:	ffffc097          	auipc	ra,0xffffc
ffffffff800052a2:	186080e7          	jalr	390(ra) # ffffffff80001424 <spinlock_lock_debug>
ffffffff800052a6:	6888                	ld	a0,16(s1)
ffffffff800052a8:	c901                	beqz	a0,ffffffff800052b8 <list_remove_back+0x4c>
ffffffff800052aa:	650c                	ld	a1,8(a0)
ffffffff800052ac:	00053983          	ld	s3,0(a0)
ffffffff800052b0:	e88c                	sd	a1,16(s1)
ffffffff800052b2:	c589                	beqz	a1,ffffffff800052bc <list_remove_back+0x50>
ffffffff800052b4:	05c1                	addi	a1,a1,16
ffffffff800052b6:	a029                	j	ffffffff800052c0 <list_remove_back+0x54>
ffffffff800052b8:	4981                	li	s3,0
ffffffff800052ba:	a821                	j	ffffffff800052d2 <list_remove_back+0x66>
ffffffff800052bc:	00848593          	addi	a1,s1,8
ffffffff800052c0:	0005b023          	sd	zero,0(a1)
ffffffff800052c4:	ffffe097          	auipc	ra,0xffffe
ffffffff800052c8:	96e080e7          	jalr	-1682(ra) # ffffffff80002c32 <kfree>
ffffffff800052cc:	6088                	ld	a0,0(s1)
ffffffff800052ce:	157d                	addi	a0,a0,-1
ffffffff800052d0:	e088                	sd	a0,0(s1)
ffffffff800052d2:	854a                	mv	a0,s2
ffffffff800052d4:	ffffd097          	auipc	ra,0xffffd
ffffffff800052d8:	ef4080e7          	jalr	-268(ra) # ffffffff800021c8 <spinlock_unlock>
ffffffff800052dc:	854e                	mv	a0,s3
ffffffff800052de:	70a2                	ld	ra,40(sp)
ffffffff800052e0:	7402                	ld	s0,32(sp)
ffffffff800052e2:	64e2                	ld	s1,24(sp)
ffffffff800052e4:	6942                	ld	s2,16(sp)
ffffffff800052e6:	69a2                	ld	s3,8(sp)
ffffffff800052e8:	6145                	addi	sp,sp,48
ffffffff800052ea:	8082                	ret

ffffffff800052ec <list_remove_front>:
ffffffff800052ec:	7179                	addi	sp,sp,-48
ffffffff800052ee:	f406                	sd	ra,40(sp)
ffffffff800052f0:	f022                	sd	s0,32(sp)
ffffffff800052f2:	ec26                	sd	s1,24(sp)
ffffffff800052f4:	e84a                	sd	s2,16(sp)
ffffffff800052f6:	e44e                	sd	s3,8(sp)
ffffffff800052f8:	1800                	addi	s0,sp,48
ffffffff800052fa:	84aa                	mv	s1,a0
ffffffff800052fc:	01850913          	addi	s2,a0,24
ffffffff80005300:	80008537          	lui	a0,0x80008
ffffffff80005304:	1af50593          	addi	a1,a0,431 # ffffffff800081af <$d.2+0x89>
ffffffff80005308:	80008537          	lui	a0,0x80008
ffffffff8000530c:	2ec50613          	addi	a2,a0,748 # ffffffff800082ec <$d.1+0x36>
ffffffff80005310:	80008537          	lui	a0,0x80008
ffffffff80005314:	3e450693          	addi	a3,a0,996 # ffffffff800083e4 <$d.2+0x6c>
ffffffff80005318:	07500713          	li	a4,117
ffffffff8000531c:	854a                	mv	a0,s2
ffffffff8000531e:	ffffc097          	auipc	ra,0xffffc
ffffffff80005322:	106080e7          	jalr	262(ra) # ffffffff80001424 <spinlock_lock_debug>
ffffffff80005326:	6488                	ld	a0,8(s1)
ffffffff80005328:	c901                	beqz	a0,ffffffff80005338 <list_remove_front+0x4c>
ffffffff8000532a:	690c                	ld	a1,16(a0)
ffffffff8000532c:	00053983          	ld	s3,0(a0)
ffffffff80005330:	e48c                	sd	a1,8(s1)
ffffffff80005332:	c589                	beqz	a1,ffffffff8000533c <list_remove_front+0x50>
ffffffff80005334:	05a1                	addi	a1,a1,8
ffffffff80005336:	a029                	j	ffffffff80005340 <list_remove_front+0x54>
ffffffff80005338:	4981                	li	s3,0
ffffffff8000533a:	a821                	j	ffffffff80005352 <list_remove_front+0x66>
ffffffff8000533c:	01048593          	addi	a1,s1,16
ffffffff80005340:	0005b023          	sd	zero,0(a1)
ffffffff80005344:	ffffe097          	auipc	ra,0xffffe
ffffffff80005348:	8ee080e7          	jalr	-1810(ra) # ffffffff80002c32 <kfree>
ffffffff8000534c:	6088                	ld	a0,0(s1)
ffffffff8000534e:	157d                	addi	a0,a0,-1
ffffffff80005350:	e088                	sd	a0,0(s1)
ffffffff80005352:	854a                	mv	a0,s2
ffffffff80005354:	ffffd097          	auipc	ra,0xffffd
ffffffff80005358:	e74080e7          	jalr	-396(ra) # ffffffff800021c8 <spinlock_unlock>
ffffffff8000535c:	854e                	mv	a0,s3
ffffffff8000535e:	70a2                	ld	ra,40(sp)
ffffffff80005360:	7402                	ld	s0,32(sp)
ffffffff80005362:	64e2                	ld	s1,24(sp)
ffffffff80005364:	6942                	ld	s2,16(sp)
ffffffff80005366:	69a2                	ld	s3,8(sp)
ffffffff80005368:	6145                	addi	sp,sp,48
ffffffff8000536a:	8082                	ret

ffffffff8000536c <list_pop>:
ffffffff8000536c:	7179                	addi	sp,sp,-48
ffffffff8000536e:	f406                	sd	ra,40(sp)
ffffffff80005370:	f022                	sd	s0,32(sp)
ffffffff80005372:	ec26                	sd	s1,24(sp)
ffffffff80005374:	e84a                	sd	s2,16(sp)
ffffffff80005376:	e44e                	sd	s3,8(sp)
ffffffff80005378:	1800                	addi	s0,sp,48
ffffffff8000537a:	84aa                	mv	s1,a0
ffffffff8000537c:	01850913          	addi	s2,a0,24
ffffffff80005380:	80008537          	lui	a0,0x80008
ffffffff80005384:	1af50593          	addi	a1,a0,431 # ffffffff800081af <$d.2+0x89>
ffffffff80005388:	80008537          	lui	a0,0x80008
ffffffff8000538c:	31550613          	addi	a2,a0,789 # ffffffff80008315 <$d.1+0x5f>
ffffffff80005390:	80008537          	lui	a0,0x80008
ffffffff80005394:	3e450693          	addi	a3,a0,996 # ffffffff800083e4 <$d.2+0x6c>
ffffffff80005398:	08d00713          	li	a4,141
ffffffff8000539c:	854a                	mv	a0,s2
ffffffff8000539e:	ffffc097          	auipc	ra,0xffffc
ffffffff800053a2:	086080e7          	jalr	134(ra) # ffffffff80001424 <spinlock_lock_debug>
ffffffff800053a6:	0104b983          	ld	s3,16(s1)
ffffffff800053aa:	00098f63          	beqz	s3,ffffffff800053c8 <list_pop+0x5c>
ffffffff800053ae:	0089b503          	ld	a0,8(s3)
ffffffff800053b2:	e888                	sd	a0,16(s1)
ffffffff800053b4:	c119                	beqz	a0,ffffffff800053ba <list_pop+0x4e>
ffffffff800053b6:	0541                	addi	a0,a0,16
ffffffff800053b8:	a019                	j	ffffffff800053be <list_pop+0x52>
ffffffff800053ba:	00848513          	addi	a0,s1,8
ffffffff800053be:	608c                	ld	a1,0(s1)
ffffffff800053c0:	00053023          	sd	zero,0(a0)
ffffffff800053c4:	15fd                	addi	a1,a1,-1
ffffffff800053c6:	e08c                	sd	a1,0(s1)
ffffffff800053c8:	854a                	mv	a0,s2
ffffffff800053ca:	ffffd097          	auipc	ra,0xffffd
ffffffff800053ce:	dfe080e7          	jalr	-514(ra) # ffffffff800021c8 <spinlock_unlock>
ffffffff800053d2:	854e                	mv	a0,s3
ffffffff800053d4:	70a2                	ld	ra,40(sp)
ffffffff800053d6:	7402                	ld	s0,32(sp)
ffffffff800053d8:	64e2                	ld	s1,24(sp)
ffffffff800053da:	6942                	ld	s2,16(sp)
ffffffff800053dc:	69a2                	ld	s3,8(sp)
ffffffff800053de:	6145                	addi	sp,sp,48
ffffffff800053e0:	8082                	ret

ffffffff800053e2 <list_remove>:
ffffffff800053e2:	715d                	addi	sp,sp,-80
ffffffff800053e4:	e486                	sd	ra,72(sp)
ffffffff800053e6:	e0a2                	sd	s0,64(sp)
ffffffff800053e8:	fc26                	sd	s1,56(sp)
ffffffff800053ea:	f84a                	sd	s2,48(sp)
ffffffff800053ec:	f44e                	sd	s3,40(sp)
ffffffff800053ee:	f052                	sd	s4,32(sp)
ffffffff800053f0:	ec56                	sd	s5,24(sp)
ffffffff800053f2:	e85a                	sd	s6,16(sp)
ffffffff800053f4:	e45e                	sd	s7,8(sp)
ffffffff800053f6:	0880                	addi	s0,sp,80
ffffffff800053f8:	84ae                	mv	s1,a1
ffffffff800053fa:	8a2a                	mv	s4,a0
ffffffff800053fc:	01850913          	addi	s2,a0,24
ffffffff80005400:	80008537          	lui	a0,0x80008
ffffffff80005404:	1af50a93          	addi	s5,a0,431 # ffffffff800081af <$d.2+0x89>
ffffffff80005408:	80008537          	lui	a0,0x80008
ffffffff8000540c:	61c50613          	addi	a2,a0,1564 # ffffffff8000861c <$d.1+0x10d>
ffffffff80005410:	80008537          	lui	a0,0x80008
ffffffff80005414:	3e450b13          	addi	s6,a0,996 # ffffffff800083e4 <$d.2+0x6c>
ffffffff80005418:	0a200713          	li	a4,162
ffffffff8000541c:	854a                	mv	a0,s2
ffffffff8000541e:	85d6                	mv	a1,s5
ffffffff80005420:	86da                	mv	a3,s6
ffffffff80005422:	ffffc097          	auipc	ra,0xffffc
ffffffff80005426:	002080e7          	jalr	2(ra) # ffffffff80001424 <spinlock_lock_debug>
ffffffff8000542a:	008a3503          	ld	a0,8(s4)
ffffffff8000542e:	0004b983          	ld	s3,0(s1)
ffffffff80005432:	008a0b93          	addi	s7,s4,8
ffffffff80005436:	02950563          	beq	a0,s1,ffffffff80005460 <list_remove+0x7e>
ffffffff8000543a:	010a3503          	ld	a0,16(s4)
ffffffff8000543e:	04950c63          	beq	a0,s1,ffffffff80005496 <list_remove+0xb4>
ffffffff80005442:	6888                	ld	a0,16(s1)
ffffffff80005444:	648c                	ld	a1,8(s1)
ffffffff80005446:	000a3603          	ld	a2,0(s4)
ffffffff8000544a:	e988                	sd	a0,16(a1)
ffffffff8000544c:	e50c                	sd	a1,8(a0)
ffffffff8000544e:	167d                	addi	a2,a2,-1
ffffffff80005450:	00ca3023          	sd	a2,0(s4)
ffffffff80005454:	8526                	mv	a0,s1
ffffffff80005456:	ffffd097          	auipc	ra,0xffffd
ffffffff8000545a:	7dc080e7          	jalr	2012(ra) # ffffffff80002c32 <kfree>
ffffffff8000545e:	a869                	j	ffffffff800054f8 <list_remove+0x116>
ffffffff80005460:	854a                	mv	a0,s2
ffffffff80005462:	ffffd097          	auipc	ra,0xffffd
ffffffff80005466:	d66080e7          	jalr	-666(ra) # ffffffff800021c8 <spinlock_unlock>
ffffffff8000546a:	80008537          	lui	a0,0x80008
ffffffff8000546e:	2ec50613          	addi	a2,a0,748 # ffffffff800082ec <$d.1+0x36>
ffffffff80005472:	07500713          	li	a4,117
ffffffff80005476:	854a                	mv	a0,s2
ffffffff80005478:	85d6                	mv	a1,s5
ffffffff8000547a:	86da                	mv	a3,s6
ffffffff8000547c:	ffffc097          	auipc	ra,0xffffc
ffffffff80005480:	fa8080e7          	jalr	-88(ra) # ffffffff80001424 <spinlock_lock_debug>
ffffffff80005484:	000bb503          	ld	a0,0(s7)
ffffffff80005488:	c925                	beqz	a0,ffffffff800054f8 <list_remove+0x116>
ffffffff8000548a:	690c                	ld	a1,16(a0)
ffffffff8000548c:	00ba3423          	sd	a1,8(s4)
ffffffff80005490:	c5b9                	beqz	a1,ffffffff800054de <list_remove+0xfc>
ffffffff80005492:	05a1                	addi	a1,a1,8
ffffffff80005494:	a0b9                	j	ffffffff800054e2 <list_remove+0x100>
ffffffff80005496:	854a                	mv	a0,s2
ffffffff80005498:	ffffd097          	auipc	ra,0xffffd
ffffffff8000549c:	d30080e7          	jalr	-720(ra) # ffffffff800021c8 <spinlock_unlock>
ffffffff800054a0:	80008537          	lui	a0,0x80008
ffffffff800054a4:	1af50593          	addi	a1,a0,431 # ffffffff800081af <$d.2+0x89>
ffffffff800054a8:	80008537          	lui	a0,0x80008
ffffffff800054ac:	3c450613          	addi	a2,a0,964 # ffffffff800083c4 <$d.2+0x4c>
ffffffff800054b0:	80008537          	lui	a0,0x80008
ffffffff800054b4:	3e450693          	addi	a3,a0,996 # ffffffff800083e4 <$d.2+0x6c>
ffffffff800054b8:	05d00713          	li	a4,93
ffffffff800054bc:	854a                	mv	a0,s2
ffffffff800054be:	ffffc097          	auipc	ra,0xffffc
ffffffff800054c2:	f66080e7          	jalr	-154(ra) # ffffffff80001424 <spinlock_lock_debug>
ffffffff800054c6:	010a3503          	ld	a0,16(s4)
ffffffff800054ca:	c51d                	beqz	a0,ffffffff800054f8 <list_remove+0x116>
ffffffff800054cc:	650c                	ld	a1,8(a0)
ffffffff800054ce:	00ba3823          	sd	a1,16(s4)
ffffffff800054d2:	c199                	beqz	a1,ffffffff800054d8 <list_remove+0xf6>
ffffffff800054d4:	01058b93          	addi	s7,a1,16
ffffffff800054d8:	000bb023          	sd	zero,0(s7)
ffffffff800054dc:	a029                	j	ffffffff800054e6 <list_remove+0x104>
ffffffff800054de:	010a0593          	addi	a1,s4,16
ffffffff800054e2:	0005b023          	sd	zero,0(a1)
ffffffff800054e6:	ffffd097          	auipc	ra,0xffffd
ffffffff800054ea:	74c080e7          	jalr	1868(ra) # ffffffff80002c32 <kfree>
ffffffff800054ee:	000a3503          	ld	a0,0(s4)
ffffffff800054f2:	157d                	addi	a0,a0,-1
ffffffff800054f4:	00aa3023          	sd	a0,0(s4)
ffffffff800054f8:	854a                	mv	a0,s2
ffffffff800054fa:	ffffd097          	auipc	ra,0xffffd
ffffffff800054fe:	cce080e7          	jalr	-818(ra) # ffffffff800021c8 <spinlock_unlock>
ffffffff80005502:	854e                	mv	a0,s3
ffffffff80005504:	60a6                	ld	ra,72(sp)
ffffffff80005506:	6406                	ld	s0,64(sp)
ffffffff80005508:	74e2                	ld	s1,56(sp)
ffffffff8000550a:	7942                	ld	s2,48(sp)
ffffffff8000550c:	79a2                	ld	s3,40(sp)
ffffffff8000550e:	7a02                	ld	s4,32(sp)
ffffffff80005510:	6ae2                	ld	s5,24(sp)
ffffffff80005512:	6b42                	ld	s6,16(sp)
ffffffff80005514:	6ba2                	ld	s7,8(sp)
ffffffff80005516:	6161                	addi	sp,sp,80
ffffffff80005518:	8082                	ret

ffffffff8000551a <list_get_back>:
ffffffff8000551a:	1101                	addi	sp,sp,-32
ffffffff8000551c:	ec06                	sd	ra,24(sp)
ffffffff8000551e:	e822                	sd	s0,16(sp)
ffffffff80005520:	e426                	sd	s1,8(sp)
ffffffff80005522:	e04a                	sd	s2,0(sp)
ffffffff80005524:	1000                	addi	s0,sp,32
ffffffff80005526:	84aa                	mv	s1,a0
ffffffff80005528:	01850913          	addi	s2,a0,24
ffffffff8000552c:	80008537          	lui	a0,0x80008
ffffffff80005530:	1af50593          	addi	a1,a0,431 # ffffffff800081af <$d.2+0x89>
ffffffff80005534:	80008537          	lui	a0,0x80008
ffffffff80005538:	76950613          	addi	a2,a0,1897 # ffffffff80008769 <$d.2+0x64>
ffffffff8000553c:	80008537          	lui	a0,0x80008
ffffffff80005540:	3e450693          	addi	a3,a0,996 # ffffffff800083e4 <$d.2+0x6c>
ffffffff80005544:	0ba00713          	li	a4,186
ffffffff80005548:	854a                	mv	a0,s2
ffffffff8000554a:	ffffc097          	auipc	ra,0xffffc
ffffffff8000554e:	eda080e7          	jalr	-294(ra) # ffffffff80001424 <spinlock_lock_debug>
ffffffff80005552:	6888                	ld	a0,16(s1)
ffffffff80005554:	c119                	beqz	a0,ffffffff8000555a <list_get_back+0x40>
ffffffff80005556:	6104                	ld	s1,0(a0)
ffffffff80005558:	a011                	j	ffffffff8000555c <list_get_back+0x42>
ffffffff8000555a:	4481                	li	s1,0
ffffffff8000555c:	854a                	mv	a0,s2
ffffffff8000555e:	ffffd097          	auipc	ra,0xffffd
ffffffff80005562:	c6a080e7          	jalr	-918(ra) # ffffffff800021c8 <spinlock_unlock>
ffffffff80005566:	8526                	mv	a0,s1
ffffffff80005568:	60e2                	ld	ra,24(sp)
ffffffff8000556a:	6442                	ld	s0,16(sp)
ffffffff8000556c:	64a2                	ld	s1,8(sp)
ffffffff8000556e:	6902                	ld	s2,0(sp)
ffffffff80005570:	6105                	addi	sp,sp,32
ffffffff80005572:	8082                	ret

ffffffff80005574 <list_get_front>:
ffffffff80005574:	1101                	addi	sp,sp,-32
ffffffff80005576:	ec06                	sd	ra,24(sp)
ffffffff80005578:	e822                	sd	s0,16(sp)
ffffffff8000557a:	e426                	sd	s1,8(sp)
ffffffff8000557c:	e04a                	sd	s2,0(sp)
ffffffff8000557e:	1000                	addi	s0,sp,32
ffffffff80005580:	84aa                	mv	s1,a0
ffffffff80005582:	01850913          	addi	s2,a0,24
ffffffff80005586:	80008537          	lui	a0,0x80008
ffffffff8000558a:	1af50593          	addi	a1,a0,431 # ffffffff800081af <$d.2+0x89>
ffffffff8000558e:	80008537          	lui	a0,0x80008
ffffffff80005592:	0d950613          	addi	a2,a0,217 # ffffffff800080d9 <$d.3+0x95>
ffffffff80005596:	80008537          	lui	a0,0x80008
ffffffff8000559a:	3e450693          	addi	a3,a0,996 # ffffffff800083e4 <$d.2+0x6c>
ffffffff8000559e:	0c900713          	li	a4,201
ffffffff800055a2:	854a                	mv	a0,s2
ffffffff800055a4:	ffffc097          	auipc	ra,0xffffc
ffffffff800055a8:	e80080e7          	jalr	-384(ra) # ffffffff80001424 <spinlock_lock_debug>
ffffffff800055ac:	6488                	ld	a0,8(s1)
ffffffff800055ae:	c119                	beqz	a0,ffffffff800055b4 <list_get_front+0x40>
ffffffff800055b0:	6104                	ld	s1,0(a0)
ffffffff800055b2:	a011                	j	ffffffff800055b6 <list_get_front+0x42>
ffffffff800055b4:	4481                	li	s1,0
ffffffff800055b6:	854a                	mv	a0,s2
ffffffff800055b8:	ffffd097          	auipc	ra,0xffffd
ffffffff800055bc:	c10080e7          	jalr	-1008(ra) # ffffffff800021c8 <spinlock_unlock>
ffffffff800055c0:	8526                	mv	a0,s1
ffffffff800055c2:	60e2                	ld	ra,24(sp)
ffffffff800055c4:	6442                	ld	s0,16(sp)
ffffffff800055c6:	64a2                	ld	s1,8(sp)
ffffffff800055c8:	6902                	ld	s2,0(sp)
ffffffff800055ca:	6105                	addi	sp,sp,32
ffffffff800055cc:	8082                	ret

ffffffff800055ce <list_contains>:
ffffffff800055ce:	7179                	addi	sp,sp,-48
ffffffff800055d0:	f406                	sd	ra,40(sp)
ffffffff800055d2:	f022                	sd	s0,32(sp)
ffffffff800055d4:	ec26                	sd	s1,24(sp)
ffffffff800055d6:	e84a                	sd	s2,16(sp)
ffffffff800055d8:	e44e                	sd	s3,8(sp)
ffffffff800055da:	1800                	addi	s0,sp,48
ffffffff800055dc:	84ae                	mv	s1,a1
ffffffff800055de:	89aa                	mv	s3,a0
ffffffff800055e0:	01850913          	addi	s2,a0,24
ffffffff800055e4:	80008537          	lui	a0,0x80008
ffffffff800055e8:	1af50593          	addi	a1,a0,431 # ffffffff800081af <$d.2+0x89>
ffffffff800055ec:	80008537          	lui	a0,0x80008
ffffffff800055f0:	53550613          	addi	a2,a0,1333 # ffffffff80008535 <$d.1+0x26>
ffffffff800055f4:	80008537          	lui	a0,0x80008
ffffffff800055f8:	3e450693          	addi	a3,a0,996 # ffffffff800083e4 <$d.2+0x6c>
ffffffff800055fc:	0d800713          	li	a4,216
ffffffff80005600:	854a                	mv	a0,s2
ffffffff80005602:	ffffc097          	auipc	ra,0xffffc
ffffffff80005606:	e22080e7          	jalr	-478(ra) # ffffffff80001424 <spinlock_lock_debug>
ffffffff8000560a:	0089b503          	ld	a0,8(s3)
ffffffff8000560e:	59fd                	li	s3,-1
ffffffff80005610:	c911                	beqz	a0,ffffffff80005624 <list_contains+0x56>
ffffffff80005612:	4581                	li	a1,0
ffffffff80005614:	6110                	ld	a2,0(a0)
ffffffff80005616:	00960663          	beq	a2,s1,ffffffff80005622 <list_contains+0x54>
ffffffff8000561a:	6908                	ld	a0,16(a0)
ffffffff8000561c:	0585                	addi	a1,a1,1
ffffffff8000561e:	f97d                	bnez	a0,ffffffff80005614 <list_contains+0x46>
ffffffff80005620:	a011                	j	ffffffff80005624 <list_contains+0x56>
ffffffff80005622:	89ae                	mv	s3,a1
ffffffff80005624:	854a                	mv	a0,s2
ffffffff80005626:	ffffd097          	auipc	ra,0xffffd
ffffffff8000562a:	ba2080e7          	jalr	-1118(ra) # ffffffff800021c8 <spinlock_unlock>
ffffffff8000562e:	854e                	mv	a0,s3
ffffffff80005630:	70a2                	ld	ra,40(sp)
ffffffff80005632:	7402                	ld	s0,32(sp)
ffffffff80005634:	64e2                	ld	s1,24(sp)
ffffffff80005636:	6942                	ld	s2,16(sp)
ffffffff80005638:	69a2                	ld	s3,8(sp)
ffffffff8000563a:	6145                	addi	sp,sp,48
ffffffff8000563c:	8082                	ret

ffffffff8000563e <list_get_indexed>:
ffffffff8000563e:	7179                	addi	sp,sp,-48
ffffffff80005640:	f406                	sd	ra,40(sp)
ffffffff80005642:	f022                	sd	s0,32(sp)
ffffffff80005644:	ec26                	sd	s1,24(sp)
ffffffff80005646:	e84a                	sd	s2,16(sp)
ffffffff80005648:	e44e                	sd	s3,8(sp)
ffffffff8000564a:	1800                	addi	s0,sp,48
ffffffff8000564c:	89ae                	mv	s3,a1
ffffffff8000564e:	84aa                	mv	s1,a0
ffffffff80005650:	01850913          	addi	s2,a0,24
ffffffff80005654:	80008537          	lui	a0,0x80008
ffffffff80005658:	1af50593          	addi	a1,a0,431 # ffffffff800081af <$d.2+0x89>
ffffffff8000565c:	80008537          	lui	a0,0x80008
ffffffff80005660:	16550613          	addi	a2,a0,357 # ffffffff80008165 <$d.2+0x3f>
ffffffff80005664:	80008537          	lui	a0,0x80008
ffffffff80005668:	3e450693          	addi	a3,a0,996 # ffffffff800083e4 <$d.2+0x6c>
ffffffff8000566c:	0ea00713          	li	a4,234
ffffffff80005670:	854a                	mv	a0,s2
ffffffff80005672:	ffffc097          	auipc	ra,0xffffc
ffffffff80005676:	db2080e7          	jalr	-590(ra) # ffffffff80001424 <spinlock_lock_debug>
ffffffff8000567a:	6484                	ld	s1,8(s1)
ffffffff8000567c:	c499                	beqz	s1,ffffffff8000568a <list_get_indexed+0x4c>
ffffffff8000567e:	0985                	addi	s3,s3,1
ffffffff80005680:	19fd                	addi	s3,s3,-1
ffffffff80005682:	00098463          	beqz	s3,ffffffff8000568a <list_get_indexed+0x4c>
ffffffff80005686:	6884                	ld	s1,16(s1)
ffffffff80005688:	fce5                	bnez	s1,ffffffff80005680 <list_get_indexed+0x42>
ffffffff8000568a:	854a                	mv	a0,s2
ffffffff8000568c:	ffffd097          	auipc	ra,0xffffd
ffffffff80005690:	b3c080e7          	jalr	-1220(ra) # ffffffff800021c8 <spinlock_unlock>
ffffffff80005694:	8526                	mv	a0,s1
ffffffff80005696:	70a2                	ld	ra,40(sp)
ffffffff80005698:	7402                	ld	s0,32(sp)
ffffffff8000569a:	64e2                	ld	s1,24(sp)
ffffffff8000569c:	6942                	ld	s2,16(sp)
ffffffff8000569e:	69a2                	ld	s3,8(sp)
ffffffff800056a0:	6145                	addi	sp,sp,48
ffffffff800056a2:	8082                	ret

ffffffff800056a4 <list_remove_indexed>:
ffffffff800056a4:	7179                	addi	sp,sp,-48
ffffffff800056a6:	f406                	sd	ra,40(sp)
ffffffff800056a8:	f022                	sd	s0,32(sp)
ffffffff800056aa:	ec26                	sd	s1,24(sp)
ffffffff800056ac:	e84a                	sd	s2,16(sp)
ffffffff800056ae:	e44e                	sd	s3,8(sp)
ffffffff800056b0:	e052                	sd	s4,0(sp)
ffffffff800056b2:	1800                	addi	s0,sp,48
ffffffff800056b4:	8a2e                	mv	s4,a1
ffffffff800056b6:	89aa                	mv	s3,a0
ffffffff800056b8:	01850913          	addi	s2,a0,24
ffffffff800056bc:	80008537          	lui	a0,0x80008
ffffffff800056c0:	1af50593          	addi	a1,a0,431 # ffffffff800081af <$d.2+0x89>
ffffffff800056c4:	80008537          	lui	a0,0x80008
ffffffff800056c8:	16550613          	addi	a2,a0,357 # ffffffff80008165 <$d.2+0x3f>
ffffffff800056cc:	80008537          	lui	a0,0x80008
ffffffff800056d0:	3e450693          	addi	a3,a0,996 # ffffffff800083e4 <$d.2+0x6c>
ffffffff800056d4:	0ea00713          	li	a4,234
ffffffff800056d8:	854a                	mv	a0,s2
ffffffff800056da:	ffffc097          	auipc	ra,0xffffc
ffffffff800056de:	d4a080e7          	jalr	-694(ra) # ffffffff80001424 <spinlock_lock_debug>
ffffffff800056e2:	0089b483          	ld	s1,8(s3)
ffffffff800056e6:	c499                	beqz	s1,ffffffff800056f4 <list_remove_indexed+0x50>
ffffffff800056e8:	0a05                	addi	s4,s4,1
ffffffff800056ea:	1a7d                	addi	s4,s4,-1
ffffffff800056ec:	000a0463          	beqz	s4,ffffffff800056f4 <list_remove_indexed+0x50>
ffffffff800056f0:	6884                	ld	s1,16(s1)
ffffffff800056f2:	fce5                	bnez	s1,ffffffff800056ea <list_remove_indexed+0x46>
ffffffff800056f4:	854a                	mv	a0,s2
ffffffff800056f6:	ffffd097          	auipc	ra,0xffffd
ffffffff800056fa:	ad2080e7          	jalr	-1326(ra) # ffffffff800021c8 <spinlock_unlock>
ffffffff800056fe:	854e                	mv	a0,s3
ffffffff80005700:	85a6                	mv	a1,s1
ffffffff80005702:	70a2                	ld	ra,40(sp)
ffffffff80005704:	7402                	ld	s0,32(sp)
ffffffff80005706:	64e2                	ld	s1,24(sp)
ffffffff80005708:	6942                	ld	s2,16(sp)
ffffffff8000570a:	69a2                	ld	s3,8(sp)
ffffffff8000570c:	6a02                	ld	s4,0(sp)
ffffffff8000570e:	6145                	addi	sp,sp,48
ffffffff80005710:	00000317          	auipc	t1,0x0
ffffffff80005714:	cd230067          	jr	-814(t1) # ffffffff800053e2 <list_remove>

ffffffff80005718 <gentree_create>:
ffffffff80005718:	715d                	addi	sp,sp,-80
ffffffff8000571a:	e486                	sd	ra,72(sp)
ffffffff8000571c:	e0a2                	sd	s0,64(sp)
ffffffff8000571e:	0880                	addi	s0,sp,80
ffffffff80005720:	03000513          	li	a0,48
ffffffff80005724:	ffffd097          	auipc	ra,0xffffd
ffffffff80005728:	456080e7          	jalr	1110(ra) # ffffffff80002b7a <kmalloc>
ffffffff8000572c:	00053023          	sd	zero,0(a0)
ffffffff80005730:	fe042423          	sw	zero,-24(s0)
ffffffff80005734:	800085b7          	lui	a1,0x80008
ffffffff80005738:	50f58593          	addi	a1,a1,1295 # ffffffff8000850f <$d.1>
ffffffff8000573c:	fcb43c23          	sd	a1,-40(s0)
ffffffff80005740:	fcb43823          	sd	a1,-48(s0)
ffffffff80005744:	fc042423          	sw	zero,-56(s0)
ffffffff80005748:	55fd                	li	a1,-1
ffffffff8000574a:	fab43c23          	sd	a1,-72(s0)
ffffffff8000574e:	fe842583          	lw	a1,-24(s0)
ffffffff80005752:	c50c                	sw	a1,8(a0)
ffffffff80005754:	fe442583          	lw	a1,-28(s0)
ffffffff80005758:	c54c                	sw	a1,12(a0)
ffffffff8000575a:	fd843583          	ld	a1,-40(s0)
ffffffff8000575e:	e90c                	sd	a1,16(a0)
ffffffff80005760:	fd043583          	ld	a1,-48(s0)
ffffffff80005764:	ed0c                	sd	a1,24(a0)
ffffffff80005766:	fc842583          	lw	a1,-56(s0)
ffffffff8000576a:	d10c                	sw	a1,32(a0)
ffffffff8000576c:	fc442583          	lw	a1,-60(s0)
ffffffff80005770:	d14c                	sw	a1,36(a0)
ffffffff80005772:	fb843583          	ld	a1,-72(s0)
ffffffff80005776:	f50c                	sd	a1,40(a0)
ffffffff80005778:	60a6                	ld	ra,72(sp)
ffffffff8000577a:	6406                	ld	s0,64(sp)
ffffffff8000577c:	6161                	addi	sp,sp,80
ffffffff8000577e:	8082                	ret

ffffffff80005780 <gentree_node_create>:
ffffffff80005780:	711d                	addi	sp,sp,-96
ffffffff80005782:	ec86                	sd	ra,88(sp)
ffffffff80005784:	e8a2                	sd	s0,80(sp)
ffffffff80005786:	e4a6                	sd	s1,72(sp)
ffffffff80005788:	e0ca                	sd	s2,64(sp)
ffffffff8000578a:	1080                	addi	s0,sp,96
ffffffff8000578c:	892a                	mv	s2,a0
ffffffff8000578e:	4541                	li	a0,16
ffffffff80005790:	ffffd097          	auipc	ra,0xffffd
ffffffff80005794:	3ea080e7          	jalr	1002(ra) # ffffffff80002b7a <kmalloc>
ffffffff80005798:	84aa                	mv	s1,a0
ffffffff8000579a:	01253023          	sd	s2,0(a0)
ffffffff8000579e:	04000513          	li	a0,64
ffffffff800057a2:	ffffd097          	auipc	ra,0xffffd
ffffffff800057a6:	3d8080e7          	jalr	984(ra) # ffffffff80002b7a <kmalloc>
ffffffff800057aa:	00053423          	sd	zero,8(a0)
ffffffff800057ae:	00053823          	sd	zero,16(a0)
ffffffff800057b2:	00053023          	sd	zero,0(a0)
ffffffff800057b6:	fc042c23          	sw	zero,-40(s0)
ffffffff800057ba:	800085b7          	lui	a1,0x80008
ffffffff800057be:	50f58593          	addi	a1,a1,1295 # ffffffff8000850f <$d.1>
ffffffff800057c2:	fcb43423          	sd	a1,-56(s0)
ffffffff800057c6:	fcb43023          	sd	a1,-64(s0)
ffffffff800057ca:	fa042c23          	sw	zero,-72(s0)
ffffffff800057ce:	55fd                	li	a1,-1
ffffffff800057d0:	fab43423          	sd	a1,-88(s0)
ffffffff800057d4:	fd842583          	lw	a1,-40(s0)
ffffffff800057d8:	cd0c                	sw	a1,24(a0)
ffffffff800057da:	fd442583          	lw	a1,-44(s0)
ffffffff800057de:	cd4c                	sw	a1,28(a0)
ffffffff800057e0:	fc843583          	ld	a1,-56(s0)
ffffffff800057e4:	f10c                	sd	a1,32(a0)
ffffffff800057e6:	fc043583          	ld	a1,-64(s0)
ffffffff800057ea:	f50c                	sd	a1,40(a0)
ffffffff800057ec:	fb842583          	lw	a1,-72(s0)
ffffffff800057f0:	d90c                	sw	a1,48(a0)
ffffffff800057f2:	fb442583          	lw	a1,-76(s0)
ffffffff800057f6:	d94c                	sw	a1,52(a0)
ffffffff800057f8:	fa843583          	ld	a1,-88(s0)
ffffffff800057fc:	fd0c                	sd	a1,56(a0)
ffffffff800057fe:	e488                	sd	a0,8(s1)
ffffffff80005800:	8526                	mv	a0,s1
ffffffff80005802:	60e6                	ld	ra,88(sp)
ffffffff80005804:	6446                	ld	s0,80(sp)
ffffffff80005806:	64a6                	ld	s1,72(sp)
ffffffff80005808:	6906                	ld	s2,64(sp)
ffffffff8000580a:	6125                	addi	sp,sp,96
ffffffff8000580c:	8082                	ret

ffffffff8000580e <gentree_insert>:
ffffffff8000580e:	7119                	addi	sp,sp,-128
ffffffff80005810:	fc86                	sd	ra,120(sp)
ffffffff80005812:	f8a2                	sd	s0,112(sp)
ffffffff80005814:	f4a6                	sd	s1,104(sp)
ffffffff80005816:	f0ca                	sd	s2,96(sp)
ffffffff80005818:	ecce                	sd	s3,88(sp)
ffffffff8000581a:	e8d2                	sd	s4,80(sp)
ffffffff8000581c:	e4d6                	sd	s5,72(sp)
ffffffff8000581e:	e0da                	sd	s6,64(sp)
ffffffff80005820:	fc5e                	sd	s7,56(sp)
ffffffff80005822:	0100                	addi	s0,sp,128
ffffffff80005824:	8b32                	mv	s6,a2
ffffffff80005826:	8a2e                	mv	s4,a1
ffffffff80005828:	8aaa                	mv	s5,a0
ffffffff8000582a:	00850913          	addi	s2,a0,8
ffffffff8000582e:	80008537          	lui	a0,0x80008
ffffffff80005832:	1af50993          	addi	s3,a0,431 # ffffffff800081af <$d.2+0x89>
ffffffff80005836:	80008537          	lui	a0,0x80008
ffffffff8000583a:	77750613          	addi	a2,a0,1911 # ffffffff80008777 <$d.2+0x72>
ffffffff8000583e:	80008537          	lui	a0,0x80008
ffffffff80005842:	68a50693          	addi	a3,a0,1674 # ffffffff8000868a <$d.1+0x17b>
ffffffff80005846:	10f00713          	li	a4,271
ffffffff8000584a:	854a                	mv	a0,s2
ffffffff8000584c:	85ce                	mv	a1,s3
ffffffff8000584e:	ffffc097          	auipc	ra,0xffffc
ffffffff80005852:	bd6080e7          	jalr	-1066(ra) # ffffffff80001424 <spinlock_lock_debug>
ffffffff80005856:	4541                	li	a0,16
ffffffff80005858:	ffffd097          	auipc	ra,0xffffd
ffffffff8000585c:	322080e7          	jalr	802(ra) # ffffffff80002b7a <kmalloc>
ffffffff80005860:	8baa                	mv	s7,a0
ffffffff80005862:	01653023          	sd	s6,0(a0)
ffffffff80005866:	04000513          	li	a0,64
ffffffff8000586a:	ffffd097          	auipc	ra,0xffffd
ffffffff8000586e:	310080e7          	jalr	784(ra) # ffffffff80002b7a <kmalloc>
ffffffff80005872:	00053423          	sd	zero,8(a0)
ffffffff80005876:	00053823          	sd	zero,16(a0)
ffffffff8000587a:	00053023          	sd	zero,0(a0)
ffffffff8000587e:	fa042823          	sw	zero,-80(s0)
ffffffff80005882:	800085b7          	lui	a1,0x80008
ffffffff80005886:	50f58593          	addi	a1,a1,1295 # ffffffff8000850f <$d.1>
ffffffff8000588a:	fab43023          	sd	a1,-96(s0)
ffffffff8000588e:	f8b43c23          	sd	a1,-104(s0)
ffffffff80005892:	f8042823          	sw	zero,-112(s0)
ffffffff80005896:	55fd                	li	a1,-1
ffffffff80005898:	f8b43023          	sd	a1,-128(s0)
ffffffff8000589c:	fb042583          	lw	a1,-80(s0)
ffffffff800058a0:	cd0c                	sw	a1,24(a0)
ffffffff800058a2:	fac42583          	lw	a1,-84(s0)
ffffffff800058a6:	cd4c                	sw	a1,28(a0)
ffffffff800058a8:	fa043583          	ld	a1,-96(s0)
ffffffff800058ac:	f10c                	sd	a1,32(a0)
ffffffff800058ae:	f9843583          	ld	a1,-104(s0)
ffffffff800058b2:	f50c                	sd	a1,40(a0)
ffffffff800058b4:	f9042583          	lw	a1,-112(s0)
ffffffff800058b8:	d90c                	sw	a1,48(a0)
ffffffff800058ba:	f8c42583          	lw	a1,-116(s0)
ffffffff800058be:	d94c                	sw	a1,52(a0)
ffffffff800058c0:	f8043583          	ld	a1,-128(s0)
ffffffff800058c4:	fd0c                	sd	a1,56(a0)
ffffffff800058c6:	000ab583          	ld	a1,0(s5)
ffffffff800058ca:	00abb423          	sd	a0,8(s7)
ffffffff800058ce:	c1b9                	beqz	a1,ffffffff80005914 <gentree_insert+0x106>
ffffffff800058d0:	008a3483          	ld	s1,8(s4)
ffffffff800058d4:	01848a13          	addi	s4,s1,24
ffffffff800058d8:	80008537          	lui	a0,0x80008
ffffffff800058dc:	5d550613          	addi	a2,a0,1493 # ffffffff800085d5 <$d.1+0xc6>
ffffffff800058e0:	80008537          	lui	a0,0x80008
ffffffff800058e4:	3e450693          	addi	a3,a0,996 # ffffffff800083e4 <$d.2+0x6c>
ffffffff800058e8:	04900713          	li	a4,73
ffffffff800058ec:	8552                	mv	a0,s4
ffffffff800058ee:	85ce                	mv	a1,s3
ffffffff800058f0:	ffffc097          	auipc	ra,0xffffc
ffffffff800058f4:	b34080e7          	jalr	-1228(ra) # ffffffff80001424 <spinlock_lock_debug>
ffffffff800058f8:	4561                	li	a0,24
ffffffff800058fa:	ffffd097          	auipc	ra,0xffffd
ffffffff800058fe:	280080e7          	jalr	640(ra) # ffffffff80002b7a <kmalloc>
ffffffff80005902:	648c                	ld	a1,8(s1)
ffffffff80005904:	01753023          	sd	s7,0(a0)
ffffffff80005908:	00053423          	sd	zero,8(a0)
ffffffff8000590c:	e90c                	sd	a1,16(a0)
ffffffff8000590e:	c591                	beqz	a1,ffffffff8000591a <gentree_insert+0x10c>
ffffffff80005910:	05a1                	addi	a1,a1,8
ffffffff80005912:	a031                	j	ffffffff8000591e <gentree_insert+0x110>
ffffffff80005914:	017ab023          	sd	s7,0(s5)
ffffffff80005918:	a829                	j	ffffffff80005932 <gentree_insert+0x124>
ffffffff8000591a:	01048593          	addi	a1,s1,16
ffffffff8000591e:	6090                	ld	a2,0(s1)
ffffffff80005920:	e188                	sd	a0,0(a1)
ffffffff80005922:	e488                	sd	a0,8(s1)
ffffffff80005924:	0605                	addi	a2,a2,1
ffffffff80005926:	e090                	sd	a2,0(s1)
ffffffff80005928:	8552                	mv	a0,s4
ffffffff8000592a:	ffffd097          	auipc	ra,0xffffd
ffffffff8000592e:	89e080e7          	jalr	-1890(ra) # ffffffff800021c8 <spinlock_unlock>
ffffffff80005932:	854a                	mv	a0,s2
ffffffff80005934:	ffffd097          	auipc	ra,0xffffd
ffffffff80005938:	894080e7          	jalr	-1900(ra) # ffffffff800021c8 <spinlock_unlock>
ffffffff8000593c:	855e                	mv	a0,s7
ffffffff8000593e:	70e6                	ld	ra,120(sp)
ffffffff80005940:	7446                	ld	s0,112(sp)
ffffffff80005942:	74a6                	ld	s1,104(sp)
ffffffff80005944:	7906                	ld	s2,96(sp)
ffffffff80005946:	69e6                	ld	s3,88(sp)
ffffffff80005948:	6a46                	ld	s4,80(sp)
ffffffff8000594a:	6aa6                	ld	s5,72(sp)
ffffffff8000594c:	6b06                	ld	s6,64(sp)
ffffffff8000594e:	7be2                	ld	s7,56(sp)
ffffffff80005950:	6109                	addi	sp,sp,128
ffffffff80005952:	8082                	ret

ffffffff80005954 <gentree_get_parent>:
ffffffff80005954:	7139                	addi	sp,sp,-64
ffffffff80005956:	fc06                	sd	ra,56(sp)
ffffffff80005958:	f822                	sd	s0,48(sp)
ffffffff8000595a:	f426                	sd	s1,40(sp)
ffffffff8000595c:	f04a                	sd	s2,32(sp)
ffffffff8000595e:	ec4e                	sd	s3,24(sp)
ffffffff80005960:	e852                	sd	s4,16(sp)
ffffffff80005962:	e456                	sd	s5,8(sp)
ffffffff80005964:	0080                	addi	s0,sp,64
ffffffff80005966:	8932                	mv	s2,a2
ffffffff80005968:	89ae                	mv	s3,a1
ffffffff8000596a:	84aa                	mv	s1,a0
ffffffff8000596c:	00850a13          	addi	s4,a0,8
ffffffff80005970:	80008537          	lui	a0,0x80008
ffffffff80005974:	1af50593          	addi	a1,a0,431 # ffffffff800081af <$d.2+0x89>
ffffffff80005978:	80008537          	lui	a0,0x80008
ffffffff8000597c:	43950613          	addi	a2,a0,1081 # ffffffff80008439 <$d.2+0xe>
ffffffff80005980:	80008537          	lui	a0,0x80008
ffffffff80005984:	68a50693          	addi	a3,a0,1674 # ffffffff8000868a <$d.1+0x17b>
ffffffff80005988:	13200713          	li	a4,306
ffffffff8000598c:	8552                	mv	a0,s4
ffffffff8000598e:	ffffc097          	auipc	ra,0xffffc
ffffffff80005992:	a96080e7          	jalr	-1386(ra) # ffffffff80001424 <spinlock_lock_debug>
ffffffff80005996:	0004ba83          	ld	s5,0(s1)
ffffffff8000599a:	8552                	mv	a0,s4
ffffffff8000599c:	ffffd097          	auipc	ra,0xffffd
ffffffff800059a0:	82c080e7          	jalr	-2004(ra) # ffffffff800021c8 <spinlock_unlock>
ffffffff800059a4:	033a8163          	beq	s5,s3,ffffffff800059c6 <gentree_get_parent+0x72>
ffffffff800059a8:	608c                	ld	a1,0(s1)
ffffffff800059aa:	854e                	mv	a0,s3
ffffffff800059ac:	864a                	mv	a2,s2
ffffffff800059ae:	70e2                	ld	ra,56(sp)
ffffffff800059b0:	7442                	ld	s0,48(sp)
ffffffff800059b2:	74a2                	ld	s1,40(sp)
ffffffff800059b4:	7902                	ld	s2,32(sp)
ffffffff800059b6:	69e2                	ld	s3,24(sp)
ffffffff800059b8:	6a42                	ld	s4,16(sp)
ffffffff800059ba:	6aa2                	ld	s5,8(sp)
ffffffff800059bc:	6121                	addi	sp,sp,64
ffffffff800059be:	00000317          	auipc	t1,0x0
ffffffff800059c2:	01c30067          	jr	28(t1) # ffffffff800059da <gentree_get_parent_recursive>
ffffffff800059c6:	4501                	li	a0,0
ffffffff800059c8:	70e2                	ld	ra,56(sp)
ffffffff800059ca:	7442                	ld	s0,48(sp)
ffffffff800059cc:	74a2                	ld	s1,40(sp)
ffffffff800059ce:	7902                	ld	s2,32(sp)
ffffffff800059d0:	69e2                	ld	s3,24(sp)
ffffffff800059d2:	6a42                	ld	s4,16(sp)
ffffffff800059d4:	6aa2                	ld	s5,8(sp)
ffffffff800059d6:	6121                	addi	sp,sp,64
ffffffff800059d8:	8082                	ret

ffffffff800059da <gentree_get_parent_recursive>:
ffffffff800059da:	715d                	addi	sp,sp,-80
ffffffff800059dc:	e486                	sd	ra,72(sp)
ffffffff800059de:	e0a2                	sd	s0,64(sp)
ffffffff800059e0:	fc26                	sd	s1,56(sp)
ffffffff800059e2:	f84a                	sd	s2,48(sp)
ffffffff800059e4:	f44e                	sd	s3,40(sp)
ffffffff800059e6:	f052                	sd	s4,32(sp)
ffffffff800059e8:	ec56                	sd	s5,24(sp)
ffffffff800059ea:	e85a                	sd	s6,16(sp)
ffffffff800059ec:	e45e                	sd	s7,8(sp)
ffffffff800059ee:	e062                	sd	s8,0(sp)
ffffffff800059f0:	0880                	addi	s0,sp,80
ffffffff800059f2:	8bae                	mv	s7,a1
ffffffff800059f4:	6584                	ld	s1,8(a1)
ffffffff800059f6:	8932                	mv	s2,a2
ffffffff800059f8:	89aa                	mv	s3,a0
ffffffff800059fa:	01848a13          	addi	s4,s1,24
ffffffff800059fe:	80008537          	lui	a0,0x80008
ffffffff80005a02:	1af50593          	addi	a1,a0,431 # ffffffff800081af <$d.2+0x89>
ffffffff80005a06:	80008537          	lui	a0,0x80008
ffffffff80005a0a:	53550613          	addi	a2,a0,1333 # ffffffff80008535 <$d.1+0x26>
ffffffff80005a0e:	80008537          	lui	a0,0x80008
ffffffff80005a12:	3e450693          	addi	a3,a0,996 # ffffffff800083e4 <$d.2+0x6c>
ffffffff80005a16:	0d800713          	li	a4,216
ffffffff80005a1a:	8552                	mv	a0,s4
ffffffff80005a1c:	ffffc097          	auipc	ra,0xffffc
ffffffff80005a20:	a08080e7          	jalr	-1528(ra) # ffffffff80001424 <spinlock_lock_debug>
ffffffff80005a24:	6488                	ld	a0,8(s1)
ffffffff80005a26:	c901                	beqz	a0,ffffffff80005a36 <gentree_get_parent_recursive+0x5c>
ffffffff80005a28:	4481                	li	s1,0
ffffffff80005a2a:	610c                	ld	a1,0(a0)
ffffffff80005a2c:	09358f63          	beq	a1,s3,ffffffff80005aca <gentree_get_parent_recursive+0xf0>
ffffffff80005a30:	6908                	ld	a0,16(a0)
ffffffff80005a32:	14fd                	addi	s1,s1,-1
ffffffff80005a34:	f97d                	bnez	a0,ffffffff80005a2a <gentree_get_parent_recursive+0x50>
ffffffff80005a36:	8552                	mv	a0,s4
ffffffff80005a38:	ffffc097          	auipc	ra,0xffffc
ffffffff80005a3c:	790080e7          	jalr	1936(ra) # ffffffff800021c8 <spinlock_unlock>
ffffffff80005a40:	008bb503          	ld	a0,8(s7)
ffffffff80005a44:	0561                	addi	a0,a0,24
ffffffff80005a46:	800085b7          	lui	a1,0x80008
ffffffff80005a4a:	1af58a13          	addi	s4,a1,431 # ffffffff800081af <$d.2+0x89>
ffffffff80005a4e:	800085b7          	lui	a1,0x80008
ffffffff80005a52:	17658a93          	addi	s5,a1,374 # ffffffff80008176 <$d.2+0x50>
ffffffff80005a56:	800085b7          	lui	a1,0x80008
ffffffff80005a5a:	1cf58b13          	addi	s6,a1,463 # ffffffff800081cf <$d.2+0xa9>
ffffffff80005a5e:	12200713          	li	a4,290
ffffffff80005a62:	85d2                	mv	a1,s4
ffffffff80005a64:	8656                	mv	a2,s5
ffffffff80005a66:	86da                	mv	a3,s6
ffffffff80005a68:	ffffc097          	auipc	ra,0xffffc
ffffffff80005a6c:	9bc080e7          	jalr	-1604(ra) # ffffffff80001424 <spinlock_lock_debug>
ffffffff80005a70:	008bb503          	ld	a0,8(s7)
ffffffff80005a74:	6504                	ld	s1,8(a0)
ffffffff80005a76:	c0b9                	beqz	s1,ffffffff80005abc <gentree_get_parent_recursive+0xe2>
ffffffff80005a78:	008bb503          	ld	a0,8(s7)
ffffffff80005a7c:	0561                	addi	a0,a0,24
ffffffff80005a7e:	ffffc097          	auipc	ra,0xffffc
ffffffff80005a82:	74a080e7          	jalr	1866(ra) # ffffffff800021c8 <spinlock_unlock>
ffffffff80005a86:	608c                	ld	a1,0(s1)
ffffffff80005a88:	854e                	mv	a0,s3
ffffffff80005a8a:	864a                	mv	a2,s2
ffffffff80005a8c:	00000097          	auipc	ra,0x0
ffffffff80005a90:	f4e080e7          	jalr	-178(ra) # ffffffff800059da <gentree_get_parent_recursive>
ffffffff80005a94:	008bb583          	ld	a1,8(s7)
ffffffff80005a98:	8c2a                	mv	s8,a0
ffffffff80005a9a:	01858513          	addi	a0,a1,24
ffffffff80005a9e:	12600713          	li	a4,294
ffffffff80005aa2:	85d2                	mv	a1,s4
ffffffff80005aa4:	8656                	mv	a2,s5
ffffffff80005aa6:	86da                	mv	a3,s6
ffffffff80005aa8:	ffffc097          	auipc	ra,0xffffc
ffffffff80005aac:	97c080e7          	jalr	-1668(ra) # ffffffff80001424 <spinlock_lock_debug>
ffffffff80005ab0:	020c1c63          	bnez	s8,ffffffff80005ae8 <gentree_get_parent_recursive+0x10e>
ffffffff80005ab4:	6884                	ld	s1,16(s1)
ffffffff80005ab6:	f0e9                	bnez	s1,ffffffff80005a78 <gentree_get_parent_recursive+0x9e>
ffffffff80005ab8:	008bb503          	ld	a0,8(s7)
ffffffff80005abc:	0561                	addi	a0,a0,24
ffffffff80005abe:	ffffc097          	auipc	ra,0xffffc
ffffffff80005ac2:	70a080e7          	jalr	1802(ra) # ffffffff800021c8 <spinlock_unlock>
ffffffff80005ac6:	4b81                	li	s7,0
ffffffff80005ac8:	a805                	j	ffffffff80005af8 <gentree_get_parent_recursive+0x11e>
ffffffff80005aca:	8552                	mv	a0,s4
ffffffff80005acc:	ffffc097          	auipc	ra,0xffffc
ffffffff80005ad0:	6fc080e7          	jalr	1788(ra) # ffffffff800021c8 <spinlock_unlock>
ffffffff80005ad4:	4505                	li	a0,1
ffffffff80005ad6:	f6a485e3          	beq	s1,a0,ffffffff80005a40 <gentree_get_parent_recursive+0x66>
ffffffff80005ada:	00090f63          	beqz	s2,ffffffff80005af8 <gentree_get_parent_recursive+0x11e>
ffffffff80005ade:	40900533          	neg	a0,s1
ffffffff80005ae2:	00a93023          	sd	a0,0(s2)
ffffffff80005ae6:	a809                	j	ffffffff80005af8 <gentree_get_parent_recursive+0x11e>
ffffffff80005ae8:	008bb503          	ld	a0,8(s7)
ffffffff80005aec:	0561                	addi	a0,a0,24
ffffffff80005aee:	ffffc097          	auipc	ra,0xffffc
ffffffff80005af2:	6da080e7          	jalr	1754(ra) # ffffffff800021c8 <spinlock_unlock>
ffffffff80005af6:	8be2                	mv	s7,s8
ffffffff80005af8:	855e                	mv	a0,s7
ffffffff80005afa:	60a6                	ld	ra,72(sp)
ffffffff80005afc:	6406                	ld	s0,64(sp)
ffffffff80005afe:	74e2                	ld	s1,56(sp)
ffffffff80005b00:	7942                	ld	s2,48(sp)
ffffffff80005b02:	79a2                	ld	s3,40(sp)
ffffffff80005b04:	7a02                	ld	s4,32(sp)
ffffffff80005b06:	6ae2                	ld	s5,24(sp)
ffffffff80005b08:	6b42                	ld	s6,16(sp)
ffffffff80005b0a:	6ba2                	ld	s7,8(sp)
ffffffff80005b0c:	6c02                	ld	s8,0(sp)
ffffffff80005b0e:	6161                	addi	sp,sp,80
ffffffff80005b10:	8082                	ret

ffffffff80005b12 <gentree_remove>:
ffffffff80005b12:	7139                	addi	sp,sp,-64
ffffffff80005b14:	fc06                	sd	ra,56(sp)
ffffffff80005b16:	f822                	sd	s0,48(sp)
ffffffff80005b18:	f426                	sd	s1,40(sp)
ffffffff80005b1a:	f04a                	sd	s2,32(sp)
ffffffff80005b1c:	ec4e                	sd	s3,24(sp)
ffffffff80005b1e:	e852                	sd	s4,16(sp)
ffffffff80005b20:	0080                	addi	s0,sp,64
ffffffff80005b22:	892e                	mv	s2,a1
ffffffff80005b24:	8a2a                	mv	s4,a0
ffffffff80005b26:	557d                	li	a0,-1
ffffffff80005b28:	fca43423          	sd	a0,-56(s0)
ffffffff80005b2c:	008a0993          	addi	s3,s4,8
ffffffff80005b30:	80008537          	lui	a0,0x80008
ffffffff80005b34:	1af50593          	addi	a1,a0,431 # ffffffff800081af <$d.2+0x89>
ffffffff80005b38:	80008537          	lui	a0,0x80008
ffffffff80005b3c:	43950613          	addi	a2,a0,1081 # ffffffff80008439 <$d.2+0xe>
ffffffff80005b40:	80008537          	lui	a0,0x80008
ffffffff80005b44:	68a50693          	addi	a3,a0,1674 # ffffffff8000868a <$d.1+0x17b>
ffffffff80005b48:	13200713          	li	a4,306
ffffffff80005b4c:	854e                	mv	a0,s3
ffffffff80005b4e:	ffffc097          	auipc	ra,0xffffc
ffffffff80005b52:	8d6080e7          	jalr	-1834(ra) # ffffffff80001424 <spinlock_lock_debug>
ffffffff80005b56:	000a3483          	ld	s1,0(s4)
ffffffff80005b5a:	854e                	mv	a0,s3
ffffffff80005b5c:	ffffc097          	auipc	ra,0xffffc
ffffffff80005b60:	66c080e7          	jalr	1644(ra) # ffffffff800021c8 <spinlock_unlock>
ffffffff80005b64:	07248d63          	beq	s1,s2,ffffffff80005bde <gentree_remove+0xcc>
ffffffff80005b68:	000a3583          	ld	a1,0(s4)
ffffffff80005b6c:	fc840613          	addi	a2,s0,-56
ffffffff80005b70:	854a                	mv	a0,s2
ffffffff80005b72:	00000097          	auipc	ra,0x0
ffffffff80005b76:	e68080e7          	jalr	-408(ra) # ffffffff800059da <gentree_get_parent_recursive>
ffffffff80005b7a:	c135                	beqz	a0,ffffffff80005bde <gentree_remove+0xcc>
ffffffff80005b7c:	00853983          	ld	s3,8(a0)
ffffffff80005b80:	fc843a03          	ld	s4,-56(s0)
ffffffff80005b84:	01898913          	addi	s2,s3,24
ffffffff80005b88:	80008537          	lui	a0,0x80008
ffffffff80005b8c:	1af50593          	addi	a1,a0,431 # ffffffff800081af <$d.2+0x89>
ffffffff80005b90:	80008537          	lui	a0,0x80008
ffffffff80005b94:	16550613          	addi	a2,a0,357 # ffffffff80008165 <$d.2+0x3f>
ffffffff80005b98:	80008537          	lui	a0,0x80008
ffffffff80005b9c:	3e450693          	addi	a3,a0,996 # ffffffff800083e4 <$d.2+0x6c>
ffffffff80005ba0:	0ea00713          	li	a4,234
ffffffff80005ba4:	854a                	mv	a0,s2
ffffffff80005ba6:	ffffc097          	auipc	ra,0xffffc
ffffffff80005baa:	87e080e7          	jalr	-1922(ra) # ffffffff80001424 <spinlock_lock_debug>
ffffffff80005bae:	0089b483          	ld	s1,8(s3)
ffffffff80005bb2:	c499                	beqz	s1,ffffffff80005bc0 <gentree_remove+0xae>
ffffffff80005bb4:	0a05                	addi	s4,s4,1
ffffffff80005bb6:	1a7d                	addi	s4,s4,-1
ffffffff80005bb8:	000a0463          	beqz	s4,ffffffff80005bc0 <gentree_remove+0xae>
ffffffff80005bbc:	6884                	ld	s1,16(s1)
ffffffff80005bbe:	fce5                	bnez	s1,ffffffff80005bb6 <gentree_remove+0xa4>
ffffffff80005bc0:	854a                	mv	a0,s2
ffffffff80005bc2:	ffffc097          	auipc	ra,0xffffc
ffffffff80005bc6:	606080e7          	jalr	1542(ra) # ffffffff800021c8 <spinlock_unlock>
ffffffff80005bca:	854e                	mv	a0,s3
ffffffff80005bcc:	85a6                	mv	a1,s1
ffffffff80005bce:	00000097          	auipc	ra,0x0
ffffffff80005bd2:	814080e7          	jalr	-2028(ra) # ffffffff800053e2 <list_remove>
ffffffff80005bd6:	ffffd097          	auipc	ra,0xffffd
ffffffff80005bda:	05c080e7          	jalr	92(ra) # ffffffff80002c32 <kfree>
ffffffff80005bde:	70e2                	ld	ra,56(sp)
ffffffff80005be0:	7442                	ld	s0,48(sp)
ffffffff80005be2:	74a2                	ld	s1,40(sp)
ffffffff80005be4:	7902                	ld	s2,32(sp)
ffffffff80005be6:	69e2                	ld	s3,24(sp)
ffffffff80005be8:	6a42                	ld	s4,16(sp)
ffffffff80005bea:	6121                	addi	sp,sp,64
ffffffff80005bec:	8082                	ret

ffffffff80005bee <hashmap_string_hash>:
ffffffff80005bee:	00054603          	lbu	a2,0(a0)
ffffffff80005bf2:	ca05                	beqz	a2,ffffffff80005c22 <hashmap_string_hash+0x34>
ffffffff80005bf4:	1141                	addi	sp,sp,-16
ffffffff80005bf6:	e406                	sd	ra,8(sp)
ffffffff80005bf8:	e022                	sd	s0,0(sp)
ffffffff80005bfa:	0800                	addi	s0,sp,16
ffffffff80005bfc:	85aa                	mv	a1,a0
ffffffff80005bfe:	4501                	li	a0,0
ffffffff80005c00:	0585                	addi	a1,a1,1
ffffffff80005c02:	66c1                	lui	a3,0x10
ffffffff80005c04:	03f68693          	addi	a3,a3,63 # 1003f <$d.3+0x52f1>
ffffffff80005c08:	0ff67713          	zext.b	a4,a2
ffffffff80005c0c:	0005c603          	lbu	a2,0(a1)
ffffffff80005c10:	02d50533          	mul	a0,a0,a3
ffffffff80005c14:	9d39                	addw	a0,a0,a4
ffffffff80005c16:	0585                	addi	a1,a1,1
ffffffff80005c18:	fa65                	bnez	a2,ffffffff80005c08 <hashmap_string_hash+0x1a>
ffffffff80005c1a:	60a2                	ld	ra,8(sp)
ffffffff80005c1c:	6402                	ld	s0,0(sp)
ffffffff80005c1e:	0141                	addi	sp,sp,16
ffffffff80005c20:	8082                	ret
ffffffff80005c22:	4501                	li	a0,0
ffffffff80005c24:	8082                	ret

ffffffff80005c26 <hashmap_create>:
ffffffff80005c26:	711d                	addi	sp,sp,-96
ffffffff80005c28:	ec86                	sd	ra,88(sp)
ffffffff80005c2a:	e8a2                	sd	s0,80(sp)
ffffffff80005c2c:	e4a6                	sd	s1,72(sp)
ffffffff80005c2e:	e0ca                	sd	s2,64(sp)
ffffffff80005c30:	1080                	addi	s0,sp,96
ffffffff80005c32:	892a                	mv	s2,a0
ffffffff80005c34:	03800513          	li	a0,56
ffffffff80005c38:	ffffd097          	auipc	ra,0xffffd
ffffffff80005c3c:	f42080e7          	jalr	-190(ra) # ffffffff80002b7a <kmalloc>
ffffffff80005c40:	84aa                	mv	s1,a0
ffffffff80005c42:	03253423          	sd	s2,40(a0)
ffffffff80005c46:	00391513          	slli	a0,s2,0x3
ffffffff80005c4a:	ffffd097          	auipc	ra,0xffffd
ffffffff80005c4e:	f30080e7          	jalr	-208(ra) # ffffffff80002b7a <kmalloc>
ffffffff80005c52:	f888                	sd	a0,48(s1)
ffffffff80005c54:	fc042c23          	sw	zero,-40(s0)
ffffffff80005c58:	80008537          	lui	a0,0x80008
ffffffff80005c5c:	50f50513          	addi	a0,a0,1295 # ffffffff8000850f <$d.1>
ffffffff80005c60:	fca43423          	sd	a0,-56(s0)
ffffffff80005c64:	fca43023          	sd	a0,-64(s0)
ffffffff80005c68:	fa042c23          	sw	zero,-72(s0)
ffffffff80005c6c:	557d                	li	a0,-1
ffffffff80005c6e:	faa43423          	sd	a0,-88(s0)
ffffffff80005c72:	fd842503          	lw	a0,-40(s0)
ffffffff80005c76:	c088                	sw	a0,0(s1)
ffffffff80005c78:	fd442503          	lw	a0,-44(s0)
ffffffff80005c7c:	c0c8                	sw	a0,4(s1)
ffffffff80005c7e:	fc843503          	ld	a0,-56(s0)
ffffffff80005c82:	e488                	sd	a0,8(s1)
ffffffff80005c84:	fc043503          	ld	a0,-64(s0)
ffffffff80005c88:	e888                	sd	a0,16(s1)
ffffffff80005c8a:	fb842503          	lw	a0,-72(s0)
ffffffff80005c8e:	cc88                	sw	a0,24(s1)
ffffffff80005c90:	fb442503          	lw	a0,-76(s0)
ffffffff80005c94:	ccc8                	sw	a0,28(s1)
ffffffff80005c96:	fa843503          	ld	a0,-88(s0)
ffffffff80005c9a:	f088                	sd	a0,32(s1)
ffffffff80005c9c:	8526                	mv	a0,s1
ffffffff80005c9e:	60e6                	ld	ra,88(sp)
ffffffff80005ca0:	6446                	ld	s0,80(sp)
ffffffff80005ca2:	64a6                	ld	s1,72(sp)
ffffffff80005ca4:	6906                	ld	s2,64(sp)
ffffffff80005ca6:	6125                	addi	sp,sp,96
ffffffff80005ca8:	8082                	ret

ffffffff80005caa <hashmap_delete>:
ffffffff80005caa:	7179                	addi	sp,sp,-48
ffffffff80005cac:	f406                	sd	ra,40(sp)
ffffffff80005cae:	f022                	sd	s0,32(sp)
ffffffff80005cb0:	ec26                	sd	s1,24(sp)
ffffffff80005cb2:	e84a                	sd	s2,16(sp)
ffffffff80005cb4:	e44e                	sd	s3,8(sp)
ffffffff80005cb6:	e052                	sd	s4,0(sp)
ffffffff80005cb8:	1800                	addi	s0,sp,48
ffffffff80005cba:	892a                	mv	s2,a0
ffffffff80005cbc:	80008537          	lui	a0,0x80008
ffffffff80005cc0:	1af50593          	addi	a1,a0,431 # ffffffff800081af <$d.2+0x89>
ffffffff80005cc4:	80008537          	lui	a0,0x80008
ffffffff80005cc8:	44c50613          	addi	a2,a0,1100 # ffffffff8000844c <$d.2+0x21>
ffffffff80005ccc:	80008537          	lui	a0,0x80008
ffffffff80005cd0:	1c450693          	addi	a3,a0,452 # ffffffff800081c4 <$d.2+0x9e>
ffffffff80005cd4:	15d00713          	li	a4,349
ffffffff80005cd8:	854a                	mv	a0,s2
ffffffff80005cda:	ffffb097          	auipc	ra,0xffffb
ffffffff80005cde:	74a080e7          	jalr	1866(ra) # ffffffff80001424 <spinlock_lock_debug>
ffffffff80005ce2:	02893503          	ld	a0,40(s2)
ffffffff80005ce6:	c94d                	beqz	a0,ffffffff80005d98 <hashmap_delete+0xee>
ffffffff80005ce8:	4981                	li	s3,0
ffffffff80005cea:	a021                	j	ffffffff80005cf2 <hashmap_delete+0x48>
ffffffff80005cec:	0985                	addi	s3,s3,1
ffffffff80005cee:	0aa9f563          	bgeu	s3,a0,ffffffff80005d98 <hashmap_delete+0xee>
ffffffff80005cf2:	03093583          	ld	a1,48(s2)
ffffffff80005cf6:	00399613          	slli	a2,s3,0x3
ffffffff80005cfa:	95b2                	add	a1,a1,a2
ffffffff80005cfc:	6184                	ld	s1,0(a1)
ffffffff80005cfe:	d4fd                	beqz	s1,ffffffff80005cec <hashmap_delete+0x42>
ffffffff80005d00:	0114c503          	lbu	a0,17(s1)
ffffffff80005d04:	0104c583          	lbu	a1,16(s1)
ffffffff80005d08:	0124c603          	lbu	a2,18(s1)
ffffffff80005d0c:	0134c683          	lbu	a3,19(s1)
ffffffff80005d10:	0522                	slli	a0,a0,0x8
ffffffff80005d12:	8d4d                	or	a0,a0,a1
ffffffff80005d14:	0642                	slli	a2,a2,0x10
ffffffff80005d16:	06e2                	slli	a3,a3,0x18
ffffffff80005d18:	8e55                	or	a2,a2,a3
ffffffff80005d1a:	8d51                	or	a0,a0,a2
ffffffff80005d1c:	0154c583          	lbu	a1,21(s1)
ffffffff80005d20:	0144c603          	lbu	a2,20(s1)
ffffffff80005d24:	0164c683          	lbu	a3,22(s1)
ffffffff80005d28:	0174c703          	lbu	a4,23(s1)
ffffffff80005d2c:	05a2                	slli	a1,a1,0x8
ffffffff80005d2e:	8dd1                	or	a1,a1,a2
ffffffff80005d30:	06c2                	slli	a3,a3,0x10
ffffffff80005d32:	0762                	slli	a4,a4,0x18
ffffffff80005d34:	8ed9                	or	a3,a3,a4
ffffffff80005d36:	8dd5                	or	a1,a1,a3
ffffffff80005d38:	1582                	slli	a1,a1,0x20
ffffffff80005d3a:	00a5ea33          	or	s4,a1,a0
ffffffff80005d3e:	0014c503          	lbu	a0,1(s1)
ffffffff80005d42:	0004c583          	lbu	a1,0(s1)
ffffffff80005d46:	0024c603          	lbu	a2,2(s1)
ffffffff80005d4a:	0034c683          	lbu	a3,3(s1)
ffffffff80005d4e:	0522                	slli	a0,a0,0x8
ffffffff80005d50:	8d4d                	or	a0,a0,a1
ffffffff80005d52:	0642                	slli	a2,a2,0x10
ffffffff80005d54:	06e2                	slli	a3,a3,0x18
ffffffff80005d56:	8e55                	or	a2,a2,a3
ffffffff80005d58:	8d51                	or	a0,a0,a2
ffffffff80005d5a:	0054c583          	lbu	a1,5(s1)
ffffffff80005d5e:	0044c603          	lbu	a2,4(s1)
ffffffff80005d62:	0064c683          	lbu	a3,6(s1)
ffffffff80005d66:	0074c703          	lbu	a4,7(s1)
ffffffff80005d6a:	05a2                	slli	a1,a1,0x8
ffffffff80005d6c:	8dd1                	or	a1,a1,a2
ffffffff80005d6e:	06c2                	slli	a3,a3,0x10
ffffffff80005d70:	0762                	slli	a4,a4,0x18
ffffffff80005d72:	8ed9                	or	a3,a3,a4
ffffffff80005d74:	8dd5                	or	a1,a1,a3
ffffffff80005d76:	1582                	slli	a1,a1,0x20
ffffffff80005d78:	8d4d                	or	a0,a0,a1
ffffffff80005d7a:	ffffd097          	auipc	ra,0xffffd
ffffffff80005d7e:	eb8080e7          	jalr	-328(ra) # ffffffff80002c32 <kfree>
ffffffff80005d82:	8526                	mv	a0,s1
ffffffff80005d84:	ffffd097          	auipc	ra,0xffffd
ffffffff80005d88:	eae080e7          	jalr	-338(ra) # ffffffff80002c32 <kfree>
ffffffff80005d8c:	84d2                	mv	s1,s4
ffffffff80005d8e:	f60a19e3          	bnez	s4,ffffffff80005d00 <hashmap_delete+0x56>
ffffffff80005d92:	02893503          	ld	a0,40(s2)
ffffffff80005d96:	bf99                	j	ffffffff80005cec <hashmap_delete+0x42>
ffffffff80005d98:	854a                	mv	a0,s2
ffffffff80005d9a:	70a2                	ld	ra,40(sp)
ffffffff80005d9c:	7402                	ld	s0,32(sp)
ffffffff80005d9e:	64e2                	ld	s1,24(sp)
ffffffff80005da0:	6942                	ld	s2,16(sp)
ffffffff80005da2:	69a2                	ld	s3,8(sp)
ffffffff80005da4:	6a02                	ld	s4,0(sp)
ffffffff80005da6:	6145                	addi	sp,sp,48
ffffffff80005da8:	ffffd317          	auipc	t1,0xffffd
ffffffff80005dac:	e8a30067          	jr	-374(t1) # ffffffff80002c32 <kfree>

ffffffff80005db0 <hashmap_set>:
ffffffff80005db0:	7139                	addi	sp,sp,-64
ffffffff80005db2:	fc06                	sd	ra,56(sp)
ffffffff80005db4:	f822                	sd	s0,48(sp)
ffffffff80005db6:	f426                	sd	s1,40(sp)
ffffffff80005db8:	f04a                	sd	s2,32(sp)
ffffffff80005dba:	ec4e                	sd	s3,24(sp)
ffffffff80005dbc:	e852                	sd	s4,16(sp)
ffffffff80005dbe:	e456                	sd	s5,8(sp)
ffffffff80005dc0:	0080                	addi	s0,sp,64
ffffffff80005dc2:	8a2e                	mv	s4,a1
ffffffff80005dc4:	0005c583          	lbu	a1,0(a1)
ffffffff80005dc8:	89b2                	mv	s3,a2
ffffffff80005dca:	892a                	mv	s2,a0
ffffffff80005dcc:	c585                	beqz	a1,ffffffff80005df4 <hashmap_set+0x44>
ffffffff80005dce:	4501                	li	a0,0
ffffffff80005dd0:	001a0613          	addi	a2,s4,1
ffffffff80005dd4:	66c1                	lui	a3,0x10
ffffffff80005dd6:	03f68693          	addi	a3,a3,63 # 1003f <$d.3+0x52f1>
ffffffff80005dda:	0ff5f713          	zext.b	a4,a1
ffffffff80005dde:	00064583          	lbu	a1,0(a2)
ffffffff80005de2:	02d50533          	mul	a0,a0,a3
ffffffff80005de6:	953a                	add	a0,a0,a4
ffffffff80005de8:	0605                	addi	a2,a2,1
ffffffff80005dea:	f9e5                	bnez	a1,ffffffff80005dda <hashmap_set+0x2a>
ffffffff80005dec:	1502                	slli	a0,a0,0x20
ffffffff80005dee:	02055a93          	srli	s5,a0,0x20
ffffffff80005df2:	a011                	j	ffffffff80005df6 <hashmap_set+0x46>
ffffffff80005df4:	4a81                	li	s5,0
ffffffff80005df6:	80008537          	lui	a0,0x80008
ffffffff80005dfa:	1af50593          	addi	a1,a0,431 # ffffffff800081af <$d.2+0x89>
ffffffff80005dfe:	80009537          	lui	a0,0x80009
ffffffff80005e02:	82c50613          	addi	a2,a0,-2004 # ffffffff8000882c <$d.2+0x8b>
ffffffff80005e06:	80008537          	lui	a0,0x80008
ffffffff80005e0a:	1c450693          	addi	a3,a0,452 # ffffffff800081c4 <$d.2+0x9e>
ffffffff80005e0e:	17000713          	li	a4,368
ffffffff80005e12:	854a                	mv	a0,s2
ffffffff80005e14:	ffffb097          	auipc	ra,0xffffb
ffffffff80005e18:	610080e7          	jalr	1552(ra) # ffffffff80001424 <spinlock_lock_debug>
ffffffff80005e1c:	02893503          	ld	a0,40(s2)
ffffffff80005e20:	03093583          	ld	a1,48(s2)
ffffffff80005e24:	02aaf533          	remu	a0,s5,a0
ffffffff80005e28:	050e                	slli	a0,a0,0x3
ffffffff80005e2a:	952e                	add	a0,a0,a1
ffffffff80005e2c:	6108                	ld	a0,0(a0)
ffffffff80005e2e:	16050c63          	beqz	a0,ffffffff80005fa6 <hashmap_set+0x1f6>
ffffffff80005e32:	84aa                	mv	s1,a0
ffffffff80005e34:	00154503          	lbu	a0,1(a0)
ffffffff80005e38:	0004c583          	lbu	a1,0(s1)
ffffffff80005e3c:	0024c603          	lbu	a2,2(s1)
ffffffff80005e40:	0034c683          	lbu	a3,3(s1)
ffffffff80005e44:	0522                	slli	a0,a0,0x8
ffffffff80005e46:	8d4d                	or	a0,a0,a1
ffffffff80005e48:	0642                	slli	a2,a2,0x10
ffffffff80005e4a:	06e2                	slli	a3,a3,0x18
ffffffff80005e4c:	8e55                	or	a2,a2,a3
ffffffff80005e4e:	8d51                	or	a0,a0,a2
ffffffff80005e50:	0054c583          	lbu	a1,5(s1)
ffffffff80005e54:	0044c603          	lbu	a2,4(s1)
ffffffff80005e58:	0064c683          	lbu	a3,6(s1)
ffffffff80005e5c:	0074c703          	lbu	a4,7(s1)
ffffffff80005e60:	05a2                	slli	a1,a1,0x8
ffffffff80005e62:	8dd1                	or	a1,a1,a2
ffffffff80005e64:	06c2                	slli	a3,a3,0x10
ffffffff80005e66:	0762                	slli	a4,a4,0x18
ffffffff80005e68:	8ed9                	or	a3,a3,a4
ffffffff80005e6a:	8dd5                	or	a1,a1,a3
ffffffff80005e6c:	1582                	slli	a1,a1,0x20
ffffffff80005e6e:	8d4d                	or	a0,a0,a1
ffffffff80005e70:	85d2                	mv	a1,s4
ffffffff80005e72:	00001097          	auipc	ra,0x1
ffffffff80005e76:	ad2080e7          	jalr	-1326(ra) # ffffffff80006944 <strcmp>
ffffffff80005e7a:	1e050c63          	beqz	a0,ffffffff80006072 <hashmap_set+0x2c2>
ffffffff80005e7e:	0114c503          	lbu	a0,17(s1)
ffffffff80005e82:	0104c583          	lbu	a1,16(s1)
ffffffff80005e86:	0124c603          	lbu	a2,18(s1)
ffffffff80005e8a:	0134c683          	lbu	a3,19(s1)
ffffffff80005e8e:	0522                	slli	a0,a0,0x8
ffffffff80005e90:	8d4d                	or	a0,a0,a1
ffffffff80005e92:	0642                	slli	a2,a2,0x10
ffffffff80005e94:	06e2                	slli	a3,a3,0x18
ffffffff80005e96:	8e55                	or	a2,a2,a3
ffffffff80005e98:	8d51                	or	a0,a0,a2
ffffffff80005e9a:	0154c583          	lbu	a1,21(s1)
ffffffff80005e9e:	0144c603          	lbu	a2,20(s1)
ffffffff80005ea2:	0164c683          	lbu	a3,22(s1)
ffffffff80005ea6:	0174c703          	lbu	a4,23(s1)
ffffffff80005eaa:	05a2                	slli	a1,a1,0x8
ffffffff80005eac:	8dd1                	or	a1,a1,a2
ffffffff80005eae:	06c2                	slli	a3,a3,0x10
ffffffff80005eb0:	0762                	slli	a4,a4,0x18
ffffffff80005eb2:	8ed9                	or	a3,a3,a4
ffffffff80005eb4:	8dd5                	or	a1,a1,a3
ffffffff80005eb6:	1582                	slli	a1,a1,0x20
ffffffff80005eb8:	8d4d                	or	a0,a0,a1
ffffffff80005eba:	fd25                	bnez	a0,ffffffff80005e32 <hashmap_set+0x82>
ffffffff80005ebc:	4561                	li	a0,24
ffffffff80005ebe:	ffffd097          	auipc	ra,0xffffd
ffffffff80005ec2:	cbc080e7          	jalr	-836(ra) # ffffffff80002b7a <kmalloc>
ffffffff80005ec6:	8aaa                	mv	s5,a0
ffffffff80005ec8:	8552                	mv	a0,s4
ffffffff80005eca:	00001097          	auipc	ra,0x1
ffffffff80005ece:	b1c080e7          	jalr	-1252(ra) # ffffffff800069e6 <strdup>
ffffffff80005ed2:	00aa8023          	sb	a0,0(s5)
ffffffff80005ed6:	03855593          	srli	a1,a0,0x38
ffffffff80005eda:	00ba83a3          	sb	a1,7(s5)
ffffffff80005ede:	03055593          	srli	a1,a0,0x30
ffffffff80005ee2:	00ba8323          	sb	a1,6(s5)
ffffffff80005ee6:	02855593          	srli	a1,a0,0x28
ffffffff80005eea:	00ba82a3          	sb	a1,5(s5)
ffffffff80005eee:	02055593          	srli	a1,a0,0x20
ffffffff80005ef2:	00ba8223          	sb	a1,4(s5)
ffffffff80005ef6:	01855593          	srli	a1,a0,0x18
ffffffff80005efa:	00ba81a3          	sb	a1,3(s5)
ffffffff80005efe:	01055593          	srli	a1,a0,0x10
ffffffff80005f02:	00ba8123          	sb	a1,2(s5)
ffffffff80005f06:	8121                	srli	a0,a0,0x8
ffffffff80005f08:	00aa80a3          	sb	a0,1(s5)
ffffffff80005f0c:	000a8ba3          	sb	zero,23(s5)
ffffffff80005f10:	000a8b23          	sb	zero,22(s5)
ffffffff80005f14:	000a8aa3          	sb	zero,21(s5)
ffffffff80005f18:	000a8a23          	sb	zero,20(s5)
ffffffff80005f1c:	000a89a3          	sb	zero,19(s5)
ffffffff80005f20:	000a8923          	sb	zero,18(s5)
ffffffff80005f24:	000a88a3          	sb	zero,17(s5)
ffffffff80005f28:	000a8823          	sb	zero,16(s5)
ffffffff80005f2c:	0389d513          	srli	a0,s3,0x38
ffffffff80005f30:	00aa87a3          	sb	a0,15(s5)
ffffffff80005f34:	0309d513          	srli	a0,s3,0x30
ffffffff80005f38:	00aa8723          	sb	a0,14(s5)
ffffffff80005f3c:	0289d513          	srli	a0,s3,0x28
ffffffff80005f40:	00aa86a3          	sb	a0,13(s5)
ffffffff80005f44:	0209d513          	srli	a0,s3,0x20
ffffffff80005f48:	00aa8623          	sb	a0,12(s5)
ffffffff80005f4c:	0189d513          	srli	a0,s3,0x18
ffffffff80005f50:	00aa85a3          	sb	a0,11(s5)
ffffffff80005f54:	0109d513          	srli	a0,s3,0x10
ffffffff80005f58:	00aa8523          	sb	a0,10(s5)
ffffffff80005f5c:	0089d513          	srli	a0,s3,0x8
ffffffff80005f60:	00aa84a3          	sb	a0,9(s5)
ffffffff80005f64:	013a8423          	sb	s3,8(s5)
ffffffff80005f68:	030ad513          	srli	a0,s5,0x30
ffffffff80005f6c:	00a48b23          	sb	a0,22(s1)
ffffffff80005f70:	038ad513          	srli	a0,s5,0x38
ffffffff80005f74:	00a48ba3          	sb	a0,23(s1)
ffffffff80005f78:	020ad513          	srli	a0,s5,0x20
ffffffff80005f7c:	00a48a23          	sb	a0,20(s1)
ffffffff80005f80:	028ad513          	srli	a0,s5,0x28
ffffffff80005f84:	00a48aa3          	sb	a0,21(s1)
ffffffff80005f88:	010ad513          	srli	a0,s5,0x10
ffffffff80005f8c:	00a48923          	sb	a0,18(s1)
ffffffff80005f90:	018ad513          	srli	a0,s5,0x18
ffffffff80005f94:	00a489a3          	sb	a0,19(s1)
ffffffff80005f98:	01548823          	sb	s5,16(s1)
ffffffff80005f9c:	008ad513          	srli	a0,s5,0x8
ffffffff80005fa0:	00a488a3          	sb	a0,17(s1)
ffffffff80005fa4:	a0c1                	j	ffffffff80006064 <hashmap_set+0x2b4>
ffffffff80005fa6:	4561                	li	a0,24
ffffffff80005fa8:	ffffd097          	auipc	ra,0xffffd
ffffffff80005fac:	bd2080e7          	jalr	-1070(ra) # ffffffff80002b7a <kmalloc>
ffffffff80005fb0:	84aa                	mv	s1,a0
ffffffff80005fb2:	8552                	mv	a0,s4
ffffffff80005fb4:	00001097          	auipc	ra,0x1
ffffffff80005fb8:	a32080e7          	jalr	-1486(ra) # ffffffff800069e6 <strdup>
ffffffff80005fbc:	00a48023          	sb	a0,0(s1)
ffffffff80005fc0:	03855593          	srli	a1,a0,0x38
ffffffff80005fc4:	00b483a3          	sb	a1,7(s1)
ffffffff80005fc8:	03055593          	srli	a1,a0,0x30
ffffffff80005fcc:	00b48323          	sb	a1,6(s1)
ffffffff80005fd0:	02855593          	srli	a1,a0,0x28
ffffffff80005fd4:	00b482a3          	sb	a1,5(s1)
ffffffff80005fd8:	02055593          	srli	a1,a0,0x20
ffffffff80005fdc:	00b48223          	sb	a1,4(s1)
ffffffff80005fe0:	01855593          	srli	a1,a0,0x18
ffffffff80005fe4:	00b481a3          	sb	a1,3(s1)
ffffffff80005fe8:	01055593          	srli	a1,a0,0x10
ffffffff80005fec:	00b48123          	sb	a1,2(s1)
ffffffff80005ff0:	8121                	srli	a0,a0,0x8
ffffffff80005ff2:	00a480a3          	sb	a0,1(s1)
ffffffff80005ff6:	00048ba3          	sb	zero,23(s1)
ffffffff80005ffa:	00048b23          	sb	zero,22(s1)
ffffffff80005ffe:	00048aa3          	sb	zero,21(s1)
ffffffff80006002:	00048a23          	sb	zero,20(s1)
ffffffff80006006:	000489a3          	sb	zero,19(s1)
ffffffff8000600a:	00048923          	sb	zero,18(s1)
ffffffff8000600e:	000488a3          	sb	zero,17(s1)
ffffffff80006012:	00048823          	sb	zero,16(s1)
ffffffff80006016:	0309d513          	srli	a0,s3,0x30
ffffffff8000601a:	00a48723          	sb	a0,14(s1)
ffffffff8000601e:	0289d513          	srli	a0,s3,0x28
ffffffff80006022:	00a486a3          	sb	a0,13(s1)
ffffffff80006026:	0209d513          	srli	a0,s3,0x20
ffffffff8000602a:	00a48623          	sb	a0,12(s1)
ffffffff8000602e:	0189d513          	srli	a0,s3,0x18
ffffffff80006032:	00a485a3          	sb	a0,11(s1)
ffffffff80006036:	0109d513          	srli	a0,s3,0x10
ffffffff8000603a:	00a48523          	sb	a0,10(s1)
ffffffff8000603e:	0089d513          	srli	a0,s3,0x8
ffffffff80006042:	00a484a3          	sb	a0,9(s1)
ffffffff80006046:	01348423          	sb	s3,8(s1)
ffffffff8000604a:	02893503          	ld	a0,40(s2)
ffffffff8000604e:	0389d593          	srli	a1,s3,0x38
ffffffff80006052:	03093603          	ld	a2,48(s2)
ffffffff80006056:	00b487a3          	sb	a1,15(s1)
ffffffff8000605a:	02aaf533          	remu	a0,s5,a0
ffffffff8000605e:	050e                	slli	a0,a0,0x3
ffffffff80006060:	9532                	add	a0,a0,a2
ffffffff80006062:	e104                	sd	s1,0(a0)
ffffffff80006064:	854a                	mv	a0,s2
ffffffff80006066:	ffffc097          	auipc	ra,0xffffc
ffffffff8000606a:	162080e7          	jalr	354(ra) # ffffffff800021c8 <spinlock_unlock>
ffffffff8000606e:	4501                	li	a0,0
ffffffff80006070:	a061                	j	ffffffff800060f8 <hashmap_set+0x348>
ffffffff80006072:	0094c503          	lbu	a0,9(s1)
ffffffff80006076:	0084c583          	lbu	a1,8(s1)
ffffffff8000607a:	00a4c603          	lbu	a2,10(s1)
ffffffff8000607e:	00b4c683          	lbu	a3,11(s1)
ffffffff80006082:	0522                	slli	a0,a0,0x8
ffffffff80006084:	8d4d                	or	a0,a0,a1
ffffffff80006086:	0642                	slli	a2,a2,0x10
ffffffff80006088:	06e2                	slli	a3,a3,0x18
ffffffff8000608a:	8e55                	or	a2,a2,a3
ffffffff8000608c:	8d51                	or	a0,a0,a2
ffffffff8000608e:	00d4c583          	lbu	a1,13(s1)
ffffffff80006092:	00c4c603          	lbu	a2,12(s1)
ffffffff80006096:	00e4c683          	lbu	a3,14(s1)
ffffffff8000609a:	00f4c703          	lbu	a4,15(s1)
ffffffff8000609e:	05a2                	slli	a1,a1,0x8
ffffffff800060a0:	8dd1                	or	a1,a1,a2
ffffffff800060a2:	06c2                	slli	a3,a3,0x10
ffffffff800060a4:	0762                	slli	a4,a4,0x18
ffffffff800060a6:	8ed9                	or	a3,a3,a4
ffffffff800060a8:	8dd5                	or	a1,a1,a3
ffffffff800060aa:	1582                	slli	a1,a1,0x20
ffffffff800060ac:	00a5ea33          	or	s4,a1,a0
ffffffff800060b0:	0309d513          	srli	a0,s3,0x30
ffffffff800060b4:	00a48723          	sb	a0,14(s1)
ffffffff800060b8:	0389d513          	srli	a0,s3,0x38
ffffffff800060bc:	00a487a3          	sb	a0,15(s1)
ffffffff800060c0:	0209d513          	srli	a0,s3,0x20
ffffffff800060c4:	00a48623          	sb	a0,12(s1)
ffffffff800060c8:	0289d513          	srli	a0,s3,0x28
ffffffff800060cc:	00a486a3          	sb	a0,13(s1)
ffffffff800060d0:	0109d513          	srli	a0,s3,0x10
ffffffff800060d4:	00a48523          	sb	a0,10(s1)
ffffffff800060d8:	0189d513          	srli	a0,s3,0x18
ffffffff800060dc:	00a485a3          	sb	a0,11(s1)
ffffffff800060e0:	01348423          	sb	s3,8(s1)
ffffffff800060e4:	0089d513          	srli	a0,s3,0x8
ffffffff800060e8:	00a484a3          	sb	a0,9(s1)
ffffffff800060ec:	854a                	mv	a0,s2
ffffffff800060ee:	ffffc097          	auipc	ra,0xffffc
ffffffff800060f2:	0da080e7          	jalr	218(ra) # ffffffff800021c8 <spinlock_unlock>
ffffffff800060f6:	8552                	mv	a0,s4
ffffffff800060f8:	70e2                	ld	ra,56(sp)
ffffffff800060fa:	7442                	ld	s0,48(sp)
ffffffff800060fc:	74a2                	ld	s1,40(sp)
ffffffff800060fe:	7902                	ld	s2,32(sp)
ffffffff80006100:	69e2                	ld	s3,24(sp)
ffffffff80006102:	6a42                	ld	s4,16(sp)
ffffffff80006104:	6aa2                	ld	s5,8(sp)
ffffffff80006106:	6121                	addi	sp,sp,64
ffffffff80006108:	8082                	ret

ffffffff8000610a <hashmap_get>:
ffffffff8000610a:	7179                	addi	sp,sp,-48
ffffffff8000610c:	f406                	sd	ra,40(sp)
ffffffff8000610e:	f022                	sd	s0,32(sp)
ffffffff80006110:	ec26                	sd	s1,24(sp)
ffffffff80006112:	e84a                	sd	s2,16(sp)
ffffffff80006114:	e44e                	sd	s3,8(sp)
ffffffff80006116:	1800                	addi	s0,sp,48
ffffffff80006118:	89ae                	mv	s3,a1
ffffffff8000611a:	0005c583          	lbu	a1,0(a1)
ffffffff8000611e:	892a                	mv	s2,a0
ffffffff80006120:	c585                	beqz	a1,ffffffff80006148 <hashmap_get+0x3e>
ffffffff80006122:	4501                	li	a0,0
ffffffff80006124:	00198613          	addi	a2,s3,1
ffffffff80006128:	66c1                	lui	a3,0x10
ffffffff8000612a:	03f68693          	addi	a3,a3,63 # 1003f <$d.3+0x52f1>
ffffffff8000612e:	0ff5f713          	zext.b	a4,a1
ffffffff80006132:	00064583          	lbu	a1,0(a2)
ffffffff80006136:	02d50533          	mul	a0,a0,a3
ffffffff8000613a:	953a                	add	a0,a0,a4
ffffffff8000613c:	0605                	addi	a2,a2,1
ffffffff8000613e:	f9e5                	bnez	a1,ffffffff8000612e <hashmap_get+0x24>
ffffffff80006140:	1502                	slli	a0,a0,0x20
ffffffff80006142:	02055493          	srli	s1,a0,0x20
ffffffff80006146:	a011                	j	ffffffff8000614a <hashmap_get+0x40>
ffffffff80006148:	4481                	li	s1,0
ffffffff8000614a:	80008537          	lui	a0,0x80008
ffffffff8000614e:	1af50593          	addi	a1,a0,431 # ffffffff800081af <$d.2+0x89>
ffffffff80006152:	80008537          	lui	a0,0x80008
ffffffff80006156:	50350613          	addi	a2,a0,1283 # ffffffff80008503 <$d.2+0xd8>
ffffffff8000615a:	80008537          	lui	a0,0x80008
ffffffff8000615e:	1c450693          	addi	a3,a0,452 # ffffffff800081c4 <$d.2+0x9e>
ffffffff80006162:	19a00713          	li	a4,410
ffffffff80006166:	854a                	mv	a0,s2
ffffffff80006168:	ffffb097          	auipc	ra,0xffffb
ffffffff8000616c:	2bc080e7          	jalr	700(ra) # ffffffff80001424 <spinlock_lock_debug>
ffffffff80006170:	02893503          	ld	a0,40(s2)
ffffffff80006174:	03093583          	ld	a1,48(s2)
ffffffff80006178:	02a4f533          	remu	a0,s1,a0
ffffffff8000617c:	050e                	slli	a0,a0,0x3
ffffffff8000617e:	952e                	add	a0,a0,a1
ffffffff80006180:	6104                	ld	s1,0(a0)
ffffffff80006182:	c4e9                	beqz	s1,ffffffff8000624c <hashmap_get+0x142>
ffffffff80006184:	0014c503          	lbu	a0,1(s1)
ffffffff80006188:	0004c583          	lbu	a1,0(s1)
ffffffff8000618c:	0024c603          	lbu	a2,2(s1)
ffffffff80006190:	0034c683          	lbu	a3,3(s1)
ffffffff80006194:	0522                	slli	a0,a0,0x8
ffffffff80006196:	8d4d                	or	a0,a0,a1
ffffffff80006198:	0642                	slli	a2,a2,0x10
ffffffff8000619a:	06e2                	slli	a3,a3,0x18
ffffffff8000619c:	8e55                	or	a2,a2,a3
ffffffff8000619e:	8d51                	or	a0,a0,a2
ffffffff800061a0:	0054c583          	lbu	a1,5(s1)
ffffffff800061a4:	0044c603          	lbu	a2,4(s1)
ffffffff800061a8:	0064c683          	lbu	a3,6(s1)
ffffffff800061ac:	0074c703          	lbu	a4,7(s1)
ffffffff800061b0:	05a2                	slli	a1,a1,0x8
ffffffff800061b2:	8dd1                	or	a1,a1,a2
ffffffff800061b4:	06c2                	slli	a3,a3,0x10
ffffffff800061b6:	0762                	slli	a4,a4,0x18
ffffffff800061b8:	8ed9                	or	a3,a3,a4
ffffffff800061ba:	8dd5                	or	a1,a1,a3
ffffffff800061bc:	1582                	slli	a1,a1,0x20
ffffffff800061be:	8d4d                	or	a0,a0,a1
ffffffff800061c0:	85ce                	mv	a1,s3
ffffffff800061c2:	00000097          	auipc	ra,0x0
ffffffff800061c6:	782080e7          	jalr	1922(ra) # ffffffff80006944 <strcmp>
ffffffff800061ca:	c131                	beqz	a0,ffffffff8000620e <hashmap_get+0x104>
ffffffff800061cc:	0114c503          	lbu	a0,17(s1)
ffffffff800061d0:	0104c583          	lbu	a1,16(s1)
ffffffff800061d4:	0124c603          	lbu	a2,18(s1)
ffffffff800061d8:	0134c683          	lbu	a3,19(s1)
ffffffff800061dc:	0522                	slli	a0,a0,0x8
ffffffff800061de:	8d4d                	or	a0,a0,a1
ffffffff800061e0:	0642                	slli	a2,a2,0x10
ffffffff800061e2:	06e2                	slli	a3,a3,0x18
ffffffff800061e4:	8e55                	or	a2,a2,a3
ffffffff800061e6:	8d51                	or	a0,a0,a2
ffffffff800061e8:	0154c583          	lbu	a1,21(s1)
ffffffff800061ec:	0144c603          	lbu	a2,20(s1)
ffffffff800061f0:	0164c683          	lbu	a3,22(s1)
ffffffff800061f4:	0174c703          	lbu	a4,23(s1)
ffffffff800061f8:	05a2                	slli	a1,a1,0x8
ffffffff800061fa:	8dd1                	or	a1,a1,a2
ffffffff800061fc:	06c2                	slli	a3,a3,0x10
ffffffff800061fe:	0762                	slli	a4,a4,0x18
ffffffff80006200:	8ed9                	or	a3,a3,a4
ffffffff80006202:	8dd5                	or	a1,a1,a3
ffffffff80006204:	1582                	slli	a1,a1,0x20
ffffffff80006206:	00a5e4b3          	or	s1,a1,a0
ffffffff8000620a:	fcad                	bnez	s1,ffffffff80006184 <hashmap_get+0x7a>
ffffffff8000620c:	a081                	j	ffffffff8000624c <hashmap_get+0x142>
ffffffff8000620e:	0094c503          	lbu	a0,9(s1)
ffffffff80006212:	0084c583          	lbu	a1,8(s1)
ffffffff80006216:	00a4c603          	lbu	a2,10(s1)
ffffffff8000621a:	00b4c683          	lbu	a3,11(s1)
ffffffff8000621e:	0522                	slli	a0,a0,0x8
ffffffff80006220:	8d4d                	or	a0,a0,a1
ffffffff80006222:	0642                	slli	a2,a2,0x10
ffffffff80006224:	06e2                	slli	a3,a3,0x18
ffffffff80006226:	8e55                	or	a2,a2,a3
ffffffff80006228:	8d51                	or	a0,a0,a2
ffffffff8000622a:	00d4c583          	lbu	a1,13(s1)
ffffffff8000622e:	00c4c603          	lbu	a2,12(s1)
ffffffff80006232:	00e4c683          	lbu	a3,14(s1)
ffffffff80006236:	00f4c703          	lbu	a4,15(s1)
ffffffff8000623a:	05a2                	slli	a1,a1,0x8
ffffffff8000623c:	8dd1                	or	a1,a1,a2
ffffffff8000623e:	06c2                	slli	a3,a3,0x10
ffffffff80006240:	0762                	slli	a4,a4,0x18
ffffffff80006242:	8ed9                	or	a3,a3,a4
ffffffff80006244:	8dd5                	or	a1,a1,a3
ffffffff80006246:	1582                	slli	a1,a1,0x20
ffffffff80006248:	00a5e4b3          	or	s1,a1,a0
ffffffff8000624c:	854a                	mv	a0,s2
ffffffff8000624e:	ffffc097          	auipc	ra,0xffffc
ffffffff80006252:	f7a080e7          	jalr	-134(ra) # ffffffff800021c8 <spinlock_unlock>
ffffffff80006256:	8526                	mv	a0,s1
ffffffff80006258:	70a2                	ld	ra,40(sp)
ffffffff8000625a:	7402                	ld	s0,32(sp)
ffffffff8000625c:	64e2                	ld	s1,24(sp)
ffffffff8000625e:	6942                	ld	s2,16(sp)
ffffffff80006260:	69a2                	ld	s3,8(sp)
ffffffff80006262:	6145                	addi	sp,sp,48
ffffffff80006264:	8082                	ret

ffffffff80006266 <hashmap_remove>:
ffffffff80006266:	7139                	addi	sp,sp,-64
ffffffff80006268:	fc06                	sd	ra,56(sp)
ffffffff8000626a:	f822                	sd	s0,48(sp)
ffffffff8000626c:	f426                	sd	s1,40(sp)
ffffffff8000626e:	f04a                	sd	s2,32(sp)
ffffffff80006270:	ec4e                	sd	s3,24(sp)
ffffffff80006272:	e852                	sd	s4,16(sp)
ffffffff80006274:	e456                	sd	s5,8(sp)
ffffffff80006276:	0080                	addi	s0,sp,64
ffffffff80006278:	89ae                	mv	s3,a1
ffffffff8000627a:	0005c583          	lbu	a1,0(a1)
ffffffff8000627e:	892a                	mv	s2,a0
ffffffff80006280:	c585                	beqz	a1,ffffffff800062a8 <hashmap_remove+0x42>
ffffffff80006282:	4501                	li	a0,0
ffffffff80006284:	00198613          	addi	a2,s3,1
ffffffff80006288:	66c1                	lui	a3,0x10
ffffffff8000628a:	03f68693          	addi	a3,a3,63 # 1003f <$d.3+0x52f1>
ffffffff8000628e:	0ff5f713          	zext.b	a4,a1
ffffffff80006292:	00064583          	lbu	a1,0(a2)
ffffffff80006296:	02d50533          	mul	a0,a0,a3
ffffffff8000629a:	953a                	add	a0,a0,a4
ffffffff8000629c:	0605                	addi	a2,a2,1
ffffffff8000629e:	f9e5                	bnez	a1,ffffffff8000628e <hashmap_remove+0x28>
ffffffff800062a0:	1502                	slli	a0,a0,0x20
ffffffff800062a2:	02055a13          	srli	s4,a0,0x20
ffffffff800062a6:	a011                	j	ffffffff800062aa <hashmap_remove+0x44>
ffffffff800062a8:	4a01                	li	s4,0
ffffffff800062aa:	80008537          	lui	a0,0x80008
ffffffff800062ae:	1af50593          	addi	a1,a0,431 # ffffffff800081af <$d.2+0x89>
ffffffff800062b2:	80008537          	lui	a0,0x80008
ffffffff800062b6:	3d550613          	addi	a2,a0,981 # ffffffff800083d5 <$d.2+0x5d>
ffffffff800062ba:	80008537          	lui	a0,0x80008
ffffffff800062be:	1c450693          	addi	a3,a0,452 # ffffffff800081c4 <$d.2+0x9e>
ffffffff800062c2:	1b000713          	li	a4,432
ffffffff800062c6:	854a                	mv	a0,s2
ffffffff800062c8:	ffffb097          	auipc	ra,0xffffb
ffffffff800062cc:	15c080e7          	jalr	348(ra) # ffffffff80001424 <spinlock_lock_debug>
ffffffff800062d0:	02893503          	ld	a0,40(s2)
ffffffff800062d4:	03093583          	ld	a1,48(s2)
ffffffff800062d8:	02aa7533          	remu	a0,s4,a0
ffffffff800062dc:	050e                	slli	a0,a0,0x3
ffffffff800062de:	952e                	add	a0,a0,a1
ffffffff800062e0:	00053a83          	ld	s5,0(a0)
ffffffff800062e4:	0c0a8f63          	beqz	s5,ffffffff800063c2 <hashmap_remove+0x15c>
ffffffff800062e8:	001ac503          	lbu	a0,1(s5)
ffffffff800062ec:	000ac583          	lbu	a1,0(s5)
ffffffff800062f0:	002ac603          	lbu	a2,2(s5)
ffffffff800062f4:	003ac683          	lbu	a3,3(s5)
ffffffff800062f8:	0522                	slli	a0,a0,0x8
ffffffff800062fa:	8d4d                	or	a0,a0,a1
ffffffff800062fc:	0642                	slli	a2,a2,0x10
ffffffff800062fe:	06e2                	slli	a3,a3,0x18
ffffffff80006300:	8e55                	or	a2,a2,a3
ffffffff80006302:	8d51                	or	a0,a0,a2
ffffffff80006304:	005ac583          	lbu	a1,5(s5)
ffffffff80006308:	004ac603          	lbu	a2,4(s5)
ffffffff8000630c:	006ac683          	lbu	a3,6(s5)
ffffffff80006310:	007ac703          	lbu	a4,7(s5)
ffffffff80006314:	05a2                	slli	a1,a1,0x8
ffffffff80006316:	8dd1                	or	a1,a1,a2
ffffffff80006318:	06c2                	slli	a3,a3,0x10
ffffffff8000631a:	0762                	slli	a4,a4,0x18
ffffffff8000631c:	8ed9                	or	a3,a3,a4
ffffffff8000631e:	8dd5                	or	a1,a1,a3
ffffffff80006320:	1582                	slli	a1,a1,0x20
ffffffff80006322:	8d4d                	or	a0,a0,a1
ffffffff80006324:	85ce                	mv	a1,s3
ffffffff80006326:	00000097          	auipc	ra,0x0
ffffffff8000632a:	61e080e7          	jalr	1566(ra) # ffffffff80006944 <strcmp>
ffffffff8000632e:	cd41                	beqz	a0,ffffffff800063c6 <hashmap_remove+0x160>
ffffffff80006330:	84d6                	mv	s1,s5
ffffffff80006332:	0114c503          	lbu	a0,17(s1)
ffffffff80006336:	0104c583          	lbu	a1,16(s1)
ffffffff8000633a:	0124c603          	lbu	a2,18(s1)
ffffffff8000633e:	0134c683          	lbu	a3,19(s1)
ffffffff80006342:	0522                	slli	a0,a0,0x8
ffffffff80006344:	8d4d                	or	a0,a0,a1
ffffffff80006346:	0642                	slli	a2,a2,0x10
ffffffff80006348:	06e2                	slli	a3,a3,0x18
ffffffff8000634a:	8e55                	or	a2,a2,a3
ffffffff8000634c:	8d51                	or	a0,a0,a2
ffffffff8000634e:	0154c583          	lbu	a1,21(s1)
ffffffff80006352:	0144c603          	lbu	a2,20(s1)
ffffffff80006356:	0164c683          	lbu	a3,22(s1)
ffffffff8000635a:	0174c703          	lbu	a4,23(s1)
ffffffff8000635e:	05a2                	slli	a1,a1,0x8
ffffffff80006360:	8dd1                	or	a1,a1,a2
ffffffff80006362:	06c2                	slli	a3,a3,0x10
ffffffff80006364:	0762                	slli	a4,a4,0x18
ffffffff80006366:	8ed9                	or	a3,a3,a4
ffffffff80006368:	8dd5                	or	a1,a1,a3
ffffffff8000636a:	1582                	slli	a1,a1,0x20
ffffffff8000636c:	00a5eab3          	or	s5,a1,a0
ffffffff80006370:	040a8963          	beqz	s5,ffffffff800063c2 <hashmap_remove+0x15c>
ffffffff80006374:	001ac503          	lbu	a0,1(s5)
ffffffff80006378:	000ac583          	lbu	a1,0(s5)
ffffffff8000637c:	002ac603          	lbu	a2,2(s5)
ffffffff80006380:	003ac683          	lbu	a3,3(s5)
ffffffff80006384:	0522                	slli	a0,a0,0x8
ffffffff80006386:	8d4d                	or	a0,a0,a1
ffffffff80006388:	0642                	slli	a2,a2,0x10
ffffffff8000638a:	06e2                	slli	a3,a3,0x18
ffffffff8000638c:	8e55                	or	a2,a2,a3
ffffffff8000638e:	8d51                	or	a0,a0,a2
ffffffff80006390:	005ac583          	lbu	a1,5(s5)
ffffffff80006394:	004ac603          	lbu	a2,4(s5)
ffffffff80006398:	006ac683          	lbu	a3,6(s5)
ffffffff8000639c:	007ac703          	lbu	a4,7(s5)
ffffffff800063a0:	05a2                	slli	a1,a1,0x8
ffffffff800063a2:	8dd1                	or	a1,a1,a2
ffffffff800063a4:	06c2                	slli	a3,a3,0x10
ffffffff800063a6:	0762                	slli	a4,a4,0x18
ffffffff800063a8:	8ed9                	or	a3,a3,a4
ffffffff800063aa:	8dd5                	or	a1,a1,a3
ffffffff800063ac:	1582                	slli	a1,a1,0x20
ffffffff800063ae:	8d4d                	or	a0,a0,a1
ffffffff800063b0:	85ce                	mv	a1,s3
ffffffff800063b2:	00000097          	auipc	ra,0x0
ffffffff800063b6:	592080e7          	jalr	1426(ra) # ffffffff80006944 <strcmp>
ffffffff800063ba:	85a6                	mv	a1,s1
ffffffff800063bc:	84d6                	mv	s1,s5
ffffffff800063be:	f935                	bnez	a0,ffffffff80006332 <hashmap_remove+0xcc>
ffffffff800063c0:	a021                	j	ffffffff800063c8 <hashmap_remove+0x162>
ffffffff800063c2:	4981                	li	s3,0
ffffffff800063c4:	aa39                	j	ffffffff800064e2 <hashmap_remove+0x27c>
ffffffff800063c6:	4581                	li	a1,0
ffffffff800063c8:	009ac503          	lbu	a0,9(s5)
ffffffff800063cc:	008ac603          	lbu	a2,8(s5)
ffffffff800063d0:	00aac683          	lbu	a3,10(s5)
ffffffff800063d4:	00bac703          	lbu	a4,11(s5)
ffffffff800063d8:	0522                	slli	a0,a0,0x8
ffffffff800063da:	8d51                	or	a0,a0,a2
ffffffff800063dc:	06c2                	slli	a3,a3,0x10
ffffffff800063de:	0762                	slli	a4,a4,0x18
ffffffff800063e0:	8ed9                	or	a3,a3,a4
ffffffff800063e2:	00a6e833          	or	a6,a3,a0
ffffffff800063e6:	00dac603          	lbu	a2,13(s5)
ffffffff800063ea:	00cac683          	lbu	a3,12(s5)
ffffffff800063ee:	00eac703          	lbu	a4,14(s5)
ffffffff800063f2:	00fac783          	lbu	a5,15(s5)
ffffffff800063f6:	0622                	slli	a2,a2,0x8
ffffffff800063f8:	8e55                	or	a2,a2,a3
ffffffff800063fa:	0742                	slli	a4,a4,0x10
ffffffff800063fc:	07e2                	slli	a5,a5,0x18
ffffffff800063fe:	8f5d                	or	a4,a4,a5
ffffffff80006400:	8e59                	or	a2,a2,a4
ffffffff80006402:	011ac683          	lbu	a3,17(s5)
ffffffff80006406:	010ac703          	lbu	a4,16(s5)
ffffffff8000640a:	012ac783          	lbu	a5,18(s5)
ffffffff8000640e:	013ac483          	lbu	s1,19(s5)
ffffffff80006412:	06a2                	slli	a3,a3,0x8
ffffffff80006414:	8ed9                	or	a3,a3,a4
ffffffff80006416:	07c2                	slli	a5,a5,0x10
ffffffff80006418:	04e2                	slli	s1,s1,0x18
ffffffff8000641a:	015ac703          	lbu	a4,21(s5)
ffffffff8000641e:	8fc5                	or	a5,a5,s1
ffffffff80006420:	8edd                	or	a3,a3,a5
ffffffff80006422:	014ac783          	lbu	a5,20(s5)
ffffffff80006426:	0722                	slli	a4,a4,0x8
ffffffff80006428:	016ac483          	lbu	s1,22(s5)
ffffffff8000642c:	017ac503          	lbu	a0,23(s5)
ffffffff80006430:	8f5d                	or	a4,a4,a5
ffffffff80006432:	1602                	slli	a2,a2,0x20
ffffffff80006434:	04c2                	slli	s1,s1,0x10
ffffffff80006436:	0562                	slli	a0,a0,0x18
ffffffff80006438:	8d45                	or	a0,a0,s1
ffffffff8000643a:	8d59                	or	a0,a0,a4
ffffffff8000643c:	1502                	slli	a0,a0,0x20
ffffffff8000643e:	8ec9                	or	a3,a3,a0
ffffffff80006440:	cd9d                	beqz	a1,ffffffff8000647e <hashmap_remove+0x218>
ffffffff80006442:	00d58823          	sb	a3,16(a1)
ffffffff80006446:	0386d513          	srli	a0,a3,0x38
ffffffff8000644a:	00a58ba3          	sb	a0,23(a1)
ffffffff8000644e:	0306d513          	srli	a0,a3,0x30
ffffffff80006452:	00a58b23          	sb	a0,22(a1)
ffffffff80006456:	0286d513          	srli	a0,a3,0x28
ffffffff8000645a:	00a58aa3          	sb	a0,21(a1)
ffffffff8000645e:	0206d513          	srli	a0,a3,0x20
ffffffff80006462:	00a58a23          	sb	a0,20(a1)
ffffffff80006466:	0186d513          	srli	a0,a3,0x18
ffffffff8000646a:	00a589a3          	sb	a0,19(a1)
ffffffff8000646e:	0106d513          	srli	a0,a3,0x10
ffffffff80006472:	00a58923          	sb	a0,18(a1)
ffffffff80006476:	82a1                	srli	a3,a3,0x8
ffffffff80006478:	00d588a3          	sb	a3,17(a1)
ffffffff8000647c:	a811                	j	ffffffff80006490 <hashmap_remove+0x22a>
ffffffff8000647e:	02893503          	ld	a0,40(s2)
ffffffff80006482:	03093583          	ld	a1,48(s2)
ffffffff80006486:	02aa7533          	remu	a0,s4,a0
ffffffff8000648a:	050e                	slli	a0,a0,0x3
ffffffff8000648c:	952e                	add	a0,a0,a1
ffffffff8000648e:	e114                	sd	a3,0(a0)
ffffffff80006490:	010669b3          	or	s3,a2,a6
ffffffff80006494:	001ac503          	lbu	a0,1(s5)
ffffffff80006498:	000ac583          	lbu	a1,0(s5)
ffffffff8000649c:	002ac603          	lbu	a2,2(s5)
ffffffff800064a0:	003ac683          	lbu	a3,3(s5)
ffffffff800064a4:	0522                	slli	a0,a0,0x8
ffffffff800064a6:	8d4d                	or	a0,a0,a1
ffffffff800064a8:	0642                	slli	a2,a2,0x10
ffffffff800064aa:	06e2                	slli	a3,a3,0x18
ffffffff800064ac:	8e55                	or	a2,a2,a3
ffffffff800064ae:	8d51                	or	a0,a0,a2
ffffffff800064b0:	005ac583          	lbu	a1,5(s5)
ffffffff800064b4:	004ac603          	lbu	a2,4(s5)
ffffffff800064b8:	006ac683          	lbu	a3,6(s5)
ffffffff800064bc:	007ac703          	lbu	a4,7(s5)
ffffffff800064c0:	05a2                	slli	a1,a1,0x8
ffffffff800064c2:	8dd1                	or	a1,a1,a2
ffffffff800064c4:	06c2                	slli	a3,a3,0x10
ffffffff800064c6:	0762                	slli	a4,a4,0x18
ffffffff800064c8:	8ed9                	or	a3,a3,a4
ffffffff800064ca:	8dd5                	or	a1,a1,a3
ffffffff800064cc:	1582                	slli	a1,a1,0x20
ffffffff800064ce:	8d4d                	or	a0,a0,a1
ffffffff800064d0:	ffffc097          	auipc	ra,0xffffc
ffffffff800064d4:	762080e7          	jalr	1890(ra) # ffffffff80002c32 <kfree>
ffffffff800064d8:	8556                	mv	a0,s5
ffffffff800064da:	ffffc097          	auipc	ra,0xffffc
ffffffff800064de:	758080e7          	jalr	1880(ra) # ffffffff80002c32 <kfree>
ffffffff800064e2:	854a                	mv	a0,s2
ffffffff800064e4:	ffffc097          	auipc	ra,0xffffc
ffffffff800064e8:	ce4080e7          	jalr	-796(ra) # ffffffff800021c8 <spinlock_unlock>
ffffffff800064ec:	854e                	mv	a0,s3
ffffffff800064ee:	70e2                	ld	ra,56(sp)
ffffffff800064f0:	7442                	ld	s0,48(sp)
ffffffff800064f2:	74a2                	ld	s1,40(sp)
ffffffff800064f4:	7902                	ld	s2,32(sp)
ffffffff800064f6:	69e2                	ld	s3,24(sp)
ffffffff800064f8:	6a42                	ld	s4,16(sp)
ffffffff800064fa:	6aa2                	ld	s5,8(sp)
ffffffff800064fc:	6121                	addi	sp,sp,64
ffffffff800064fe:	8082                	ret

ffffffff80006500 <hashmap_has>:
ffffffff80006500:	7179                	addi	sp,sp,-48
ffffffff80006502:	f406                	sd	ra,40(sp)
ffffffff80006504:	f022                	sd	s0,32(sp)
ffffffff80006506:	ec26                	sd	s1,24(sp)
ffffffff80006508:	e84a                	sd	s2,16(sp)
ffffffff8000650a:	e44e                	sd	s3,8(sp)
ffffffff8000650c:	e052                	sd	s4,0(sp)
ffffffff8000650e:	1800                	addi	s0,sp,48
ffffffff80006510:	89ae                	mv	s3,a1
ffffffff80006512:	0005c583          	lbu	a1,0(a1)
ffffffff80006516:	892a                	mv	s2,a0
ffffffff80006518:	c585                	beqz	a1,ffffffff80006540 <hashmap_has+0x40>
ffffffff8000651a:	4501                	li	a0,0
ffffffff8000651c:	00198613          	addi	a2,s3,1
ffffffff80006520:	66c1                	lui	a3,0x10
ffffffff80006522:	03f68693          	addi	a3,a3,63 # 1003f <$d.3+0x52f1>
ffffffff80006526:	0ff5f713          	zext.b	a4,a1
ffffffff8000652a:	00064583          	lbu	a1,0(a2)
ffffffff8000652e:	02d50533          	mul	a0,a0,a3
ffffffff80006532:	953a                	add	a0,a0,a4
ffffffff80006534:	0605                	addi	a2,a2,1
ffffffff80006536:	f9e5                	bnez	a1,ffffffff80006526 <hashmap_has+0x26>
ffffffff80006538:	1502                	slli	a0,a0,0x20
ffffffff8000653a:	02055493          	srli	s1,a0,0x20
ffffffff8000653e:	a011                	j	ffffffff80006542 <hashmap_has+0x42>
ffffffff80006540:	4481                	li	s1,0
ffffffff80006542:	80008537          	lui	a0,0x80008
ffffffff80006546:	1af50593          	addi	a1,a0,431 # ffffffff800081af <$d.2+0x89>
ffffffff8000654a:	80008537          	lui	a0,0x80008
ffffffff8000654e:	2fe50613          	addi	a2,a0,766 # ffffffff800082fe <$d.1+0x48>
ffffffff80006552:	80008537          	lui	a0,0x80008
ffffffff80006556:	1c450693          	addi	a3,a0,452 # ffffffff800081c4 <$d.2+0x9e>
ffffffff8000655a:	1d000713          	li	a4,464
ffffffff8000655e:	854a                	mv	a0,s2
ffffffff80006560:	ffffb097          	auipc	ra,0xffffb
ffffffff80006564:	ec4080e7          	jalr	-316(ra) # ffffffff80001424 <spinlock_lock_debug>
ffffffff80006568:	02893503          	ld	a0,40(s2)
ffffffff8000656c:	03093583          	ld	a1,48(s2)
ffffffff80006570:	02a4f533          	remu	a0,s1,a0
ffffffff80006574:	050e                	slli	a0,a0,0x3
ffffffff80006576:	952e                	add	a0,a0,a1
ffffffff80006578:	6104                	ld	s1,0(a0)
ffffffff8000657a:	c8c1                	beqz	s1,ffffffff8000660a <hashmap_has+0x10a>
ffffffff8000657c:	0014c503          	lbu	a0,1(s1)
ffffffff80006580:	0004c583          	lbu	a1,0(s1)
ffffffff80006584:	0024c603          	lbu	a2,2(s1)
ffffffff80006588:	0034c683          	lbu	a3,3(s1)
ffffffff8000658c:	0522                	slli	a0,a0,0x8
ffffffff8000658e:	8d4d                	or	a0,a0,a1
ffffffff80006590:	0642                	slli	a2,a2,0x10
ffffffff80006592:	06e2                	slli	a3,a3,0x18
ffffffff80006594:	8e55                	or	a2,a2,a3
ffffffff80006596:	8d51                	or	a0,a0,a2
ffffffff80006598:	0054c583          	lbu	a1,5(s1)
ffffffff8000659c:	0044c603          	lbu	a2,4(s1)
ffffffff800065a0:	0064c683          	lbu	a3,6(s1)
ffffffff800065a4:	0074c703          	lbu	a4,7(s1)
ffffffff800065a8:	05a2                	slli	a1,a1,0x8
ffffffff800065aa:	8dd1                	or	a1,a1,a2
ffffffff800065ac:	06c2                	slli	a3,a3,0x10
ffffffff800065ae:	0762                	slli	a4,a4,0x18
ffffffff800065b0:	8ed9                	or	a3,a3,a4
ffffffff800065b2:	8dd5                	or	a1,a1,a3
ffffffff800065b4:	1582                	slli	a1,a1,0x20
ffffffff800065b6:	8d4d                	or	a0,a0,a1
ffffffff800065b8:	85ce                	mv	a1,s3
ffffffff800065ba:	00000097          	auipc	ra,0x0
ffffffff800065be:	38a080e7          	jalr	906(ra) # ffffffff80006944 <strcmp>
ffffffff800065c2:	00153a13          	seqz	s4,a0
ffffffff800065c6:	c139                	beqz	a0,ffffffff8000660c <hashmap_has+0x10c>
ffffffff800065c8:	0114c503          	lbu	a0,17(s1)
ffffffff800065cc:	0104c583          	lbu	a1,16(s1)
ffffffff800065d0:	0124c603          	lbu	a2,18(s1)
ffffffff800065d4:	0134c683          	lbu	a3,19(s1)
ffffffff800065d8:	0522                	slli	a0,a0,0x8
ffffffff800065da:	8d4d                	or	a0,a0,a1
ffffffff800065dc:	0642                	slli	a2,a2,0x10
ffffffff800065de:	06e2                	slli	a3,a3,0x18
ffffffff800065e0:	8e55                	or	a2,a2,a3
ffffffff800065e2:	8d51                	or	a0,a0,a2
ffffffff800065e4:	0154c583          	lbu	a1,21(s1)
ffffffff800065e8:	0144c603          	lbu	a2,20(s1)
ffffffff800065ec:	0164c683          	lbu	a3,22(s1)
ffffffff800065f0:	0174c703          	lbu	a4,23(s1)
ffffffff800065f4:	05a2                	slli	a1,a1,0x8
ffffffff800065f6:	8dd1                	or	a1,a1,a2
ffffffff800065f8:	06c2                	slli	a3,a3,0x10
ffffffff800065fa:	0762                	slli	a4,a4,0x18
ffffffff800065fc:	8ed9                	or	a3,a3,a4
ffffffff800065fe:	8dd5                	or	a1,a1,a3
ffffffff80006600:	1582                	slli	a1,a1,0x20
ffffffff80006602:	00a5e4b3          	or	s1,a1,a0
ffffffff80006606:	f8bd                	bnez	s1,ffffffff8000657c <hashmap_has+0x7c>
ffffffff80006608:	a011                	j	ffffffff8000660c <hashmap_has+0x10c>
ffffffff8000660a:	4a01                	li	s4,0
ffffffff8000660c:	854a                	mv	a0,s2
ffffffff8000660e:	ffffc097          	auipc	ra,0xffffc
ffffffff80006612:	bba080e7          	jalr	-1094(ra) # ffffffff800021c8 <spinlock_unlock>
ffffffff80006616:	8552                	mv	a0,s4
ffffffff80006618:	70a2                	ld	ra,40(sp)
ffffffff8000661a:	7402                	ld	s0,32(sp)
ffffffff8000661c:	64e2                	ld	s1,24(sp)
ffffffff8000661e:	6942                	ld	s2,16(sp)
ffffffff80006620:	69a2                	ld	s3,8(sp)
ffffffff80006622:	6a02                	ld	s4,0(sp)
ffffffff80006624:	6145                	addi	sp,sp,48
ffffffff80006626:	8082                	ret

ffffffff80006628 <hashmap_to_list>:
ffffffff80006628:	7175                	addi	sp,sp,-144
ffffffff8000662a:	e506                	sd	ra,136(sp)
ffffffff8000662c:	e122                	sd	s0,128(sp)
ffffffff8000662e:	fca6                	sd	s1,120(sp)
ffffffff80006630:	f8ca                	sd	s2,112(sp)
ffffffff80006632:	f4ce                	sd	s3,104(sp)
ffffffff80006634:	f0d2                	sd	s4,96(sp)
ffffffff80006636:	ecd6                	sd	s5,88(sp)
ffffffff80006638:	e8da                	sd	s6,80(sp)
ffffffff8000663a:	e4de                	sd	s7,72(sp)
ffffffff8000663c:	e0e2                	sd	s8,64(sp)
ffffffff8000663e:	fc66                	sd	s9,56(sp)
ffffffff80006640:	0900                	addi	s0,sp,144
ffffffff80006642:	892a                	mv	s2,a0
ffffffff80006644:	80008537          	lui	a0,0x80008
ffffffff80006648:	1af50993          	addi	s3,a0,431 # ffffffff800081af <$d.2+0x89>
ffffffff8000664c:	80008537          	lui	a0,0x80008
ffffffff80006650:	31e50613          	addi	a2,a0,798 # ffffffff8000831e <$d.1+0x68>
ffffffff80006654:	80008537          	lui	a0,0x80008
ffffffff80006658:	1c450693          	addi	a3,a0,452 # ffffffff800081c4 <$d.2+0x9e>
ffffffff8000665c:	1e200713          	li	a4,482
ffffffff80006660:	854a                	mv	a0,s2
ffffffff80006662:	85ce                	mv	a1,s3
ffffffff80006664:	ffffb097          	auipc	ra,0xffffb
ffffffff80006668:	dc0080e7          	jalr	-576(ra) # ffffffff80001424 <spinlock_lock_debug>
ffffffff8000666c:	04000513          	li	a0,64
ffffffff80006670:	ffffc097          	auipc	ra,0xffffc
ffffffff80006674:	50a080e7          	jalr	1290(ra) # ffffffff80002b7a <kmalloc>
ffffffff80006678:	8c2a                	mv	s8,a0
ffffffff8000667a:	00053423          	sd	zero,8(a0)
ffffffff8000667e:	00053823          	sd	zero,16(a0)
ffffffff80006682:	00053023          	sd	zero,0(a0)
ffffffff80006686:	fa042023          	sw	zero,-96(s0)
ffffffff8000668a:	80008537          	lui	a0,0x80008
ffffffff8000668e:	50f50513          	addi	a0,a0,1295 # ffffffff8000850f <$d.1>
ffffffff80006692:	f8a43823          	sd	a0,-112(s0)
ffffffff80006696:	f8a43423          	sd	a0,-120(s0)
ffffffff8000669a:	f8042023          	sw	zero,-128(s0)
ffffffff8000669e:	557d                	li	a0,-1
ffffffff800066a0:	f6a43823          	sd	a0,-144(s0)
ffffffff800066a4:	fa042503          	lw	a0,-96(s0)
ffffffff800066a8:	00ac2c23          	sw	a0,24(s8)
ffffffff800066ac:	f9c42503          	lw	a0,-100(s0)
ffffffff800066b0:	00ac2e23          	sw	a0,28(s8)
ffffffff800066b4:	f9043503          	ld	a0,-112(s0)
ffffffff800066b8:	02ac3023          	sd	a0,32(s8)
ffffffff800066bc:	f8843503          	ld	a0,-120(s0)
ffffffff800066c0:	02ac3423          	sd	a0,40(s8)
ffffffff800066c4:	f8042503          	lw	a0,-128(s0)
ffffffff800066c8:	02ac2823          	sw	a0,48(s8)
ffffffff800066cc:	f7c42503          	lw	a0,-132(s0)
ffffffff800066d0:	02ac2a23          	sw	a0,52(s8)
ffffffff800066d4:	f7043503          	ld	a0,-144(s0)
ffffffff800066d8:	02ac3c23          	sd	a0,56(s8)
ffffffff800066dc:	02893503          	ld	a0,40(s2)
ffffffff800066e0:	14050263          	beqz	a0,ffffffff80006824 <hashmap_to_list+0x1fc>
ffffffff800066e4:	4b81                	li	s7,0
ffffffff800066e6:	018c0a13          	addi	s4,s8,24
ffffffff800066ea:	800085b7          	lui	a1,0x80008
ffffffff800066ee:	75a58a93          	addi	s5,a1,1882 # ffffffff8000875a <$d.2+0x55>
ffffffff800066f2:	800085b7          	lui	a1,0x80008
ffffffff800066f6:	3e458b13          	addi	s6,a1,996 # ffffffff800083e4 <$d.2+0x6c>
ffffffff800066fa:	a031                	j	ffffffff80006706 <hashmap_to_list+0xde>
ffffffff800066fc:	02893503          	ld	a0,40(s2)
ffffffff80006700:	0b85                	addi	s7,s7,1
ffffffff80006702:	12abf163          	bgeu	s7,a0,ffffffff80006824 <hashmap_to_list+0x1fc>
ffffffff80006706:	03093583          	ld	a1,48(s2)
ffffffff8000670a:	003b9613          	slli	a2,s7,0x3
ffffffff8000670e:	95b2                	add	a1,a1,a2
ffffffff80006710:	0015c603          	lbu	a2,1(a1)
ffffffff80006714:	0005c683          	lbu	a3,0(a1)
ffffffff80006718:	0025c703          	lbu	a4,2(a1)
ffffffff8000671c:	0035c783          	lbu	a5,3(a1)
ffffffff80006720:	0622                	slli	a2,a2,0x8
ffffffff80006722:	8e55                	or	a2,a2,a3
ffffffff80006724:	0742                	slli	a4,a4,0x10
ffffffff80006726:	07e2                	slli	a5,a5,0x18
ffffffff80006728:	8f5d                	or	a4,a4,a5
ffffffff8000672a:	8e59                	or	a2,a2,a4
ffffffff8000672c:	0055c683          	lbu	a3,5(a1)
ffffffff80006730:	0045c703          	lbu	a4,4(a1)
ffffffff80006734:	0065c783          	lbu	a5,6(a1)
ffffffff80006738:	0075c583          	lbu	a1,7(a1)
ffffffff8000673c:	06a2                	slli	a3,a3,0x8
ffffffff8000673e:	8ed9                	or	a3,a3,a4
ffffffff80006740:	07c2                	slli	a5,a5,0x10
ffffffff80006742:	05e2                	slli	a1,a1,0x18
ffffffff80006744:	8ddd                	or	a1,a1,a5
ffffffff80006746:	8dd5                	or	a1,a1,a3
ffffffff80006748:	1582                	slli	a1,a1,0x20
ffffffff8000674a:	00c5e4b3          	or	s1,a1,a2
ffffffff8000674e:	eca1                	bnez	s1,ffffffff800067a6 <hashmap_to_list+0x17e>
ffffffff80006750:	bf45                	j	ffffffff80006700 <hashmap_to_list+0xd8>
ffffffff80006752:	000c3503          	ld	a0,0(s8)
ffffffff80006756:	0505                	addi	a0,a0,1
ffffffff80006758:	00ac3023          	sd	a0,0(s8)
ffffffff8000675c:	8552                	mv	a0,s4
ffffffff8000675e:	ffffc097          	auipc	ra,0xffffc
ffffffff80006762:	a6a080e7          	jalr	-1430(ra) # ffffffff800021c8 <spinlock_unlock>
ffffffff80006766:	0114c503          	lbu	a0,17(s1)
ffffffff8000676a:	0104c583          	lbu	a1,16(s1)
ffffffff8000676e:	0124c603          	lbu	a2,18(s1)
ffffffff80006772:	0134c683          	lbu	a3,19(s1)
ffffffff80006776:	0522                	slli	a0,a0,0x8
ffffffff80006778:	8d4d                	or	a0,a0,a1
ffffffff8000677a:	0642                	slli	a2,a2,0x10
ffffffff8000677c:	06e2                	slli	a3,a3,0x18
ffffffff8000677e:	8e55                	or	a2,a2,a3
ffffffff80006780:	8d51                	or	a0,a0,a2
ffffffff80006782:	0154c583          	lbu	a1,21(s1)
ffffffff80006786:	0144c603          	lbu	a2,20(s1)
ffffffff8000678a:	0164c683          	lbu	a3,22(s1)
ffffffff8000678e:	0174c703          	lbu	a4,23(s1)
ffffffff80006792:	05a2                	slli	a1,a1,0x8
ffffffff80006794:	8dd1                	or	a1,a1,a2
ffffffff80006796:	06c2                	slli	a3,a3,0x10
ffffffff80006798:	0762                	slli	a4,a4,0x18
ffffffff8000679a:	8ed9                	or	a3,a3,a4
ffffffff8000679c:	8dd5                	or	a1,a1,a3
ffffffff8000679e:	1582                	slli	a1,a1,0x20
ffffffff800067a0:	00a5e4b3          	or	s1,a1,a0
ffffffff800067a4:	dca1                	beqz	s1,ffffffff800066fc <hashmap_to_list+0xd4>
ffffffff800067a6:	0014c503          	lbu	a0,1(s1)
ffffffff800067aa:	0004c583          	lbu	a1,0(s1)
ffffffff800067ae:	0024c603          	lbu	a2,2(s1)
ffffffff800067b2:	0034c683          	lbu	a3,3(s1)
ffffffff800067b6:	0522                	slli	a0,a0,0x8
ffffffff800067b8:	8d4d                	or	a0,a0,a1
ffffffff800067ba:	0642                	slli	a2,a2,0x10
ffffffff800067bc:	06e2                	slli	a3,a3,0x18
ffffffff800067be:	8e55                	or	a2,a2,a3
ffffffff800067c0:	8d51                	or	a0,a0,a2
ffffffff800067c2:	0054c583          	lbu	a1,5(s1)
ffffffff800067c6:	0044c603          	lbu	a2,4(s1)
ffffffff800067ca:	0064c683          	lbu	a3,6(s1)
ffffffff800067ce:	0074c703          	lbu	a4,7(s1)
ffffffff800067d2:	05a2                	slli	a1,a1,0x8
ffffffff800067d4:	8dd1                	or	a1,a1,a2
ffffffff800067d6:	06c2                	slli	a3,a3,0x10
ffffffff800067d8:	0762                	slli	a4,a4,0x18
ffffffff800067da:	8ed9                	or	a3,a3,a4
ffffffff800067dc:	8dd5                	or	a1,a1,a3
ffffffff800067de:	1582                	slli	a1,a1,0x20
ffffffff800067e0:	00a5ecb3          	or	s9,a1,a0
ffffffff800067e4:	03400713          	li	a4,52
ffffffff800067e8:	8552                	mv	a0,s4
ffffffff800067ea:	85ce                	mv	a1,s3
ffffffff800067ec:	8656                	mv	a2,s5
ffffffff800067ee:	86da                	mv	a3,s6
ffffffff800067f0:	ffffb097          	auipc	ra,0xffffb
ffffffff800067f4:	c34080e7          	jalr	-972(ra) # ffffffff80001424 <spinlock_lock_debug>
ffffffff800067f8:	4561                	li	a0,24
ffffffff800067fa:	ffffc097          	auipc	ra,0xffffc
ffffffff800067fe:	380080e7          	jalr	896(ra) # ffffffff80002b7a <kmalloc>
ffffffff80006802:	010c3583          	ld	a1,16(s8)
ffffffff80006806:	01953023          	sd	s9,0(a0)
ffffffff8000680a:	e50c                	sd	a1,8(a0)
ffffffff8000680c:	00053823          	sd	zero,16(a0)
ffffffff80006810:	c191                	beqz	a1,ffffffff80006814 <hashmap_to_list+0x1ec>
ffffffff80006812:	e988                	sd	a0,16(a1)
ffffffff80006814:	008c3583          	ld	a1,8(s8)
ffffffff80006818:	00ac3823          	sd	a0,16(s8)
ffffffff8000681c:	f99d                	bnez	a1,ffffffff80006752 <hashmap_to_list+0x12a>
ffffffff8000681e:	00ac3423          	sd	a0,8(s8)
ffffffff80006822:	bf05                	j	ffffffff80006752 <hashmap_to_list+0x12a>
ffffffff80006824:	854a                	mv	a0,s2
ffffffff80006826:	ffffc097          	auipc	ra,0xffffc
ffffffff8000682a:	9a2080e7          	jalr	-1630(ra) # ffffffff800021c8 <spinlock_unlock>
ffffffff8000682e:	8562                	mv	a0,s8
ffffffff80006830:	60aa                	ld	ra,136(sp)
ffffffff80006832:	640a                	ld	s0,128(sp)
ffffffff80006834:	74e6                	ld	s1,120(sp)
ffffffff80006836:	7946                	ld	s2,112(sp)
ffffffff80006838:	79a6                	ld	s3,104(sp)
ffffffff8000683a:	7a06                	ld	s4,96(sp)
ffffffff8000683c:	6ae6                	ld	s5,88(sp)
ffffffff8000683e:	6b46                	ld	s6,80(sp)
ffffffff80006840:	6ba6                	ld	s7,72(sp)
ffffffff80006842:	6c06                	ld	s8,64(sp)
ffffffff80006844:	7ce2                	ld	s9,56(sp)
ffffffff80006846:	6149                	addi	sp,sp,144
ffffffff80006848:	8082                	ret

ffffffff8000684a <memset>:
ffffffff8000684a:	ce19                	beqz	a2,ffffffff80006868 <memset+0x1e>
ffffffff8000684c:	1141                	addi	sp,sp,-16
ffffffff8000684e:	e406                	sd	ra,8(sp)
ffffffff80006850:	e022                	sd	s0,0(sp)
ffffffff80006852:	0800                	addi	s0,sp,16
ffffffff80006854:	962a                	add	a2,a2,a0
ffffffff80006856:	86aa                	mv	a3,a0
ffffffff80006858:	00b68023          	sb	a1,0(a3)
ffffffff8000685c:	0685                	addi	a3,a3,1
ffffffff8000685e:	fec69de3          	bne	a3,a2,ffffffff80006858 <memset+0xe>
ffffffff80006862:	60a2                	ld	ra,8(sp)
ffffffff80006864:	6402                	ld	s0,0(sp)
ffffffff80006866:	0141                	addi	sp,sp,16
ffffffff80006868:	8082                	ret

ffffffff8000686a <memcpy64>:
ffffffff8000686a:	820d                	srli	a2,a2,0x3
ffffffff8000686c:	c20d                	beqz	a2,ffffffff8000688e <memcpy64+0x24>
ffffffff8000686e:	1141                	addi	sp,sp,-16
ffffffff80006870:	e406                	sd	ra,8(sp)
ffffffff80006872:	e022                	sd	s0,0(sp)
ffffffff80006874:	0800                	addi	s0,sp,16
ffffffff80006876:	060e                	slli	a2,a2,0x3
ffffffff80006878:	962a                	add	a2,a2,a0
ffffffff8000687a:	86aa                	mv	a3,a0
ffffffff8000687c:	6198                	ld	a4,0(a1)
ffffffff8000687e:	e298                	sd	a4,0(a3)
ffffffff80006880:	06a1                	addi	a3,a3,8
ffffffff80006882:	05a1                	addi	a1,a1,8
ffffffff80006884:	fec69ce3          	bne	a3,a2,ffffffff8000687c <memcpy64+0x12>
ffffffff80006888:	60a2                	ld	ra,8(sp)
ffffffff8000688a:	6402                	ld	s0,0(sp)
ffffffff8000688c:	0141                	addi	sp,sp,16
ffffffff8000688e:	8082                	ret

ffffffff80006890 <memcpy>:
ffffffff80006890:	c605                	beqz	a2,ffffffff800068b8 <memcpy+0x28>
ffffffff80006892:	1141                	addi	sp,sp,-16
ffffffff80006894:	e406                	sd	ra,8(sp)
ffffffff80006896:	e022                	sd	s0,0(sp)
ffffffff80006898:	0800                	addi	s0,sp,16
ffffffff8000689a:	962a                	add	a2,a2,a0
ffffffff8000689c:	86aa                	mv	a3,a0
ffffffff8000689e:	0005c703          	lbu	a4,0(a1)
ffffffff800068a2:	0585                	addi	a1,a1,1
ffffffff800068a4:	00168793          	addi	a5,a3,1
ffffffff800068a8:	00e68023          	sb	a4,0(a3)
ffffffff800068ac:	86be                	mv	a3,a5
ffffffff800068ae:	fec798e3          	bne	a5,a2,ffffffff8000689e <memcpy+0xe>
ffffffff800068b2:	60a2                	ld	ra,8(sp)
ffffffff800068b4:	6402                	ld	s0,0(sp)
ffffffff800068b6:	0141                	addi	sp,sp,16
ffffffff800068b8:	8082                	ret

ffffffff800068ba <memmove>:
ffffffff800068ba:	02b57563          	bgeu	a0,a1,ffffffff800068e4 <memmove+0x2a>
ffffffff800068be:	c239                	beqz	a2,ffffffff80006904 <memmove+0x4a>
ffffffff800068c0:	1141                	addi	sp,sp,-16
ffffffff800068c2:	e406                	sd	ra,8(sp)
ffffffff800068c4:	e022                	sd	s0,0(sp)
ffffffff800068c6:	0800                	addi	s0,sp,16
ffffffff800068c8:	962a                	add	a2,a2,a0
ffffffff800068ca:	86aa                	mv	a3,a0
ffffffff800068cc:	0005c703          	lbu	a4,0(a1)
ffffffff800068d0:	00e68023          	sb	a4,0(a3)
ffffffff800068d4:	0685                	addi	a3,a3,1
ffffffff800068d6:	0585                	addi	a1,a1,1
ffffffff800068d8:	fec69ae3          	bne	a3,a2,ffffffff800068cc <memmove+0x12>
ffffffff800068dc:	60a2                	ld	ra,8(sp)
ffffffff800068de:	6402                	ld	s0,0(sp)
ffffffff800068e0:	0141                	addi	sp,sp,16
ffffffff800068e2:	8082                	ret
ffffffff800068e4:	02a5f063          	bgeu	a1,a0,ffffffff80006904 <memmove+0x4a>
ffffffff800068e8:	ce11                	beqz	a2,ffffffff80006904 <memmove+0x4a>
ffffffff800068ea:	fff50693          	addi	a3,a0,-1
ffffffff800068ee:	15fd                	addi	a1,a1,-1
ffffffff800068f0:	00c58733          	add	a4,a1,a2
ffffffff800068f4:	00074703          	lbu	a4,0(a4)
ffffffff800068f8:	00c687b3          	add	a5,a3,a2
ffffffff800068fc:	167d                	addi	a2,a2,-1
ffffffff800068fe:	00e78023          	sb	a4,0(a5)
ffffffff80006902:	f67d                	bnez	a2,ffffffff800068f0 <memmove+0x36>
ffffffff80006904:	8082                	ret

ffffffff80006906 <memcmp>:
ffffffff80006906:	c615                	beqz	a2,ffffffff80006932 <memcmp+0x2c>
ffffffff80006908:	1141                	addi	sp,sp,-16
ffffffff8000690a:	e406                	sd	ra,8(sp)
ffffffff8000690c:	e022                	sd	s0,0(sp)
ffffffff8000690e:	0800                	addi	s0,sp,16
ffffffff80006910:	a029                	j	ffffffff8000691a <memcmp+0x14>
ffffffff80006912:	0505                	addi	a0,a0,1
ffffffff80006914:	167d                	addi	a2,a2,-1
ffffffff80006916:	0585                	addi	a1,a1,1
ffffffff80006918:	ce19                	beqz	a2,ffffffff80006936 <memcmp+0x30>
ffffffff8000691a:	00054683          	lbu	a3,0(a0)
ffffffff8000691e:	0005c703          	lbu	a4,0(a1)
ffffffff80006922:	fee688e3          	beq	a3,a4,ffffffff80006912 <memcmp+0xc>
ffffffff80006926:	00e6ea63          	bltu	a3,a4,ffffffff8000693a <memcmp+0x34>
ffffffff8000692a:	fed774e3          	bgeu	a4,a3,ffffffff80006912 <memcmp+0xc>
ffffffff8000692e:	4505                	li	a0,1
ffffffff80006930:	a031                	j	ffffffff8000693c <memcmp+0x36>
ffffffff80006932:	4501                	li	a0,0
ffffffff80006934:	8082                	ret
ffffffff80006936:	4501                	li	a0,0
ffffffff80006938:	a011                	j	ffffffff8000693c <memcmp+0x36>
ffffffff8000693a:	557d                	li	a0,-1
ffffffff8000693c:	60a2                	ld	ra,8(sp)
ffffffff8000693e:	6402                	ld	s0,0(sp)
ffffffff80006940:	0141                	addi	sp,sp,16
ffffffff80006942:	8082                	ret

ffffffff80006944 <strcmp>:
ffffffff80006944:	1141                	addi	sp,sp,-16
ffffffff80006946:	e406                	sd	ra,8(sp)
ffffffff80006948:	e022                	sd	s0,0(sp)
ffffffff8000694a:	0800                	addi	s0,sp,16
ffffffff8000694c:	00054683          	lbu	a3,0(a0)
ffffffff80006950:	0005c603          	lbu	a2,0(a1)
ffffffff80006954:	0505                	addi	a0,a0,1
ffffffff80006956:	0585                	addi	a1,a1,1
ffffffff80006958:	c299                	beqz	a3,ffffffff8000695e <strcmp+0x1a>
ffffffff8000695a:	fec689e3          	beq	a3,a2,ffffffff8000694c <strcmp+0x8>
ffffffff8000695e:	00c6e763          	bltu	a3,a2,ffffffff8000696c <strcmp+0x28>
ffffffff80006962:	00d66763          	bltu	a2,a3,ffffffff80006970 <strcmp+0x2c>
ffffffff80006966:	f27d                	bnez	a2,ffffffff8000694c <strcmp+0x8>
ffffffff80006968:	4501                	li	a0,0
ffffffff8000696a:	a021                	j	ffffffff80006972 <strcmp+0x2e>
ffffffff8000696c:	557d                	li	a0,-1
ffffffff8000696e:	a011                	j	ffffffff80006972 <strcmp+0x2e>
ffffffff80006970:	4505                	li	a0,1
ffffffff80006972:	60a2                	ld	ra,8(sp)
ffffffff80006974:	6402                	ld	s0,0(sp)
ffffffff80006976:	0141                	addi	sp,sp,16
ffffffff80006978:	8082                	ret

ffffffff8000697a <strncmp>:
ffffffff8000697a:	ca05                	beqz	a2,ffffffff800069aa <strncmp+0x30>
ffffffff8000697c:	1141                	addi	sp,sp,-16
ffffffff8000697e:	e406                	sd	ra,8(sp)
ffffffff80006980:	e022                	sd	s0,0(sp)
ffffffff80006982:	0800                	addi	s0,sp,16
ffffffff80006984:	a019                	j	ffffffff8000698a <strncmp+0x10>
ffffffff80006986:	167d                	addi	a2,a2,-1
ffffffff80006988:	c21d                	beqz	a2,ffffffff800069ae <strncmp+0x34>
ffffffff8000698a:	00054703          	lbu	a4,0(a0)
ffffffff8000698e:	0005c683          	lbu	a3,0(a1)
ffffffff80006992:	0505                	addi	a0,a0,1
ffffffff80006994:	0585                	addi	a1,a1,1
ffffffff80006996:	c319                	beqz	a4,ffffffff8000699c <strncmp+0x22>
ffffffff80006998:	fed707e3          	beq	a4,a3,ffffffff80006986 <strncmp+0xc>
ffffffff8000699c:	00d71b63          	bne	a4,a3,ffffffff800069b2 <strncmp+0x38>
ffffffff800069a0:	4681                	li	a3,0
ffffffff800069a2:	cb09                	beqz	a4,ffffffff800069b4 <strncmp+0x3a>
ffffffff800069a4:	167d                	addi	a2,a2,-1
ffffffff800069a6:	f275                	bnez	a2,ffffffff8000698a <strncmp+0x10>
ffffffff800069a8:	a031                	j	ffffffff800069b4 <strncmp+0x3a>
ffffffff800069aa:	4501                	li	a0,0
ffffffff800069ac:	8082                	ret
ffffffff800069ae:	4681                	li	a3,0
ffffffff800069b0:	a011                	j	ffffffff800069b4 <strncmp+0x3a>
ffffffff800069b2:	56fd                	li	a3,-1
ffffffff800069b4:	60a2                	ld	ra,8(sp)
ffffffff800069b6:	6402                	ld	s0,0(sp)
ffffffff800069b8:	0141                	addi	sp,sp,16
ffffffff800069ba:	8536                	mv	a0,a3
ffffffff800069bc:	8082                	ret

ffffffff800069be <strlen>:
ffffffff800069be:	1141                	addi	sp,sp,-16
ffffffff800069c0:	e406                	sd	ra,8(sp)
ffffffff800069c2:	e022                	sd	s0,0(sp)
ffffffff800069c4:	0800                	addi	s0,sp,16
ffffffff800069c6:	85aa                	mv	a1,a0
ffffffff800069c8:	00054503          	lbu	a0,0(a0)
ffffffff800069cc:	c909                	beqz	a0,ffffffff800069de <strlen+0x20>
ffffffff800069ce:	4501                	li	a0,0
ffffffff800069d0:	0585                	addi	a1,a1,1
ffffffff800069d2:	00a58633          	add	a2,a1,a0
ffffffff800069d6:	00064603          	lbu	a2,0(a2)
ffffffff800069da:	0505                	addi	a0,a0,1
ffffffff800069dc:	fa7d                	bnez	a2,ffffffff800069d2 <strlen+0x14>
ffffffff800069de:	60a2                	ld	ra,8(sp)
ffffffff800069e0:	6402                	ld	s0,0(sp)
ffffffff800069e2:	0141                	addi	sp,sp,16
ffffffff800069e4:	8082                	ret

ffffffff800069e6 <strdup>:
ffffffff800069e6:	1101                	addi	sp,sp,-32
ffffffff800069e8:	ec06                	sd	ra,24(sp)
ffffffff800069ea:	e822                	sd	s0,16(sp)
ffffffff800069ec:	e426                	sd	s1,8(sp)
ffffffff800069ee:	e04a                	sd	s2,0(sp)
ffffffff800069f0:	1000                	addi	s0,sp,32
ffffffff800069f2:	892a                	mv	s2,a0
ffffffff800069f4:	00054503          	lbu	a0,0(a0)
ffffffff800069f8:	cd19                	beqz	a0,ffffffff80006a16 <strdup+0x30>
ffffffff800069fa:	4485                	li	s1,1
ffffffff800069fc:	00990533          	add	a0,s2,s1
ffffffff80006a00:	00054503          	lbu	a0,0(a0)
ffffffff80006a04:	0485                	addi	s1,s1,1
ffffffff80006a06:	f97d                	bnez	a0,ffffffff800069fc <strdup+0x16>
ffffffff80006a08:	8526                	mv	a0,s1
ffffffff80006a0a:	ffffc097          	auipc	ra,0xffffc
ffffffff80006a0e:	170080e7          	jalr	368(ra) # ffffffff80002b7a <kmalloc>
ffffffff80006a12:	e881                	bnez	s1,ffffffff80006a22 <strdup+0x3c>
ffffffff80006a14:	a01d                	j	ffffffff80006a3a <strdup+0x54>
ffffffff80006a16:	4505                	li	a0,1
ffffffff80006a18:	4485                	li	s1,1
ffffffff80006a1a:	ffffc097          	auipc	ra,0xffffc
ffffffff80006a1e:	160080e7          	jalr	352(ra) # ffffffff80002b7a <kmalloc>
ffffffff80006a22:	94aa                	add	s1,s1,a0
ffffffff80006a24:	85aa                	mv	a1,a0
ffffffff80006a26:	00094603          	lbu	a2,0(s2)
ffffffff80006a2a:	0905                	addi	s2,s2,1
ffffffff80006a2c:	00158693          	addi	a3,a1,1
ffffffff80006a30:	00c58023          	sb	a2,0(a1)
ffffffff80006a34:	85b6                	mv	a1,a3
ffffffff80006a36:	fe9698e3          	bne	a3,s1,ffffffff80006a26 <strdup+0x40>
ffffffff80006a3a:	60e2                	ld	ra,24(sp)
ffffffff80006a3c:	6442                	ld	s0,16(sp)
ffffffff80006a3e:	64a2                	ld	s1,8(sp)
ffffffff80006a40:	6902                	ld	s2,0(sp)
ffffffff80006a42:	6105                	addi	sp,sp,32
ffffffff80006a44:	8082                	ret

ffffffff80006a46 <strcpy>:
ffffffff80006a46:	0005c603          	lbu	a2,0(a1)
ffffffff80006a4a:	ca11                	beqz	a2,ffffffff80006a5e <strcpy+0x18>
ffffffff80006a4c:	4605                	li	a2,1
ffffffff80006a4e:	00c586b3          	add	a3,a1,a2
ffffffff80006a52:	0006c683          	lbu	a3,0(a3)
ffffffff80006a56:	0605                	addi	a2,a2,1
ffffffff80006a58:	fafd                	bnez	a3,ffffffff80006a4e <strcpy+0x8>
ffffffff80006a5a:	e219                	bnez	a2,ffffffff80006a60 <strcpy+0x1a>
ffffffff80006a5c:	8082                	ret
ffffffff80006a5e:	4605                	li	a2,1
ffffffff80006a60:	1141                	addi	sp,sp,-16
ffffffff80006a62:	e406                	sd	ra,8(sp)
ffffffff80006a64:	e022                	sd	s0,0(sp)
ffffffff80006a66:	0800                	addi	s0,sp,16
ffffffff80006a68:	962a                	add	a2,a2,a0
ffffffff80006a6a:	0005c683          	lbu	a3,0(a1)
ffffffff80006a6e:	0585                	addi	a1,a1,1
ffffffff80006a70:	00150713          	addi	a4,a0,1
ffffffff80006a74:	00d50023          	sb	a3,0(a0)
ffffffff80006a78:	853a                	mv	a0,a4
ffffffff80006a7a:	fec718e3          	bne	a4,a2,ffffffff80006a6a <strcpy+0x24>
ffffffff80006a7e:	60a2                	ld	ra,8(sp)
ffffffff80006a80:	6402                	ld	s0,0(sp)
ffffffff80006a82:	0141                	addi	sp,sp,16
ffffffff80006a84:	8082                	ret

ffffffff80006a86 <strsep>:
ffffffff80006a86:	882a                	mv	a6,a0
ffffffff80006a88:	6108                	ld	a0,0(a0)
ffffffff80006a8a:	cd0d                	beqz	a0,ffffffff80006ac4 <strsep+0x3e>
ffffffff80006a8c:	1141                	addi	sp,sp,-16
ffffffff80006a8e:	e406                	sd	ra,8(sp)
ffffffff80006a90:	e022                	sd	s0,0(sp)
ffffffff80006a92:	0800                	addi	s0,sp,16
ffffffff80006a94:	872a                	mv	a4,a0
ffffffff80006a96:	00074783          	lbu	a5,0(a4)
ffffffff80006a9a:	00170893          	addi	a7,a4,1
ffffffff80006a9e:	862e                	mv	a2,a1
ffffffff80006aa0:	00064683          	lbu	a3,0(a2)
ffffffff80006aa4:	00f68663          	beq	a3,a5,ffffffff80006ab0 <strsep+0x2a>
ffffffff80006aa8:	0605                	addi	a2,a2,1
ffffffff80006aaa:	fafd                	bnez	a3,ffffffff80006aa0 <strsep+0x1a>
ffffffff80006aac:	8746                	mv	a4,a7
ffffffff80006aae:	b7e5                	j	ffffffff80006a96 <strsep+0x10>
ffffffff80006ab0:	c781                	beqz	a5,ffffffff80006ab8 <strsep+0x32>
ffffffff80006ab2:	00070023          	sb	zero,0(a4)
ffffffff80006ab6:	a011                	j	ffffffff80006aba <strsep+0x34>
ffffffff80006ab8:	4881                	li	a7,0
ffffffff80006aba:	01183023          	sd	a7,0(a6)
ffffffff80006abe:	60a2                	ld	ra,8(sp)
ffffffff80006ac0:	6402                	ld	s0,0(sp)
ffffffff80006ac2:	0141                	addi	sp,sp,16
ffffffff80006ac4:	8082                	ret

ffffffff80006ac6 <strstr>:
ffffffff80006ac6:	0005c883          	lbu	a7,0(a1)
ffffffff80006aca:	06088363          	beqz	a7,ffffffff80006b30 <strstr+0x6a>
ffffffff80006ace:	00158813          	addi	a6,a1,1
ffffffff80006ad2:	00084603          	lbu	a2,0(a6)
ffffffff80006ad6:	ca11                	beqz	a2,ffffffff80006aea <strstr+0x24>
ffffffff80006ad8:	4701                	li	a4,0
ffffffff80006ada:	0589                	addi	a1,a1,2
ffffffff80006adc:	00e58633          	add	a2,a1,a4
ffffffff80006ae0:	00064603          	lbu	a2,0(a2)
ffffffff80006ae4:	0705                	addi	a4,a4,1
ffffffff80006ae6:	fa7d                	bnez	a2,ffffffff80006adc <strstr+0x16>
ffffffff80006ae8:	a011                	j	ffffffff80006aec <strstr+0x26>
ffffffff80006aea:	4701                	li	a4,0
ffffffff80006aec:	1141                	addi	sp,sp,-16
ffffffff80006aee:	e406                	sd	ra,8(sp)
ffffffff80006af0:	e022                	sd	s0,0(sp)
ffffffff80006af2:	0800                	addi	s0,sp,16
ffffffff80006af4:	00054583          	lbu	a1,0(a0)
ffffffff80006af8:	cd8d                	beqz	a1,ffffffff80006b32 <strstr+0x6c>
ffffffff80006afa:	82aa                	mv	t0,a0
ffffffff80006afc:	0505                	addi	a0,a0,1
ffffffff80006afe:	ff159be3          	bne	a1,a7,ffffffff80006af4 <strstr+0x2e>
ffffffff80006b02:	c31d                	beqz	a4,ffffffff80006b28 <strstr+0x62>
ffffffff80006b04:	87ba                	mv	a5,a4
ffffffff80006b06:	8342                	mv	t1,a6
ffffffff80006b08:	862a                	mv	a2,a0
ffffffff80006b0a:	a019                	j	ffffffff80006b10 <strstr+0x4a>
ffffffff80006b0c:	17fd                	addi	a5,a5,-1
ffffffff80006b0e:	cf89                	beqz	a5,ffffffff80006b28 <strstr+0x62>
ffffffff80006b10:	00064583          	lbu	a1,0(a2)
ffffffff80006b14:	00034683          	lbu	a3,0(t1)
ffffffff80006b18:	0605                	addi	a2,a2,1
ffffffff80006b1a:	0305                	addi	t1,t1,1
ffffffff80006b1c:	c199                	beqz	a1,ffffffff80006b22 <strstr+0x5c>
ffffffff80006b1e:	fed587e3          	beq	a1,a3,ffffffff80006b0c <strstr+0x46>
ffffffff80006b22:	fcd599e3          	bne	a1,a3,ffffffff80006af4 <strstr+0x2e>
ffffffff80006b26:	f1fd                	bnez	a1,ffffffff80006b0c <strstr+0x46>
ffffffff80006b28:	8516                	mv	a0,t0
ffffffff80006b2a:	60a2                	ld	ra,8(sp)
ffffffff80006b2c:	6402                	ld	s0,0(sp)
ffffffff80006b2e:	0141                	addi	sp,sp,16
ffffffff80006b30:	8082                	ret
ffffffff80006b32:	4501                	li	a0,0
ffffffff80006b34:	bfdd                	j	ffffffff80006b2a <strstr+0x64>

ffffffff80006b36 <strspn>:
ffffffff80006b36:	7179                	addi	sp,sp,-48
ffffffff80006b38:	f406                	sd	ra,40(sp)
ffffffff80006b3a:	f022                	sd	s0,32(sp)
ffffffff80006b3c:	1800                	addi	s0,sp,48
ffffffff80006b3e:	0005c603          	lbu	a2,0(a1)
ffffffff80006b42:	fe043423          	sd	zero,-24(s0)
ffffffff80006b46:	fe043023          	sd	zero,-32(s0)
ffffffff80006b4a:	fc043c23          	sd	zero,-40(s0)
ffffffff80006b4e:	fc043823          	sd	zero,-48(s0)
ffffffff80006b52:	ce21                	beqz	a2,ffffffff80006baa <strspn+0x74>
ffffffff80006b54:	0015c683          	lbu	a3,1(a1)
ffffffff80006b58:	cab9                	beqz	a3,ffffffff80006bae <strspn+0x78>
ffffffff80006b5a:	0585                	addi	a1,a1,1
ffffffff80006b5c:	4805                	li	a6,1
ffffffff80006b5e:	fd040893          	addi	a7,s0,-48
ffffffff80006b62:	00365793          	srli	a5,a2,0x3
ffffffff80006b66:	8be1                	andi	a5,a5,24
ffffffff80006b68:	97c6                	add	a5,a5,a7
ffffffff80006b6a:	6394                	ld	a3,0(a5)
ffffffff80006b6c:	00c81733          	sll	a4,a6,a2
ffffffff80006b70:	0005c603          	lbu	a2,0(a1)
ffffffff80006b74:	8ed9                	or	a3,a3,a4
ffffffff80006b76:	e394                	sd	a3,0(a5)
ffffffff80006b78:	0585                	addi	a1,a1,1
ffffffff80006b7a:	f665                	bnez	a2,ffffffff80006b62 <strspn+0x2c>
ffffffff80006b7c:	00054603          	lbu	a2,0(a0)
ffffffff80006b80:	872a                	mv	a4,a0
ffffffff80006b82:	c231                	beqz	a2,ffffffff80006bc6 <strspn+0x90>
ffffffff80006b84:	fd040593          	addi	a1,s0,-48
ffffffff80006b88:	86aa                	mv	a3,a0
ffffffff80006b8a:	00365713          	srli	a4,a2,0x3
ffffffff80006b8e:	8b61                	andi	a4,a4,24
ffffffff80006b90:	972e                	add	a4,a4,a1
ffffffff80006b92:	6318                	ld	a4,0(a4)
ffffffff80006b94:	00c75633          	srl	a2,a4,a2
ffffffff80006b98:	8a05                	andi	a2,a2,1
ffffffff80006b9a:	c60d                	beqz	a2,ffffffff80006bc4 <strspn+0x8e>
ffffffff80006b9c:	0016c603          	lbu	a2,1(a3)
ffffffff80006ba0:	00168713          	addi	a4,a3,1
ffffffff80006ba4:	86ba                	mv	a3,a4
ffffffff80006ba6:	f275                	bnez	a2,ffffffff80006b8a <strspn+0x54>
ffffffff80006ba8:	a839                	j	ffffffff80006bc6 <strspn+0x90>
ffffffff80006baa:	4501                	li	a0,0
ffffffff80006bac:	a839                	j	ffffffff80006bca <strspn+0x94>
ffffffff80006bae:	4581                	li	a1,0
ffffffff80006bb0:	00b506b3          	add	a3,a0,a1
ffffffff80006bb4:	0006c683          	lbu	a3,0(a3)
ffffffff80006bb8:	0585                	addi	a1,a1,1
ffffffff80006bba:	fec68be3          	beq	a3,a2,ffffffff80006bb0 <strspn+0x7a>
ffffffff80006bbe:	fff58513          	addi	a0,a1,-1
ffffffff80006bc2:	a021                	j	ffffffff80006bca <strspn+0x94>
ffffffff80006bc4:	8736                	mv	a4,a3
ffffffff80006bc6:	40a70533          	sub	a0,a4,a0
ffffffff80006bca:	70a2                	ld	ra,40(sp)
ffffffff80006bcc:	7402                	ld	s0,32(sp)
ffffffff80006bce:	6145                	addi	sp,sp,48
ffffffff80006bd0:	8082                	ret

ffffffff80006bd2 <strchrnul>:
ffffffff80006bd2:	0ff5f813          	zext.b	a6,a1
ffffffff80006bd6:	06080a63          	beqz	a6,ffffffff80006c4a <strchrnul+0x78>
ffffffff80006bda:	1141                	addi	sp,sp,-16
ffffffff80006bdc:	e406                	sd	ra,8(sp)
ffffffff80006bde:	e022                	sd	s0,0(sp)
ffffffff80006be0:	0800                	addi	s0,sp,16
ffffffff80006be2:	00757693          	andi	a3,a0,7
ffffffff80006be6:	ce99                	beqz	a3,ffffffff80006c04 <strchrnul+0x32>
ffffffff80006be8:	00150693          	addi	a3,a0,1
ffffffff80006bec:	0ff5f713          	zext.b	a4,a1
ffffffff80006bf0:	00054783          	lbu	a5,0(a0)
ffffffff80006bf4:	c7b9                	beqz	a5,ffffffff80006c42 <strchrnul+0x70>
ffffffff80006bf6:	04e78663          	beq	a5,a4,ffffffff80006c42 <strchrnul+0x70>
ffffffff80006bfa:	0505                	addi	a0,a0,1
ffffffff80006bfc:	0076f793          	andi	a5,a3,7
ffffffff80006c00:	0685                	addi	a3,a3,1
ffffffff80006c02:	f7fd                	bnez	a5,ffffffff80006bf0 <strchrnul+0x1e>
ffffffff80006c04:	feff06b7          	lui	a3,0xfeff0
ffffffff80006c08:	eff6869b          	addiw	a3,a3,-257 # fffffffffefefeff <ActiveTasks+0x7eadf6d7>
ffffffff80006c0c:	02069713          	slli	a4,a3,0x20
ffffffff80006c10:	611c                	ld	a5,0(a0)
ffffffff80006c12:	00e688b3          	add	a7,a3,a4
ffffffff80006c16:	80009737          	lui	a4,0x80009
ffffffff80006c1a:	23873703          	ld	a4,568(a4) # ffffffff80009238 <$d.1>
ffffffff80006c1e:	fff7c613          	not	a2,a5
ffffffff80006c22:	011786b3          	add	a3,a5,a7
ffffffff80006c26:	8e75                	and	a2,a2,a3
ffffffff80006c28:	8e79                	and	a2,a2,a4
ffffffff80006c2a:	ce15                	beqz	a2,ffffffff80006c66 <strchrnul+0x94>
ffffffff80006c2c:	862a                	mv	a2,a0
ffffffff80006c2e:	fff60513          	addi	a0,a2,-1
ffffffff80006c32:	0ff5f593          	zext.b	a1,a1
ffffffff80006c36:	00154603          	lbu	a2,1(a0)
ffffffff80006c3a:	0505                	addi	a0,a0,1
ffffffff80006c3c:	c219                	beqz	a2,ffffffff80006c42 <strchrnul+0x70>
ffffffff80006c3e:	feb61ce3          	bne	a2,a1,ffffffff80006c36 <strchrnul+0x64>
ffffffff80006c42:	60a2                	ld	ra,8(sp)
ffffffff80006c44:	6402                	ld	s0,0(sp)
ffffffff80006c46:	0141                	addi	sp,sp,16
ffffffff80006c48:	8082                	ret
ffffffff80006c4a:	00054583          	lbu	a1,0(a0)
ffffffff80006c4e:	c991                	beqz	a1,ffffffff80006c62 <strchrnul+0x90>
ffffffff80006c50:	4581                	li	a1,0
ffffffff80006c52:	00150613          	addi	a2,a0,1
ffffffff80006c56:	00b606b3          	add	a3,a2,a1
ffffffff80006c5a:	0006c683          	lbu	a3,0(a3)
ffffffff80006c5e:	0585                	addi	a1,a1,1
ffffffff80006c60:	fafd                	bnez	a3,ffffffff80006c56 <strchrnul+0x84>
ffffffff80006c62:	952e                	add	a0,a0,a1
ffffffff80006c64:	8082                	ret
ffffffff80006c66:	01010637          	lui	a2,0x1010
ffffffff80006c6a:	1016061b          	addiw	a2,a2,257 # 1010101 <$d.3+0x10053b3>
ffffffff80006c6e:	02061693          	slli	a3,a2,0x20
ffffffff80006c72:	9636                	add	a2,a2,a3
ffffffff80006c74:	02c80833          	mul	a6,a6,a2
ffffffff80006c78:	0107c633          	xor	a2,a5,a6
ffffffff80006c7c:	fff64693          	not	a3,a2
ffffffff80006c80:	9646                	add	a2,a2,a7
ffffffff80006c82:	8ef9                	and	a3,a3,a4
ffffffff80006c84:	8e75                	and	a2,a2,a3
ffffffff80006c86:	f25d                	bnez	a2,ffffffff80006c2c <strchrnul+0x5a>
ffffffff80006c88:	651c                	ld	a5,8(a0)
ffffffff80006c8a:	00850613          	addi	a2,a0,8
ffffffff80006c8e:	fff7c513          	not	a0,a5
ffffffff80006c92:	011786b3          	add	a3,a5,a7
ffffffff80006c96:	8d79                	and	a0,a0,a4
ffffffff80006c98:	8ee9                	and	a3,a3,a0
ffffffff80006c9a:	8532                	mv	a0,a2
ffffffff80006c9c:	def1                	beqz	a3,ffffffff80006c78 <strchrnul+0xa6>
ffffffff80006c9e:	bf41                	j	ffffffff80006c2e <strchrnul+0x5c>

ffffffff80006ca0 <strcspn>:
ffffffff80006ca0:	7179                	addi	sp,sp,-48
ffffffff80006ca2:	f406                	sd	ra,40(sp)
ffffffff80006ca4:	f022                	sd	s0,32(sp)
ffffffff80006ca6:	1800                	addi	s0,sp,48
ffffffff80006ca8:	0005c603          	lbu	a2,0(a1)
ffffffff80006cac:	c635                	beqz	a2,ffffffff80006d18 <strcspn+0x78>
ffffffff80006cae:	0015c683          	lbu	a3,1(a1)
ffffffff80006cb2:	c6d1                	beqz	a3,ffffffff80006d3e <strcspn+0x9e>
ffffffff80006cb4:	fe043423          	sd	zero,-24(s0)
ffffffff80006cb8:	fe043023          	sd	zero,-32(s0)
ffffffff80006cbc:	fc043c23          	sd	zero,-40(s0)
ffffffff80006cc0:	fc043823          	sd	zero,-48(s0)
ffffffff80006cc4:	0585                	addi	a1,a1,1
ffffffff80006cc6:	4805                	li	a6,1
ffffffff80006cc8:	fd040893          	addi	a7,s0,-48
ffffffff80006ccc:	00365793          	srli	a5,a2,0x3
ffffffff80006cd0:	8be1                	andi	a5,a5,24
ffffffff80006cd2:	97c6                	add	a5,a5,a7
ffffffff80006cd4:	6394                	ld	a3,0(a5)
ffffffff80006cd6:	00c81733          	sll	a4,a6,a2
ffffffff80006cda:	0005c603          	lbu	a2,0(a1)
ffffffff80006cde:	8ed9                	or	a3,a3,a4
ffffffff80006ce0:	e394                	sd	a3,0(a5)
ffffffff80006ce2:	0585                	addi	a1,a1,1
ffffffff80006ce4:	f665                	bnez	a2,ffffffff80006ccc <strcspn+0x2c>
ffffffff80006ce6:	00054603          	lbu	a2,0(a0)
ffffffff80006cea:	872a                	mv	a4,a0
ffffffff80006cec:	c21d                	beqz	a2,ffffffff80006d12 <strcspn+0x72>
ffffffff80006cee:	fd040593          	addi	a1,s0,-48
ffffffff80006cf2:	86aa                	mv	a3,a0
ffffffff80006cf4:	00365713          	srli	a4,a2,0x3
ffffffff80006cf8:	8b61                	andi	a4,a4,24
ffffffff80006cfa:	972e                	add	a4,a4,a1
ffffffff80006cfc:	6318                	ld	a4,0(a4)
ffffffff80006cfe:	00c75633          	srl	a2,a4,a2
ffffffff80006d02:	8a05                	andi	a2,a2,1
ffffffff80006d04:	ee41                	bnez	a2,ffffffff80006d9c <strcspn+0xfc>
ffffffff80006d06:	0016c603          	lbu	a2,1(a3)
ffffffff80006d0a:	00168713          	addi	a4,a3,1
ffffffff80006d0e:	86ba                	mv	a3,a4
ffffffff80006d10:	f275                	bnez	a2,ffffffff80006cf4 <strcspn+0x54>
ffffffff80006d12:	40a70533          	sub	a0,a4,a0
ffffffff80006d16:	a005                	j	ffffffff80006d36 <strcspn+0x96>
ffffffff80006d18:	00054583          	lbu	a1,0(a0)
ffffffff80006d1c:	c991                	beqz	a1,ffffffff80006d30 <strcspn+0x90>
ffffffff80006d1e:	4581                	li	a1,0
ffffffff80006d20:	00150613          	addi	a2,a0,1
ffffffff80006d24:	00b606b3          	add	a3,a2,a1
ffffffff80006d28:	0006c683          	lbu	a3,0(a3)
ffffffff80006d2c:	0585                	addi	a1,a1,1
ffffffff80006d2e:	fafd                	bnez	a3,ffffffff80006d24 <strcspn+0x84>
ffffffff80006d30:	95aa                	add	a1,a1,a0
ffffffff80006d32:	40a58533          	sub	a0,a1,a0
ffffffff80006d36:	70a2                	ld	ra,40(sp)
ffffffff80006d38:	7402                	ld	s0,32(sp)
ffffffff80006d3a:	6145                	addi	sp,sp,48
ffffffff80006d3c:	8082                	ret
ffffffff80006d3e:	00757693          	andi	a3,a0,7
ffffffff80006d42:	85aa                	mv	a1,a0
ffffffff80006d44:	ce91                	beqz	a3,ffffffff80006d60 <strcspn+0xc0>
ffffffff80006d46:	00150693          	addi	a3,a0,1
ffffffff80006d4a:	85aa                	mv	a1,a0
ffffffff80006d4c:	0005c703          	lbu	a4,0(a1)
ffffffff80006d50:	d36d                	beqz	a4,ffffffff80006d32 <strcspn+0x92>
ffffffff80006d52:	fec700e3          	beq	a4,a2,ffffffff80006d32 <strcspn+0x92>
ffffffff80006d56:	0585                	addi	a1,a1,1
ffffffff80006d58:	0076f713          	andi	a4,a3,7
ffffffff80006d5c:	0685                	addi	a3,a3,1
ffffffff80006d5e:	f77d                	bnez	a4,ffffffff80006d4c <strcspn+0xac>
ffffffff80006d60:	feff06b7          	lui	a3,0xfeff0
ffffffff80006d64:	eff6889b          	addiw	a7,a3,-257 # fffffffffefefeff <ActiveTasks+0x7eadf6d7>
ffffffff80006d68:	02089693          	slli	a3,a7,0x20
ffffffff80006d6c:	6198                	ld	a4,0(a1)
ffffffff80006d6e:	98b6                	add	a7,a7,a3
ffffffff80006d70:	800096b7          	lui	a3,0x80009
ffffffff80006d74:	2406b283          	ld	t0,576(a3) # ffffffff80009240 <.LCPI14_0>
ffffffff80006d78:	fff74693          	not	a3,a4
ffffffff80006d7c:	011707b3          	add	a5,a4,a7
ffffffff80006d80:	8efd                	and	a3,a3,a5
ffffffff80006d82:	0056f6b3          	and	a3,a3,t0
ffffffff80006d86:	ce99                	beqz	a3,ffffffff80006da4 <strcspn+0x104>
ffffffff80006d88:	86ae                	mv	a3,a1
ffffffff80006d8a:	fff68593          	addi	a1,a3,-1
ffffffff80006d8e:	0015c683          	lbu	a3,1(a1)
ffffffff80006d92:	0585                	addi	a1,a1,1
ffffffff80006d94:	ded9                	beqz	a3,ffffffff80006d32 <strcspn+0x92>
ffffffff80006d96:	fec69ce3          	bne	a3,a2,ffffffff80006d8e <strcspn+0xee>
ffffffff80006d9a:	bf61                	j	ffffffff80006d32 <strcspn+0x92>
ffffffff80006d9c:	8736                	mv	a4,a3
ffffffff80006d9e:	40a68533          	sub	a0,a3,a0
ffffffff80006da2:	bf51                	j	ffffffff80006d36 <strcspn+0x96>
ffffffff80006da4:	010106b7          	lui	a3,0x1010
ffffffff80006da8:	1016869b          	addiw	a3,a3,257 # 1010101 <$d.3+0x10053b3>
ffffffff80006dac:	02069793          	slli	a5,a3,0x20
ffffffff80006db0:	96be                	add	a3,a3,a5
ffffffff80006db2:	02d60833          	mul	a6,a2,a3
ffffffff80006db6:	010746b3          	xor	a3,a4,a6
ffffffff80006dba:	fff6c713          	not	a4,a3
ffffffff80006dbe:	96c6                	add	a3,a3,a7
ffffffff80006dc0:	00577733          	and	a4,a4,t0
ffffffff80006dc4:	8ef9                	and	a3,a3,a4
ffffffff80006dc6:	f2e9                	bnez	a3,ffffffff80006d88 <strcspn+0xe8>
ffffffff80006dc8:	6598                	ld	a4,8(a1)
ffffffff80006dca:	00858693          	addi	a3,a1,8
ffffffff80006dce:	fff74593          	not	a1,a4
ffffffff80006dd2:	011707b3          	add	a5,a4,a7
ffffffff80006dd6:	0055f5b3          	and	a1,a1,t0
ffffffff80006dda:	8fed                	and	a5,a5,a1
ffffffff80006ddc:	85b6                	mv	a1,a3
ffffffff80006dde:	dfe1                	beqz	a5,ffffffff80006db6 <strcspn+0x116>
ffffffff80006de0:	b76d                	j	ffffffff80006d8a <strcspn+0xea>

ffffffff80006de2 <strpbrk>:
ffffffff80006de2:	1101                	addi	sp,sp,-32
ffffffff80006de4:	ec06                	sd	ra,24(sp)
ffffffff80006de6:	e822                	sd	s0,16(sp)
ffffffff80006de8:	e426                	sd	s1,8(sp)
ffffffff80006dea:	1000                	addi	s0,sp,32
ffffffff80006dec:	84aa                	mv	s1,a0
ffffffff80006dee:	00000097          	auipc	ra,0x0
ffffffff80006df2:	eb2080e7          	jalr	-334(ra) # ffffffff80006ca0 <strcspn>
ffffffff80006df6:	9526                	add	a0,a0,s1
ffffffff80006df8:	00054583          	lbu	a1,0(a0)
ffffffff80006dfc:	0015b593          	seqz	a1,a1
ffffffff80006e00:	15fd                	addi	a1,a1,-1
ffffffff80006e02:	8d6d                	and	a0,a0,a1
ffffffff80006e04:	60e2                	ld	ra,24(sp)
ffffffff80006e06:	6442                	ld	s0,16(sp)
ffffffff80006e08:	64a2                	ld	s1,8(sp)
ffffffff80006e0a:	6105                	addi	sp,sp,32
ffffffff80006e0c:	8082                	ret

ffffffff80006e0e <strchr>:
ffffffff80006e0e:	1141                	addi	sp,sp,-16
ffffffff80006e10:	e406                	sd	ra,8(sp)
ffffffff80006e12:	e022                	sd	s0,0(sp)
ffffffff80006e14:	0800                	addi	s0,sp,16
ffffffff80006e16:	0ff5f813          	zext.b	a6,a1
ffffffff80006e1a:	06080363          	beqz	a6,ffffffff80006e80 <strchr+0x72>
ffffffff80006e1e:	00757693          	andi	a3,a0,7
ffffffff80006e22:	ce99                	beqz	a3,ffffffff80006e40 <strchr+0x32>
ffffffff80006e24:	00150713          	addi	a4,a0,1
ffffffff80006e28:	00054683          	lbu	a3,0(a0)
ffffffff80006e2c:	cacd                	beqz	a3,ffffffff80006ede <strchr+0xd0>
ffffffff80006e2e:	0ff5f793          	zext.b	a5,a1
ffffffff80006e32:	0af68663          	beq	a3,a5,ffffffff80006ede <strchr+0xd0>
ffffffff80006e36:	0505                	addi	a0,a0,1
ffffffff80006e38:	00777693          	andi	a3,a4,7
ffffffff80006e3c:	0705                	addi	a4,a4,1
ffffffff80006e3e:	f6ed                	bnez	a3,ffffffff80006e28 <strchr+0x1a>
ffffffff80006e40:	feff06b7          	lui	a3,0xfeff0
ffffffff80006e44:	eff6869b          	addiw	a3,a3,-257 # fffffffffefefeff <ActiveTasks+0x7eadf6d7>
ffffffff80006e48:	02069713          	slli	a4,a3,0x20
ffffffff80006e4c:	611c                	ld	a5,0(a0)
ffffffff80006e4e:	00e688b3          	add	a7,a3,a4
ffffffff80006e52:	80009737          	lui	a4,0x80009
ffffffff80006e56:	24873703          	ld	a4,584(a4) # ffffffff80009248 <.LCPI16_0>
ffffffff80006e5a:	fff7c613          	not	a2,a5
ffffffff80006e5e:	011786b3          	add	a3,a5,a7
ffffffff80006e62:	8e75                	and	a2,a2,a3
ffffffff80006e64:	8e79                	and	a2,a2,a4
ffffffff80006e66:	ca1d                	beqz	a2,ffffffff80006e9c <strchr+0x8e>
ffffffff80006e68:	862a                	mv	a2,a0
ffffffff80006e6a:	fff60513          	addi	a0,a2,-1
ffffffff80006e6e:	00154683          	lbu	a3,1(a0)
ffffffff80006e72:	0505                	addi	a0,a0,1
ffffffff80006e74:	c6ad                	beqz	a3,ffffffff80006ede <strchr+0xd0>
ffffffff80006e76:	0ff5f613          	zext.b	a2,a1
ffffffff80006e7a:	fec69ae3          	bne	a3,a2,ffffffff80006e6e <strchr+0x60>
ffffffff80006e7e:	a085                	j	ffffffff80006ede <strchr+0xd0>
ffffffff80006e80:	00054583          	lbu	a1,0(a0)
ffffffff80006e84:	c9a9                	beqz	a1,ffffffff80006ed6 <strchr+0xc8>
ffffffff80006e86:	4601                	li	a2,0
ffffffff80006e88:	00150593          	addi	a1,a0,1
ffffffff80006e8c:	0005c683          	lbu	a3,0(a1)
ffffffff80006e90:	0605                	addi	a2,a2,1
ffffffff80006e92:	0585                	addi	a1,a1,1
ffffffff80006e94:	fee5                	bnez	a3,ffffffff80006e8c <strchr+0x7e>
ffffffff80006e96:	fff5c683          	lbu	a3,-1(a1)
ffffffff80006e9a:	a081                	j	ffffffff80006eda <strchr+0xcc>
ffffffff80006e9c:	01010637          	lui	a2,0x1010
ffffffff80006ea0:	1016061b          	addiw	a2,a2,257 # 1010101 <$d.3+0x10053b3>
ffffffff80006ea4:	02061693          	slli	a3,a2,0x20
ffffffff80006ea8:	9636                	add	a2,a2,a3
ffffffff80006eaa:	02c80833          	mul	a6,a6,a2
ffffffff80006eae:	0107c633          	xor	a2,a5,a6
ffffffff80006eb2:	fff64693          	not	a3,a2
ffffffff80006eb6:	9646                	add	a2,a2,a7
ffffffff80006eb8:	8ef9                	and	a3,a3,a4
ffffffff80006eba:	8e75                	and	a2,a2,a3
ffffffff80006ebc:	f655                	bnez	a2,ffffffff80006e68 <strchr+0x5a>
ffffffff80006ebe:	651c                	ld	a5,8(a0)
ffffffff80006ec0:	00850613          	addi	a2,a0,8
ffffffff80006ec4:	fff7c513          	not	a0,a5
ffffffff80006ec8:	011786b3          	add	a3,a5,a7
ffffffff80006ecc:	8d79                	and	a0,a0,a4
ffffffff80006ece:	8ee9                	and	a3,a3,a0
ffffffff80006ed0:	8532                	mv	a0,a2
ffffffff80006ed2:	def1                	beqz	a3,ffffffff80006eae <strchr+0xa0>
ffffffff80006ed4:	bf59                	j	ffffffff80006e6a <strchr+0x5c>
ffffffff80006ed6:	4681                	li	a3,0
ffffffff80006ed8:	4601                	li	a2,0
ffffffff80006eda:	4581                	li	a1,0
ffffffff80006edc:	9532                	add	a0,a0,a2
ffffffff80006ede:	0ff5f593          	zext.b	a1,a1
ffffffff80006ee2:	8db5                	xor	a1,a1,a3
ffffffff80006ee4:	00b035b3          	snez	a1,a1
ffffffff80006ee8:	15fd                	addi	a1,a1,-1
ffffffff80006eea:	8d6d                	and	a0,a0,a1
ffffffff80006eec:	60a2                	ld	ra,8(sp)
ffffffff80006eee:	6402                	ld	s0,0(sp)
ffffffff80006ef0:	0141                	addi	sp,sp,16
ffffffff80006ef2:	8082                	ret

ffffffff80006ef4 <lfind>:
ffffffff80006ef4:	1141                	addi	sp,sp,-16
ffffffff80006ef6:	e406                	sd	ra,8(sp)
ffffffff80006ef8:	e022                	sd	s0,0(sp)
ffffffff80006efa:	0800                	addi	s0,sp,16
ffffffff80006efc:	60a2                	ld	ra,8(sp)
ffffffff80006efe:	6402                	ld	s0,0(sp)
ffffffff80006f00:	0141                	addi	sp,sp,16
ffffffff80006f02:	00000317          	auipc	t1,0x0
ffffffff80006f06:	f0c30067          	jr	-244(t1) # ffffffff80006e0e <strchr>

ffffffff80006f0a <strtok_r>:
ffffffff80006f0a:	7139                	addi	sp,sp,-64
ffffffff80006f0c:	fc06                	sd	ra,56(sp)
ffffffff80006f0e:	f822                	sd	s0,48(sp)
ffffffff80006f10:	f426                	sd	s1,40(sp)
ffffffff80006f12:	f04a                	sd	s2,32(sp)
ffffffff80006f14:	0080                	addi	s0,sp,64
ffffffff80006f16:	8932                	mv	s2,a2
ffffffff80006f18:	e119                	bnez	a0,ffffffff80006f1e <strtok_r+0x14>
ffffffff80006f1a:	00093503          	ld	a0,0(s2)
ffffffff80006f1e:	0005c483          	lbu	s1,0(a1)
ffffffff80006f22:	fc043c23          	sd	zero,-40(s0)
ffffffff80006f26:	fc043823          	sd	zero,-48(s0)
ffffffff80006f2a:	fc043423          	sd	zero,-56(s0)
ffffffff80006f2e:	fc043023          	sd	zero,-64(s0)
ffffffff80006f32:	c4b5                	beqz	s1,ffffffff80006f9e <strtok_r+0x94>
ffffffff80006f34:	0015c683          	lbu	a3,1(a1)
ffffffff80006f38:	cab1                	beqz	a3,ffffffff80006f8c <strtok_r+0x82>
ffffffff80006f3a:	00158693          	addi	a3,a1,1
ffffffff80006f3e:	4805                	li	a6,1
ffffffff80006f40:	fc040893          	addi	a7,s0,-64
ffffffff80006f44:	0034d613          	srli	a2,s1,0x3
ffffffff80006f48:	8a61                	andi	a2,a2,24
ffffffff80006f4a:	9646                	add	a2,a2,a7
ffffffff80006f4c:	6218                	ld	a4,0(a2)
ffffffff80006f4e:	009817b3          	sll	a5,a6,s1
ffffffff80006f52:	0006c483          	lbu	s1,0(a3)
ffffffff80006f56:	8f5d                	or	a4,a4,a5
ffffffff80006f58:	e218                	sd	a4,0(a2)
ffffffff80006f5a:	0685                	addi	a3,a3,1
ffffffff80006f5c:	f4e5                	bnez	s1,ffffffff80006f44 <strtok_r+0x3a>
ffffffff80006f5e:	00054683          	lbu	a3,0(a0)
ffffffff80006f62:	87aa                	mv	a5,a0
ffffffff80006f64:	c2a1                	beqz	a3,ffffffff80006fa4 <strtok_r+0x9a>
ffffffff80006f66:	fc040613          	addi	a2,s0,-64
ffffffff80006f6a:	872a                	mv	a4,a0
ffffffff80006f6c:	0036d793          	srli	a5,a3,0x3
ffffffff80006f70:	8be1                	andi	a5,a5,24
ffffffff80006f72:	97b2                	add	a5,a5,a2
ffffffff80006f74:	639c                	ld	a5,0(a5)
ffffffff80006f76:	00d7d6b3          	srl	a3,a5,a3
ffffffff80006f7a:	8a85                	andi	a3,a3,1
ffffffff80006f7c:	c29d                	beqz	a3,ffffffff80006fa2 <strtok_r+0x98>
ffffffff80006f7e:	00174683          	lbu	a3,1(a4)
ffffffff80006f82:	00170793          	addi	a5,a4,1
ffffffff80006f86:	873e                	mv	a4,a5
ffffffff80006f88:	f2f5                	bnez	a3,ffffffff80006f6c <strtok_r+0x62>
ffffffff80006f8a:	a829                	j	ffffffff80006fa4 <strtok_r+0x9a>
ffffffff80006f8c:	00d50733          	add	a4,a0,a3
ffffffff80006f90:	00074703          	lbu	a4,0(a4)
ffffffff80006f94:	0685                	addi	a3,a3,1
ffffffff80006f96:	fe970be3          	beq	a4,s1,ffffffff80006f8c <strtok_r+0x82>
ffffffff80006f9a:	16fd                	addi	a3,a3,-1
ffffffff80006f9c:	a031                	j	ffffffff80006fa8 <strtok_r+0x9e>
ffffffff80006f9e:	4681                	li	a3,0
ffffffff80006fa0:	a021                	j	ffffffff80006fa8 <strtok_r+0x9e>
ffffffff80006fa2:	87ba                	mv	a5,a4
ffffffff80006fa4:	40a786b3          	sub	a3,a5,a0
ffffffff80006fa8:	00d504b3          	add	s1,a0,a3
ffffffff80006fac:	0004c503          	lbu	a0,0(s1)
ffffffff80006fb0:	cd11                	beqz	a0,ffffffff80006fcc <strtok_r+0xc2>
ffffffff80006fb2:	8526                	mv	a0,s1
ffffffff80006fb4:	00000097          	auipc	ra,0x0
ffffffff80006fb8:	cec080e7          	jalr	-788(ra) # ffffffff80006ca0 <strcspn>
ffffffff80006fbc:	9526                	add	a0,a0,s1
ffffffff80006fbe:	00054583          	lbu	a1,0(a0)
ffffffff80006fc2:	c981                	beqz	a1,ffffffff80006fd2 <strtok_r+0xc8>
ffffffff80006fc4:	00050023          	sb	zero,0(a0)
ffffffff80006fc8:	0505                	addi	a0,a0,1
ffffffff80006fca:	a839                	j	ffffffff80006fe8 <strtok_r+0xde>
ffffffff80006fcc:	8526                	mv	a0,s1
ffffffff80006fce:	4481                	li	s1,0
ffffffff80006fd0:	a821                	j	ffffffff80006fe8 <strtok_r+0xde>
ffffffff80006fd2:	8526                	mv	a0,s1
ffffffff80006fd4:	00154583          	lbu	a1,1(a0)
ffffffff80006fd8:	0505                	addi	a0,a0,1
ffffffff80006fda:	fded                	bnez	a1,ffffffff80006fd4 <strtok_r+0xca>
ffffffff80006fdc:	00054583          	lbu	a1,0(a0)
ffffffff80006fe0:	00b035b3          	snez	a1,a1
ffffffff80006fe4:	15fd                	addi	a1,a1,-1
ffffffff80006fe6:	8d6d                	and	a0,a0,a1
ffffffff80006fe8:	00a93023          	sd	a0,0(s2)
ffffffff80006fec:	8526                	mv	a0,s1
ffffffff80006fee:	70e2                	ld	ra,56(sp)
ffffffff80006ff0:	7442                	ld	s0,48(sp)
ffffffff80006ff2:	74a2                	ld	s1,40(sp)
ffffffff80006ff4:	7902                	ld	s2,32(sp)
ffffffff80006ff6:	6121                	addi	sp,sp,64
ffffffff80006ff8:	8082                	ret

ffffffff80006ffa <_vsnprintf_internal>:
ffffffff80006ffa:	7171                	addi	sp,sp,-176
ffffffff80006ffc:	f506                	sd	ra,168(sp)
ffffffff80006ffe:	f122                	sd	s0,160(sp)
ffffffff80007000:	ed26                	sd	s1,152(sp)
ffffffff80007002:	e94a                	sd	s2,144(sp)
ffffffff80007004:	e54e                	sd	s3,136(sp)
ffffffff80007006:	e152                	sd	s4,128(sp)
ffffffff80007008:	fcd6                	sd	s5,120(sp)
ffffffff8000700a:	f8da                	sd	s6,112(sp)
ffffffff8000700c:	f4de                	sd	s7,104(sp)
ffffffff8000700e:	f0e2                	sd	s8,96(sp)
ffffffff80007010:	ece6                	sd	s9,88(sp)
ffffffff80007012:	e8ea                	sd	s10,80(sp)
ffffffff80007014:	e4ee                	sd	s11,72(sp)
ffffffff80007016:	1900                	addi	s0,sp,176
ffffffff80007018:	f6c43823          	sd	a2,-144(s0)
ffffffff8000701c:	89ae                	mv	s3,a1
ffffffff8000701e:	8a2a                	mv	s4,a0
ffffffff80007020:	6bc1                	lui	s7,0x10
ffffffff80007022:	ff7b891b          	addiw	s2,s7,-9 # fff7 <$d.3+0x52a9>
ffffffff80007026:	02500d13          	li	s10,37
ffffffff8000702a:	4dc1                	li	s11,16
ffffffff8000702c:	44a5                	li	s1,9
ffffffff8000702e:	4b29                	li	s6,10
ffffffff80007030:	80009537          	lui	a0,0x80009
ffffffff80007034:	8fc50513          	addi	a0,a0,-1796 # ffffffff800088fc <.LJTI0_1>
ffffffff80007038:	f6a43423          	sd	a0,-152(s0)
ffffffff8000703c:	f7840293          	addi	t0,s0,-136
ffffffff80007040:	4379                	li	t1,30
ffffffff80007042:	80009537          	lui	a0,0x80009
ffffffff80007046:	8b850c13          	addi	s8,a0,-1864 # ffffffff800088b8 <$d.1>
ffffffff8000704a:	f7243023          	sd	s2,-160(s0)
ffffffff8000704e:	a03d                	j	ffffffff8000707c <_vsnprintf_internal+0x82>
ffffffff80007050:	4601                	li	a2,0
ffffffff80007052:	03f85693          	srli	a3,a6,0x3f
ffffffff80007056:	f7840593          	addi	a1,s0,-136
ffffffff8000705a:	8552                	mv	a0,s4
ffffffff8000705c:	87d6                	mv	a5,s5
ffffffff8000705e:	8866                	mv	a6,s9
ffffffff80007060:	00001097          	auipc	ra,0x1
ffffffff80007064:	922080e7          	jalr	-1758(ra) # ffffffff80007982 <_ntoa_format>
ffffffff80007068:	4379                	li	t1,30
ffffffff8000706a:	f7840293          	addi	t0,s0,-136
ffffffff8000706e:	f7043503          	ld	a0,-144(s0)
ffffffff80007072:	0521                	addi	a0,a0,8
ffffffff80007074:	f6a43823          	sd	a0,-144(s0)
ffffffff80007078:	44a5                	li	s1,9
ffffffff8000707a:	0985                	addi	s3,s3,1
ffffffff8000707c:	0009c583          	lbu	a1,0(s3)
ffffffff80007080:	01a58d63          	beq	a1,s10,ffffffff8000709a <.LBB0_7+0x12>
ffffffff80007084:	6c058963          	beqz	a1,ffffffff80007756 <.LBB0_121+0x276>

ffffffff80007088 <.LBB0_7>:
ffffffff80007088:	000a3603          	ld	a2,0(s4)
ffffffff8000708c:	8552                	mv	a0,s4
ffffffff8000708e:	9602                	jalr	a2
ffffffff80007090:	4379                	li	t1,30
ffffffff80007092:	f7840293          	addi	t0,s0,-136
ffffffff80007096:	0985                	addi	s3,s3,1
ffffffff80007098:	b7d5                	j	ffffffff8000707c <_vsnprintf_internal+0x82>
ffffffff8000709a:	4501                	li	a0,0
ffffffff8000709c:	0989                	addi	s3,s3,2
ffffffff8000709e:	a021                	j	ffffffff800070a6 <.LBB0_12+0x4>

ffffffff800070a0 <.LBB0_11>:
ffffffff800070a0:	4591                	li	a1,4

ffffffff800070a2 <.LBB0_12>:
ffffffff800070a2:	8d4d                	or	a0,a0,a1
ffffffff800070a4:	0985                	addi	s3,s3,1
ffffffff800070a6:	fff9c583          	lbu	a1,-1(s3)
ffffffff800070aa:	1581                	addi	a1,a1,-32
ffffffff800070ac:	00bded63          	bltu	s11,a1,ffffffff800070c6 <.LBB0_18>
ffffffff800070b0:	058a                	slli	a1,a1,0x2
ffffffff800070b2:	95e2                	add	a1,a1,s8
ffffffff800070b4:	4190                	lw	a2,0(a1)
ffffffff800070b6:	4585                	li	a1,1
ffffffff800070b8:	8602                	jr	a2

ffffffff800070ba <.LBB0_15>:
ffffffff800070ba:	45a1                	li	a1,8
ffffffff800070bc:	b7dd                	j	ffffffff800070a2 <.LBB0_12>

ffffffff800070be <.LBB0_16>:
ffffffff800070be:	4589                	li	a1,2
ffffffff800070c0:	b7cd                	j	ffffffff800070a2 <.LBB0_12>

ffffffff800070c2 <.LBB0_17>:
ffffffff800070c2:	45c1                	li	a1,16
ffffffff800070c4:	bff9                	j	ffffffff800070a2 <.LBB0_12>

ffffffff800070c6 <.LBB0_18>:
ffffffff800070c6:	fff9c583          	lbu	a1,-1(s3)
ffffffff800070ca:	fc658613          	addi	a2,a1,-58
ffffffff800070ce:	0ff67693          	zext.b	a3,a2
ffffffff800070d2:	fff98613          	addi	a2,s3,-1
ffffffff800070d6:	0f600713          	li	a4,246
ffffffff800070da:	02e6fe63          	bgeu	a3,a4,ffffffff80007116 <.LBB0_18+0x50>
ffffffff800070de:	02a00693          	li	a3,42
ffffffff800070e2:	0ad59363          	bne	a1,a3,ffffffff80007188 <.LBB0_18+0xc2>
ffffffff800070e6:	f7043703          	ld	a4,-144(s0)
ffffffff800070ea:	4310                	lw	a2,0(a4)
ffffffff800070ec:	41f6559b          	sraiw	a1,a2,0x1f
ffffffff800070f0:	00b646b3          	xor	a3,a2,a1
ffffffff800070f4:	40b68cbb          	subw	s9,a3,a1
ffffffff800070f8:	0009c583          	lbu	a1,0(s3)
ffffffff800070fc:	00870693          	addi	a3,a4,8
ffffffff80007100:	01f6561b          	srliw	a2,a2,0x1f
ffffffff80007104:	8d51                	or	a0,a0,a2
ffffffff80007106:	864e                	mv	a2,s3
ffffffff80007108:	f6d43823          	sd	a3,-144(s0)
ffffffff8000710c:	02e00693          	li	a3,46
ffffffff80007110:	08d59163          	bne	a1,a3,ffffffff80007192 <.LBB0_18+0xcc>
ffffffff80007114:	a805                	j	ffffffff80007144 <.LBB0_18+0x7e>
ffffffff80007116:	4c81                	li	s9,0
ffffffff80007118:	00e5f693          	andi	a3,a1,14
ffffffff8000711c:	06d4eb63          	bltu	s1,a3,ffffffff80007192 <.LBB0_18+0xcc>
ffffffff80007120:	036c86b3          	mul	a3,s9,s6
ffffffff80007124:	96ae                	add	a3,a3,a1
ffffffff80007126:	00164583          	lbu	a1,1(a2)
ffffffff8000712a:	0605                	addi	a2,a2,1
ffffffff8000712c:	0d058713          	addi	a4,a1,208
ffffffff80007130:	0fe77713          	andi	a4,a4,254
ffffffff80007134:	fd068c9b          	addiw	s9,a3,-48
ffffffff80007138:	fee4f4e3          	bgeu	s1,a4,ffffffff80007120 <.LBB0_18+0x5a>
ffffffff8000713c:	02e00693          	li	a3,46
ffffffff80007140:	04d59963          	bne	a1,a3,ffffffff80007192 <.LBB0_18+0xcc>
ffffffff80007144:	00164583          	lbu	a1,1(a2)
ffffffff80007148:	00160693          	addi	a3,a2,1
ffffffff8000714c:	fc658713          	addi	a4,a1,-58
ffffffff80007150:	0ff77713          	zext.b	a4,a4
ffffffff80007154:	02056513          	ori	a0,a0,32
ffffffff80007158:	0f600793          	li	a5,246
ffffffff8000715c:	02f77d63          	bgeu	a4,a5,ffffffff80007196 <.LBB0_18+0xd0>
ffffffff80007160:	02a00713          	li	a4,42
ffffffff80007164:	02e59d63          	bne	a1,a4,ffffffff8000719e <.LBB0_18+0xd8>
ffffffff80007168:	f7043703          	ld	a4,-144(s0)
ffffffff8000716c:	4314                	lw	a3,0(a4)
ffffffff8000716e:	0721                	addi	a4,a4,8
ffffffff80007170:	00d027b3          	sgtz	a5,a3
ffffffff80007174:	00264583          	lbu	a1,2(a2)
ffffffff80007178:	40f007b3          	neg	a5,a5
ffffffff8000717c:	0609                	addi	a2,a2,2
ffffffff8000717e:	00d7fab3          	and	s5,a5,a3
ffffffff80007182:	f6e43823          	sd	a4,-144(s0)
ffffffff80007186:	a835                	j	ffffffff800071c2 <.LBB0_18+0xfc>
ffffffff80007188:	4c81                	li	s9,0
ffffffff8000718a:	02e00693          	li	a3,46
ffffffff8000718e:	fad58be3          	beq	a1,a3,ffffffff80007144 <.LBB0_18+0x7e>
ffffffff80007192:	4a81                	li	s5,0
ffffffff80007194:	a03d                	j	ffffffff800071c2 <.LBB0_18+0xfc>
ffffffff80007196:	00e5f613          	andi	a2,a1,14
ffffffff8000719a:	00c4f463          	bgeu	s1,a2,ffffffff800071a2 <.LBB0_18+0xdc>
ffffffff8000719e:	4a81                	li	s5,0
ffffffff800071a0:	a005                	j	ffffffff800071c0 <.LBB0_18+0xfa>
ffffffff800071a2:	4a81                	li	s5,0
ffffffff800071a4:	036a8633          	mul	a2,s5,s6
ffffffff800071a8:	962e                	add	a2,a2,a1
ffffffff800071aa:	0016c583          	lbu	a1,1(a3)
ffffffff800071ae:	0685                	addi	a3,a3,1
ffffffff800071b0:	0d058713          	addi	a4,a1,208
ffffffff800071b4:	0fe77713          	andi	a4,a4,254
ffffffff800071b8:	fd060a9b          	addiw	s5,a2,-48
ffffffff800071bc:	fee4f4e3          	bgeu	s1,a4,ffffffff800071a4 <.LBB0_18+0xde>
ffffffff800071c0:	8636                	mv	a2,a3
ffffffff800071c2:	f9858693          	addi	a3,a1,-104
ffffffff800071c6:	0016d71b          	srliw	a4,a3,0x1
ffffffff800071ca:	01f6969b          	slliw	a3,a3,0x1f
ffffffff800071ce:	8ed9                	or	a3,a3,a4
ffffffff800071d0:	00160993          	addi	s3,a2,1
ffffffff800071d4:	4705                	li	a4,1
ffffffff800071d6:	00d74763          	blt	a4,a3,ffffffff800071e4 <.LBB0_18+0x11e>
ffffffff800071da:	ce85                	beqz	a3,ffffffff80007212 <.LBB0_18+0x14c>
ffffffff800071dc:	4705                	li	a4,1
ffffffff800071de:	02e68363          	beq	a3,a4,ffffffff80007204 <.LBB0_18+0x13e>
ffffffff800071e2:	a035                	j	ffffffff8000720e <.LBB0_18+0x148>
ffffffff800071e4:	02968063          	beq	a3,s1,ffffffff80007204 <.LBB0_18+0x13e>
ffffffff800071e8:	4709                	li	a4,2
ffffffff800071ea:	02e69263          	bne	a3,a4,ffffffff8000720e <.LBB0_18+0x148>
ffffffff800071ee:	0009c583          	lbu	a1,0(s3)
ffffffff800071f2:	06c00693          	li	a3,108
ffffffff800071f6:	02d59963          	bne	a1,a3,ffffffff80007228 <.LBB0_18+0x162>
ffffffff800071fa:	30056513          	ori	a0,a0,768
ffffffff800071fe:	00260993          	addi	s3,a2,2
ffffffff80007202:	a019                	j	ffffffff80007208 <.LBB0_18+0x142>
ffffffff80007204:	10056513          	ori	a0,a0,256
ffffffff80007208:	0009c583          	lbu	a1,0(s3)
ffffffff8000720c:	a01d                	j	ffffffff80007232 <.LBB0_18+0x16c>
ffffffff8000720e:	89b2                	mv	s3,a2
ffffffff80007210:	a00d                	j	ffffffff80007232 <.LBB0_18+0x16c>
ffffffff80007212:	0009c583          	lbu	a1,0(s3)
ffffffff80007216:	06800693          	li	a3,104
ffffffff8000721a:	00d59a63          	bne	a1,a3,ffffffff8000722e <.LBB0_18+0x168>
ffffffff8000721e:	0c056513          	ori	a0,a0,192
ffffffff80007222:	00260993          	addi	s3,a2,2
ffffffff80007226:	b7cd                	j	ffffffff80007208 <.LBB0_18+0x142>
ffffffff80007228:	10056513          	ori	a0,a0,256
ffffffff8000722c:	a019                	j	ffffffff80007232 <.LBB0_18+0x16c>
ffffffff8000722e:	08056513          	ori	a0,a0,128
ffffffff80007232:	fa858613          	addi	a2,a1,-88
ffffffff80007236:	02000693          	li	a3,32
ffffffff8000723a:	e4c6e7e3          	bltu	a3,a2,ffffffff80007088 <.LBB0_7>
ffffffff8000723e:	00261693          	slli	a3,a2,0x2
ffffffff80007242:	f6843703          	ld	a4,-152(s0)
ffffffff80007246:	96ba                	add	a3,a3,a4
ffffffff80007248:	429c                	lw	a5,0(a3)
ffffffff8000724a:	46a1                	li	a3,8
ffffffff8000724c:	4741                	li	a4,16
ffffffff8000724e:	8782                	jr	a5

ffffffff80007250 <.LBB0_50>:
ffffffff80007250:	01257533          	and	a0,a0,s2
ffffffff80007254:	4729                	li	a4,10

ffffffff80007256 <.LBB0_51>:
ffffffff80007256:	00163613          	seqz	a2,a2
ffffffff8000725a:	062a                	slli	a2,a2,0xa
ffffffff8000725c:	8d51                	or	a0,a0,a2
ffffffff8000725e:	06400613          	li	a2,100
ffffffff80007262:	06c58d63          	beq	a1,a2,ffffffff800072dc <.LBB0_65+0x8>
ffffffff80007266:	86ba                	mv	a3,a4
ffffffff80007268:	06900613          	li	a2,105
ffffffff8000726c:	06c58863          	beq	a1,a2,ffffffff800072dc <.LBB0_65+0x8>
ffffffff80007270:	a095                	j	ffffffff800072d4 <.LBB0_65>

ffffffff80007272 <.LBB0_53>:
ffffffff80007272:	f7043583          	ld	a1,-144(s0)
ffffffff80007276:	0005b903          	ld	s2,0(a1)
ffffffff8000727a:	00094583          	lbu	a1,0(s2)
ffffffff8000727e:	864a                	mv	a2,s2
ffffffff80007280:	c19d                	beqz	a1,ffffffff800072a6 <.LBB0_53+0x34>
ffffffff80007282:	01503633          	snez	a2,s5
ffffffff80007286:	020a9693          	slli	a3,s5,0x20
ffffffff8000728a:	9281                	srli	a3,a3,0x20
ffffffff8000728c:	167d                	addi	a2,a2,-1
ffffffff8000728e:	8ed1                	or	a3,a3,a2
ffffffff80007290:	864a                	mv	a2,s2
ffffffff80007292:	ca91                	beqz	a3,ffffffff800072a6 <.LBB0_53+0x34>
ffffffff80007294:	16fd                	addi	a3,a3,-1
ffffffff80007296:	864a                	mv	a2,s2
ffffffff80007298:	00164783          	lbu	a5,1(a2)
ffffffff8000729c:	0605                	addi	a2,a2,1
ffffffff8000729e:	c781                	beqz	a5,ffffffff800072a6 <.LBB0_53+0x34>
ffffffff800072a0:	8736                	mv	a4,a3
ffffffff800072a2:	16fd                	addi	a3,a3,-1
ffffffff800072a4:	fb75                	bnez	a4,ffffffff80007298 <.LBB0_53+0x26>
ffffffff800072a6:	4126073b          	subw	a4,a2,s2
ffffffff800072aa:	86d6                	mv	a3,s5
ffffffff800072ac:	00eae363          	bltu	s5,a4,ffffffff800072b2 <.LBB0_53+0x40>
ffffffff800072b0:	86ba                	mv	a3,a4
ffffffff800072b2:	02057d13          	andi	s10,a0,32
ffffffff800072b6:	000d1463          	bnez	s10,ffffffff800072be <.LBB0_53+0x4c>
ffffffff800072ba:	412606b3          	sub	a3,a2,s2
ffffffff800072be:	8905                	andi	a0,a0,1
ffffffff800072c0:	f4a43c23          	sd	a0,-168(s0)
ffffffff800072c4:	30050563          	beqz	a0,ffffffff800075ce <.LBB0_121+0xee>
ffffffff800072c8:	f4d43823          	sd	a3,-176(s0)
ffffffff800072cc:	40059763          	bnez	a1,ffffffff800076da <.LBB0_121+0x1fa>
ffffffff800072d0:	a91d                	j	ffffffff80007706 <.LBB0_121+0x226>

ffffffff800072d2 <.LBB0_64>:
ffffffff800072d2:	4689                	li	a3,2

ffffffff800072d4 <.LBB0_65>:
ffffffff800072d4:	ff9b8613          	addi	a2,s7,-7
ffffffff800072d8:	8d71                	and	a0,a0,a2
ffffffff800072da:	8736                	mv	a4,a3
ffffffff800072dc:	02057613          	andi	a2,a0,32
ffffffff800072e0:	c211                	beqz	a2,ffffffff800072e4 <.LBB0_65+0x10>
ffffffff800072e2:	993d                	andi	a0,a0,-17
ffffffff800072e4:	03051613          	slli	a2,a0,0x30
ffffffff800072e8:	20057513          	andi	a0,a0,512
ffffffff800072ec:	06900693          	li	a3,105
ffffffff800072f0:	00d58663          	beq	a1,a3,ffffffff800072fc <.LBB0_65+0x28>
ffffffff800072f4:	06400693          	li	a3,100
ffffffff800072f8:	08d59e63          	bne	a1,a3,ffffffff80007394 <.LBB0_65+0xc0>
ffffffff800072fc:	03065893          	srli	a7,a2,0x30
ffffffff80007300:	e90d                	bnez	a0,ffffffff80007332 <.LBB0_65+0x5e>
ffffffff80007302:	1008f513          	andi	a0,a7,256
ffffffff80007306:	ed5d                	bnez	a0,ffffffff800073c4 <.LBB0_65+0xf0>
ffffffff80007308:	0408f513          	andi	a0,a7,64
ffffffff8000730c:	1e051d63          	bnez	a0,ffffffff80007506 <.LBB0_121+0x26>
ffffffff80007310:	f7043503          	ld	a0,-144(s0)
ffffffff80007314:	00052803          	lw	a6,0(a0)
ffffffff80007318:	0808f593          	andi	a1,a7,128
ffffffff8000731c:	34059663          	bnez	a1,ffffffff80007668 <.LBB0_121+0x188>
ffffffff80007320:	1e081963          	bnez	a6,ffffffff80007512 <.LBB0_121+0x32>
ffffffff80007324:	d0090593          	addi	a1,s2,-768
ffffffff80007328:	00b8f8b3          	and	a7,a7,a1
ffffffff8000732c:	1e080563          	beqz	a6,ffffffff80007516 <.LBB0_121+0x36>
ffffffff80007330:	aad5                	j	ffffffff80007524 <.LBB0_121+0x44>
ffffffff80007332:	f7043503          	ld	a0,-144(s0)
ffffffff80007336:	00053803          	ld	a6,0(a0)
ffffffff8000733a:	00081463          	bnez	a6,ffffffff80007342 <.LBB0_65+0x6e>
ffffffff8000733e:	0128f8b3          	and	a7,a7,s2
ffffffff80007342:	00081663          	bnez	a6,ffffffff8000734e <.LBB0_65+0x7a>
ffffffff80007346:	0208f513          	andi	a0,a7,32
ffffffff8000734a:	d00513e3          	bnez	a0,ffffffff80007050 <_vsnprintf_internal+0x56>
ffffffff8000734e:	4681                	li	a3,0
ffffffff80007350:	43f85593          	srai	a1,a6,0x3f
ffffffff80007354:	00b84633          	xor	a2,a6,a1
ffffffff80007358:	40b605b3          	sub	a1,a2,a1
ffffffff8000735c:	87ae                	mv	a5,a1
ffffffff8000735e:	02e5d5b3          	divu	a1,a1,a4
ffffffff80007362:	02e58633          	mul	a2,a1,a4
ffffffff80007366:	40c78633          	sub	a2,a5,a2
ffffffff8000736a:	0fe67493          	andi	s1,a2,254
ffffffff8000736e:	0164e563          	bltu	s1,s6,ffffffff80007378 <.LBB0_65+0xa4>
ffffffff80007372:	03760493          	addi	s1,a2,55
ffffffff80007376:	a019                	j	ffffffff8000737c <.LBB0_65+0xa8>
ffffffff80007378:	03066493          	ori	s1,a2,48
ffffffff8000737c:	00168613          	addi	a2,a3,1
ffffffff80007380:	00d28533          	add	a0,t0,a3
ffffffff80007384:	00950023          	sb	s1,0(a0)
ffffffff80007388:	ccd365e3          	bltu	t1,a3,ffffffff80007052 <_vsnprintf_internal+0x58>
ffffffff8000738c:	86b2                	mv	a3,a2
ffffffff8000738e:	fce7f7e3          	bgeu	a5,a4,ffffffff8000735c <.LBB0_65+0x88>
ffffffff80007392:	b1c1                	j	ffffffff80007052 <_vsnprintf_internal+0x58>
ffffffff80007394:	03065893          	srli	a7,a2,0x30
ffffffff80007398:	e949                	bnez	a0,ffffffff8000742a <.LBB0_65+0x156>
ffffffff8000739a:	1008f513          	andi	a0,a7,256
ffffffff8000739e:	1c051763          	bnez	a0,ffffffff8000756c <.LBB0_121+0x8c>
ffffffff800073a2:	0408f513          	andi	a0,a7,64
ffffffff800073a6:	2c051863          	bnez	a0,ffffffff80007676 <.LBB0_121+0x196>
ffffffff800073aa:	f7043503          	ld	a0,-144(s0)
ffffffff800073ae:	4108                	lw	a0,0(a0)
ffffffff800073b0:	0808f593          	andi	a1,a7,128
ffffffff800073b4:	20058663          	beqz	a1,ffffffff800075c0 <.LBB0_121+0xe0>
ffffffff800073b8:	00890593          	addi	a1,s2,8
ffffffff800073bc:	8d6d                	and	a0,a0,a1
ffffffff800073be:	2c051163          	bnez	a0,ffffffff80007680 <.LBB0_121+0x1a0>
ffffffff800073c2:	a401                	j	ffffffff800075c2 <.LBB0_121+0xe2>
ffffffff800073c4:	f7043503          	ld	a0,-144(s0)
ffffffff800073c8:	00053803          	ld	a6,0(a0)
ffffffff800073cc:	00081663          	bnez	a6,ffffffff800073d8 <.LBB0_65+0x104>
ffffffff800073d0:	e0090513          	addi	a0,s2,-512
ffffffff800073d4:	00a8f8b3          	and	a7,a7,a0
ffffffff800073d8:	00081663          	bnez	a6,ffffffff800073e4 <.LBB0_65+0x110>
ffffffff800073dc:	0208f513          	andi	a0,a7,32
ffffffff800073e0:	c60518e3          	bnez	a0,ffffffff80007050 <_vsnprintf_internal+0x56>
ffffffff800073e4:	4681                	li	a3,0
ffffffff800073e6:	43f85593          	srai	a1,a6,0x3f
ffffffff800073ea:	00b84633          	xor	a2,a6,a1
ffffffff800073ee:	40b605b3          	sub	a1,a2,a1
ffffffff800073f2:	87ae                	mv	a5,a1
ffffffff800073f4:	02e5d5b3          	divu	a1,a1,a4
ffffffff800073f8:	02e58633          	mul	a2,a1,a4
ffffffff800073fc:	40c78633          	sub	a2,a5,a2
ffffffff80007400:	0fe67493          	andi	s1,a2,254
ffffffff80007404:	0164e563          	bltu	s1,s6,ffffffff8000740e <.LBB0_65+0x13a>
ffffffff80007408:	03760493          	addi	s1,a2,55
ffffffff8000740c:	a019                	j	ffffffff80007412 <.LBB0_65+0x13e>
ffffffff8000740e:	03066493          	ori	s1,a2,48
ffffffff80007412:	00168613          	addi	a2,a3,1
ffffffff80007416:	00d28533          	add	a0,t0,a3
ffffffff8000741a:	00950023          	sb	s1,0(a0)
ffffffff8000741e:	c2d36ae3          	bltu	t1,a3,ffffffff80007052 <_vsnprintf_internal+0x58>
ffffffff80007422:	86b2                	mv	a3,a2
ffffffff80007424:	fce7f7e3          	bgeu	a5,a4,ffffffff800073f2 <.LBB0_65+0x11e>
ffffffff80007428:	b12d                	j	ffffffff80007052 <_vsnprintf_internal+0x58>
ffffffff8000742a:	f7043503          	ld	a0,-144(s0)
ffffffff8000742e:	6108                	ld	a0,0(a0)
ffffffff80007430:	e119                	bnez	a0,ffffffff80007436 <.LBB0_65+0x162>
ffffffff80007432:	0128f8b3          	and	a7,a7,s2
ffffffff80007436:	e509                	bnez	a0,ffffffff80007440 <.LBB0_65+0x16c>
ffffffff80007438:	0208f593          	andi	a1,a7,32
ffffffff8000743c:	24059663          	bnez	a1,ffffffff80007688 <.LBB0_121+0x1a8>
ffffffff80007440:	4481                	li	s1,0
ffffffff80007442:	86aa                	mv	a3,a0
ffffffff80007444:	02e55533          	divu	a0,a0,a4
ffffffff80007448:	02e50633          	mul	a2,a0,a4
ffffffff8000744c:	40c68633          	sub	a2,a3,a2
ffffffff80007450:	0fe67793          	andi	a5,a2,254
ffffffff80007454:	0167e563          	bltu	a5,s6,ffffffff8000745e <.LBB0_65+0x18a>
ffffffff80007458:	03760793          	addi	a5,a2,55
ffffffff8000745c:	a019                	j	ffffffff80007462 <.LBB0_65+0x18e>
ffffffff8000745e:	03066793          	ori	a5,a2,48
ffffffff80007462:	00148613          	addi	a2,s1,1
ffffffff80007466:	009285b3          	add	a1,t0,s1
ffffffff8000746a:	00f58023          	sb	a5,0(a1)
ffffffff8000746e:	20936e63          	bltu	t1,s1,ffffffff8000768a <.LBB0_121+0x1aa>
ffffffff80007472:	84b2                	mv	s1,a2
ffffffff80007474:	fce6f7e3          	bgeu	a3,a4,ffffffff80007442 <.LBB0_65+0x16e>
ffffffff80007478:	ac09                	j	ffffffff8000768a <.LBB0_121+0x1aa>

ffffffff8000747a <.LBB0_111>:
ffffffff8000747a:	00157a93          	andi	s5,a0,1
ffffffff8000747e:	4905                	li	s2,1
ffffffff80007480:	020a9263          	bnez	s5,ffffffff800074a4 <.LBB0_111+0x2a>
ffffffff80007484:	4909                	li	s2,2
ffffffff80007486:	012cef63          	bltu	s9,s2,ffffffff800074a4 <.LBB0_111+0x2a>
ffffffff8000748a:	001c891b          	addiw	s2,s9,1
ffffffff8000748e:	fffc8493          	addi	s1,s9,-1
ffffffff80007492:	000a3603          	ld	a2,0(s4)
ffffffff80007496:	02000593          	li	a1,32
ffffffff8000749a:	8552                	mv	a0,s4
ffffffff8000749c:	9602                	jalr	a2
ffffffff8000749e:	34fd                	addiw	s1,s1,-1
ffffffff800074a0:	f8ed                	bnez	s1,ffffffff80007492 <.LBB0_111+0x18>
ffffffff800074a2:	44a5                	li	s1,9
ffffffff800074a4:	000a3603          	ld	a2,0(s4)
ffffffff800074a8:	f7043d03          	ld	s10,-144(s0)
ffffffff800074ac:	000d4583          	lbu	a1,0(s10)
ffffffff800074b0:	0d21                	addi	s10,s10,8
ffffffff800074b2:	8552                	mv	a0,s4
ffffffff800074b4:	9602                	jalr	a2
ffffffff800074b6:	140a8763          	beqz	s5,ffffffff80007604 <.LBB0_121+0x124>
ffffffff800074ba:	15997563          	bgeu	s2,s9,ffffffff80007604 <.LBB0_121+0x124>
ffffffff800074be:	412c84bb          	subw	s1,s9,s2
ffffffff800074c2:	000a3603          	ld	a2,0(s4)
ffffffff800074c6:	02000593          	li	a1,32
ffffffff800074ca:	8552                	mv	a0,s4
ffffffff800074cc:	9602                	jalr	a2
ffffffff800074ce:	34fd                	addiw	s1,s1,-1
ffffffff800074d0:	f8ed                	bnez	s1,ffffffff800074c2 <.LBB0_111+0x48>
ffffffff800074d2:	f7a43823          	sd	s10,-144(s0)
ffffffff800074d6:	f6043903          	ld	s2,-160(s0)
ffffffff800074da:	02500d13          	li	s10,37
ffffffff800074de:	a485                	j	ffffffff8000773e <.LBB0_121+0x25e>

ffffffff800074e0 <.LBB0_121>:
ffffffff800074e0:	f7043583          	ld	a1,-144(s0)
ffffffff800074e4:	618c                	ld	a1,0(a1)
ffffffff800074e6:	41056513          	ori	a0,a0,1040
ffffffff800074ea:	1542                	slli	a0,a0,0x30
ffffffff800074ec:	03055893          	srli	a7,a0,0x30
ffffffff800074f0:	e199                	bnez	a1,ffffffff800074f6 <.LBB0_121+0x16>
ffffffff800074f2:	0128f8b3          	and	a7,a7,s2
ffffffff800074f6:	10059e63          	bnez	a1,ffffffff80007612 <.LBB0_121+0x132>
ffffffff800074fa:	0208f513          	andi	a0,a7,32
ffffffff800074fe:	10050a63          	beqz	a0,ffffffff80007612 <.LBB0_121+0x132>
ffffffff80007502:	4601                	li	a2,0
ffffffff80007504:	a289                	j	ffffffff80007646 <.LBB0_121+0x166>
ffffffff80007506:	f7043503          	ld	a0,-144(s0)
ffffffff8000750a:	00054803          	lbu	a6,0(a0)
ffffffff8000750e:	e0080be3          	beqz	a6,ffffffff80007324 <.LBB0_65+0x50>
ffffffff80007512:	00081963          	bnez	a6,ffffffff80007524 <.LBB0_121+0x44>
ffffffff80007516:	0208f593          	andi	a1,a7,32
ffffffff8000751a:	c589                	beqz	a1,ffffffff80007524 <.LBB0_121+0x44>
ffffffff8000751c:	4601                	li	a2,0
ffffffff8000751e:	01f8569b          	srliw	a3,a6,0x1f
ffffffff80007522:	be15                	j	ffffffff80007056 <_vsnprintf_internal+0x5c>
ffffffff80007524:	4501                	li	a0,0
ffffffff80007526:	41f8561b          	sraiw	a2,a6,0x1f
ffffffff8000752a:	00c846b3          	xor	a3,a6,a2
ffffffff8000752e:	9e91                	subw	a3,a3,a2
ffffffff80007530:	87b6                	mv	a5,a3
ffffffff80007532:	02e6d6b3          	divu	a3,a3,a4
ffffffff80007536:	02e68633          	mul	a2,a3,a4
ffffffff8000753a:	40c78633          	sub	a2,a5,a2
ffffffff8000753e:	0fe67493          	andi	s1,a2,254
ffffffff80007542:	0164e563          	bltu	s1,s6,ffffffff8000754c <.LBB0_121+0x6c>
ffffffff80007546:	03760493          	addi	s1,a2,55
ffffffff8000754a:	a019                	j	ffffffff80007550 <.LBB0_121+0x70>
ffffffff8000754c:	03066493          	ori	s1,a2,48
ffffffff80007550:	00150613          	addi	a2,a0,1
ffffffff80007554:	00a285b3          	add	a1,t0,a0
ffffffff80007558:	00958023          	sb	s1,0(a1)
ffffffff8000755c:	00a36563          	bltu	t1,a0,ffffffff80007566 <.LBB0_121+0x86>
ffffffff80007560:	8532                	mv	a0,a2
ffffffff80007562:	fce7f7e3          	bgeu	a5,a4,ffffffff80007530 <.LBB0_121+0x50>
ffffffff80007566:	01f8569b          	srliw	a3,a6,0x1f
ffffffff8000756a:	b4f5                	j	ffffffff80007056 <_vsnprintf_internal+0x5c>
ffffffff8000756c:	f7043503          	ld	a0,-144(s0)
ffffffff80007570:	6108                	ld	a0,0(a0)
ffffffff80007572:	e509                	bnez	a0,ffffffff8000757c <.LBB0_121+0x9c>
ffffffff80007574:	e0090593          	addi	a1,s2,-512
ffffffff80007578:	00b8f8b3          	and	a7,a7,a1
ffffffff8000757c:	e509                	bnez	a0,ffffffff80007586 <.LBB0_121+0xa6>
ffffffff8000757e:	0208f593          	andi	a1,a7,32
ffffffff80007582:	10059363          	bnez	a1,ffffffff80007688 <.LBB0_121+0x1a8>
ffffffff80007586:	4481                	li	s1,0
ffffffff80007588:	86aa                	mv	a3,a0
ffffffff8000758a:	02e55533          	divu	a0,a0,a4
ffffffff8000758e:	02e50633          	mul	a2,a0,a4
ffffffff80007592:	40c68633          	sub	a2,a3,a2
ffffffff80007596:	0fe67793          	andi	a5,a2,254
ffffffff8000759a:	0167e563          	bltu	a5,s6,ffffffff800075a4 <.LBB0_121+0xc4>
ffffffff8000759e:	03760793          	addi	a5,a2,55
ffffffff800075a2:	a019                	j	ffffffff800075a8 <.LBB0_121+0xc8>
ffffffff800075a4:	03066793          	ori	a5,a2,48
ffffffff800075a8:	00148613          	addi	a2,s1,1
ffffffff800075ac:	009285b3          	add	a1,t0,s1
ffffffff800075b0:	00f58023          	sb	a5,0(a1)
ffffffff800075b4:	0c936b63          	bltu	t1,s1,ffffffff8000768a <.LBB0_121+0x1aa>
ffffffff800075b8:	84b2                	mv	s1,a2
ffffffff800075ba:	fce6f7e3          	bgeu	a3,a4,ffffffff80007588 <.LBB0_121+0xa8>
ffffffff800075be:	a0f1                	j	ffffffff8000768a <.LBB0_121+0x1aa>
ffffffff800075c0:	e161                	bnez	a0,ffffffff80007680 <.LBB0_121+0x1a0>
ffffffff800075c2:	d0090593          	addi	a1,s2,-768
ffffffff800075c6:	00b8f8b3          	and	a7,a7,a1
ffffffff800075ca:	cd45                	beqz	a0,ffffffff80007682 <.LBB0_121+0x1a2>
ffffffff800075cc:	a0e1                	j	ffffffff80007694 <.LBB0_121+0x1b4>
ffffffff800075ce:	0006851b          	sext.w	a0,a3
ffffffff800075d2:	11957063          	bgeu	a0,s9,ffffffff800076d2 <.LBB0_121+0x1f2>
ffffffff800075d6:	001c8513          	addi	a0,s9,1
ffffffff800075da:	f4a43823          	sd	a0,-176(s0)
ffffffff800075de:	40dc8bbb          	subw	s7,s9,a3
ffffffff800075e2:	000a3603          	ld	a2,0(s4)
ffffffff800075e6:	02000593          	li	a1,32
ffffffff800075ea:	8552                	mv	a0,s4
ffffffff800075ec:	9602                	jalr	a2
ffffffff800075ee:	3bfd                	addiw	s7,s7,-1
ffffffff800075f0:	fe0b99e3          	bnez	s7,ffffffff800075e2 <.LBB0_121+0x102>
ffffffff800075f4:	00094583          	lbu	a1,0(s2)
ffffffff800075f8:	6bc1                	lui	s7,0x10
ffffffff800075fa:	f7840293          	addi	t0,s0,-136
ffffffff800075fe:	4379                	li	t1,30
ffffffff80007600:	ede9                	bnez	a1,ffffffff800076da <.LBB0_121+0x1fa>
ffffffff80007602:	a211                	j	ffffffff80007706 <.LBB0_121+0x226>
ffffffff80007604:	f7a43823          	sd	s10,-144(s0)
ffffffff80007608:	f6043903          	ld	s2,-160(s0)
ffffffff8000760c:	02500d13          	li	s10,37
ffffffff80007610:	aa05                	j	ffffffff80007740 <.LBB0_121+0x260>
ffffffff80007612:	4501                	li	a0,0
ffffffff80007614:	86ae                	mv	a3,a1
ffffffff80007616:	00e5f613          	andi	a2,a1,14
ffffffff8000761a:	89bd                	andi	a1,a1,15
ffffffff8000761c:	01666563          	bltu	a2,s6,ffffffff80007626 <.LBB0_121+0x146>
ffffffff80007620:	03758593          	addi	a1,a1,55
ffffffff80007624:	a019                	j	ffffffff8000762a <.LBB0_121+0x14a>
ffffffff80007626:	03058593          	addi	a1,a1,48
ffffffff8000762a:	00150613          	addi	a2,a0,1
ffffffff8000762e:	00a28733          	add	a4,t0,a0
ffffffff80007632:	00b70023          	sb	a1,0(a4)
ffffffff80007636:	00a36863          	bltu	t1,a0,ffffffff80007646 <.LBB0_121+0x166>
ffffffff8000763a:	0046d593          	srli	a1,a3,0x4
ffffffff8000763e:	8532                	mv	a0,a2
ffffffff80007640:	473d                	li	a4,15
ffffffff80007642:	fcd769e3          	bltu	a4,a3,ffffffff80007614 <.LBB0_121+0x134>
ffffffff80007646:	f7043503          	ld	a0,-144(s0)
ffffffff8000764a:	0521                	addi	a0,a0,8
ffffffff8000764c:	f6a43823          	sd	a0,-144(s0)
ffffffff80007650:	f7840593          	addi	a1,s0,-136
ffffffff80007654:	4741                	li	a4,16
ffffffff80007656:	4841                	li	a6,16
ffffffff80007658:	8552                	mv	a0,s4
ffffffff8000765a:	4681                	li	a3,0
ffffffff8000765c:	87d6                	mv	a5,s5
ffffffff8000765e:	00000097          	auipc	ra,0x0
ffffffff80007662:	324080e7          	jalr	804(ra) # ffffffff80007982 <_ntoa_format>
ffffffff80007666:	b42d                	j	ffffffff80007090 <.LBB0_7+0x8>
ffffffff80007668:	03081513          	slli	a0,a6,0x30
ffffffff8000766c:	43055813          	srai	a6,a0,0x30
ffffffff80007670:	ea0811e3          	bnez	a6,ffffffff80007512 <.LBB0_121+0x32>
ffffffff80007674:	b945                	j	ffffffff80007324 <.LBB0_65+0x50>
ffffffff80007676:	f7043503          	ld	a0,-144(s0)
ffffffff8000767a:	00054503          	lbu	a0,0(a0)
ffffffff8000767e:	d131                	beqz	a0,ffffffff800075c2 <.LBB0_121+0xe2>
ffffffff80007680:	e911                	bnez	a0,ffffffff80007694 <.LBB0_121+0x1b4>
ffffffff80007682:	0208f593          	andi	a1,a7,32
ffffffff80007686:	c599                	beqz	a1,ffffffff80007694 <.LBB0_121+0x1b4>
ffffffff80007688:	4601                	li	a2,0
ffffffff8000768a:	f7840593          	addi	a1,s0,-136
ffffffff8000768e:	8552                	mv	a0,s4
ffffffff80007690:	4681                	li	a3,0
ffffffff80007692:	b2e9                	j	ffffffff8000705c <_vsnprintf_internal+0x62>
ffffffff80007694:	4481                	li	s1,0
ffffffff80007696:	1502                	slli	a0,a0,0x20
ffffffff80007698:	9101                	srli	a0,a0,0x20
ffffffff8000769a:	86aa                	mv	a3,a0
ffffffff8000769c:	02e55533          	divu	a0,a0,a4
ffffffff800076a0:	02e50633          	mul	a2,a0,a4
ffffffff800076a4:	40c68633          	sub	a2,a3,a2
ffffffff800076a8:	0fe67793          	andi	a5,a2,254
ffffffff800076ac:	0167e563          	bltu	a5,s6,ffffffff800076b6 <.LBB0_121+0x1d6>
ffffffff800076b0:	03760793          	addi	a5,a2,55
ffffffff800076b4:	a019                	j	ffffffff800076ba <.LBB0_121+0x1da>
ffffffff800076b6:	03066793          	ori	a5,a2,48
ffffffff800076ba:	00148613          	addi	a2,s1,1
ffffffff800076be:	009285b3          	add	a1,t0,s1
ffffffff800076c2:	00f58023          	sb	a5,0(a1)
ffffffff800076c6:	fc9362e3          	bltu	t1,s1,ffffffff8000768a <.LBB0_121+0x1aa>
ffffffff800076ca:	84b2                	mv	s1,a2
ffffffff800076cc:	fce6f7e3          	bgeu	a3,a4,ffffffff8000769a <.LBB0_121+0x1ba>
ffffffff800076d0:	bf6d                	j	ffffffff8000768a <.LBB0_121+0x1aa>
ffffffff800076d2:	0685                	addi	a3,a3,1
ffffffff800076d4:	f4d43823          	sd	a3,-176(s0)
ffffffff800076d8:	c59d                	beqz	a1,ffffffff80007706 <.LBB0_121+0x226>
ffffffff800076da:	0905                	addi	s2,s2,1
ffffffff800076dc:	a831                	j	ffffffff800076f8 <.LBB0_121+0x218>
ffffffff800076de:	000a3603          	ld	a2,0(s4)
ffffffff800076e2:	0ff5f593          	zext.b	a1,a1
ffffffff800076e6:	8552                	mv	a0,s4
ffffffff800076e8:	9602                	jalr	a2
ffffffff800076ea:	00094583          	lbu	a1,0(s2)
ffffffff800076ee:	0905                	addi	s2,s2,1
ffffffff800076f0:	f7840293          	addi	t0,s0,-136
ffffffff800076f4:	4379                	li	t1,30
ffffffff800076f6:	c981                	beqz	a1,ffffffff80007706 <.LBB0_121+0x226>
ffffffff800076f8:	fe0d03e3          	beqz	s10,ffffffff800076de <.LBB0_121+0x1fe>
ffffffff800076fc:	000a851b          	sext.w	a0,s5
ffffffff80007700:	c119                	beqz	a0,ffffffff80007706 <.LBB0_121+0x226>
ffffffff80007702:	1afd                	addi	s5,s5,-1
ffffffff80007704:	bfe9                	j	ffffffff800076de <.LBB0_121+0x1fe>
ffffffff80007706:	f7043503          	ld	a0,-144(s0)
ffffffff8000770a:	0521                	addi	a0,a0,8
ffffffff8000770c:	f6a43823          	sd	a0,-144(s0)
ffffffff80007710:	f5843503          	ld	a0,-168(s0)
ffffffff80007714:	c91d                	beqz	a0,ffffffff8000774a <.LBB0_121+0x26a>
ffffffff80007716:	f5043583          	ld	a1,-176(s0)
ffffffff8000771a:	0005851b          	sext.w	a0,a1
ffffffff8000771e:	f6043903          	ld	s2,-160(s0)
ffffffff80007722:	02500d13          	li	s10,37
ffffffff80007726:	979578e3          	bgeu	a0,s9,ffffffff80007096 <.LBB0_7+0xe>
ffffffff8000772a:	40bc84bb          	subw	s1,s9,a1
ffffffff8000772e:	000a3603          	ld	a2,0(s4)
ffffffff80007732:	02000593          	li	a1,32
ffffffff80007736:	8552                	mv	a0,s4
ffffffff80007738:	9602                	jalr	a2
ffffffff8000773a:	34fd                	addiw	s1,s1,-1
ffffffff8000773c:	f8ed                	bnez	s1,ffffffff8000772e <.LBB0_121+0x24e>
ffffffff8000773e:	44a5                	li	s1,9
ffffffff80007740:	f7840293          	addi	t0,s0,-136
ffffffff80007744:	4379                	li	t1,30
ffffffff80007746:	0985                	addi	s3,s3,1
ffffffff80007748:	ba15                	j	ffffffff8000707c <_vsnprintf_internal+0x82>
ffffffff8000774a:	f6043903          	ld	s2,-160(s0)
ffffffff8000774e:	02500d13          	li	s10,37
ffffffff80007752:	0985                	addi	s3,s3,1
ffffffff80007754:	b225                	j	ffffffff8000707c <_vsnprintf_internal+0x82>
ffffffff80007756:	000a3603          	ld	a2,0(s4)
ffffffff8000775a:	8552                	mv	a0,s4
ffffffff8000775c:	9602                	jalr	a2
ffffffff8000775e:	010a2503          	lw	a0,16(s4)
ffffffff80007762:	70aa                	ld	ra,168(sp)
ffffffff80007764:	740a                	ld	s0,160(sp)
ffffffff80007766:	64ea                	ld	s1,152(sp)
ffffffff80007768:	694a                	ld	s2,144(sp)
ffffffff8000776a:	69aa                	ld	s3,136(sp)
ffffffff8000776c:	6a0a                	ld	s4,128(sp)
ffffffff8000776e:	7ae6                	ld	s5,120(sp)
ffffffff80007770:	7b46                	ld	s6,112(sp)
ffffffff80007772:	7ba6                	ld	s7,104(sp)
ffffffff80007774:	7c06                	ld	s8,96(sp)
ffffffff80007776:	6ce6                	ld	s9,88(sp)
ffffffff80007778:	6d46                	ld	s10,80(sp)
ffffffff8000777a:	6da6                	ld	s11,72(sp)
ffffffff8000777c:	614d                	addi	sp,sp,176
ffffffff8000777e:	8082                	ret

ffffffff80007780 <printf_write_char_str>:
ffffffff80007780:	6510                	ld	a2,8(a0)
ffffffff80007782:	c611                	beqz	a2,ffffffff8000778e <printf_write_char_str+0xe>
ffffffff80007784:	6d18                	ld	a4,24(a0)
ffffffff80007786:	6914                	ld	a3,16(a0)
ffffffff80007788:	c701                	beqz	a4,ffffffff80007790 <printf_write_char_str+0x10>
ffffffff8000778a:	00d76363          	bltu	a4,a3,ffffffff80007790 <printf_write_char_str+0x10>
ffffffff8000778e:	8082                	ret
ffffffff80007790:	1141                	addi	sp,sp,-16
ffffffff80007792:	e406                	sd	ra,8(sp)
ffffffff80007794:	e022                	sd	s0,0(sp)
ffffffff80007796:	0800                	addi	s0,sp,16
ffffffff80007798:	9636                	add	a2,a2,a3
ffffffff8000779a:	00b60023          	sb	a1,0(a2)
ffffffff8000779e:	690c                	ld	a1,16(a0)
ffffffff800077a0:	0585                	addi	a1,a1,1
ffffffff800077a2:	e90c                	sd	a1,16(a0)
ffffffff800077a4:	60a2                	ld	ra,8(sp)
ffffffff800077a6:	6402                	ld	s0,0(sp)
ffffffff800077a8:	0141                	addi	sp,sp,16
ffffffff800077aa:	8082                	ret

ffffffff800077ac <sprintf>:
ffffffff800077ac:	7119                	addi	sp,sp,-128
ffffffff800077ae:	e486                	sd	ra,72(sp)
ffffffff800077b0:	e0a2                	sd	s0,64(sp)
ffffffff800077b2:	fc26                	sd	s1,56(sp)
ffffffff800077b4:	f84a                	sd	s2,48(sp)
ffffffff800077b6:	f44e                	sd	s3,40(sp)
ffffffff800077b8:	0880                	addi	s0,sp,80
ffffffff800077ba:	892e                	mv	s2,a1
ffffffff800077bc:	03143423          	sd	a7,40(s0)
ffffffff800077c0:	03043023          	sd	a6,32(s0)
ffffffff800077c4:	ec1c                	sd	a5,24(s0)
ffffffff800077c6:	e818                	sd	a4,16(s0)
ffffffff800077c8:	e414                	sd	a3,8(s0)
ffffffff800077ca:	e010                	sd	a2,0(s0)
ffffffff800077cc:	85a2                	mv	a1,s0
ffffffff800077ce:	fcb43823          	sd	a1,-48(s0)
ffffffff800077d2:	fc043423          	sd	zero,-56(s0)
ffffffff800077d6:	fc043023          	sd	zero,-64(s0)
ffffffff800077da:	800075b7          	lui	a1,0x80007
ffffffff800077de:	78058593          	addi	a1,a1,1920 # ffffffff80007780 <printf_write_char_str>
ffffffff800077e2:	fab43823          	sd	a1,-80(s0)
ffffffff800077e6:	faa43c23          	sd	a0,-72(s0)
ffffffff800077ea:	80009537          	lui	a0,0x80009
ffffffff800077ee:	0a050993          	addi	s3,a0,160 # ffffffff800090a0 <PrintLock>
ffffffff800077f2:	80008537          	lui	a0,0x80008
ffffffff800077f6:	6a950593          	addi	a1,a0,1705 # ffffffff800086a9 <$d.3>
ffffffff800077fa:	80008537          	lui	a0,0x80008
ffffffff800077fe:	14850613          	addi	a2,a0,328 # ffffffff80008148 <$d.2+0x22>
ffffffff80007802:	80008537          	lui	a0,0x80008
ffffffff80007806:	36150693          	addi	a3,a0,865 # ffffffff80008361 <$d.1+0x33>
ffffffff8000780a:	16b00713          	li	a4,363
ffffffff8000780e:	854e                	mv	a0,s3
ffffffff80007810:	ffffa097          	auipc	ra,0xffffa
ffffffff80007814:	c14080e7          	jalr	-1004(ra) # ffffffff80001424 <spinlock_lock_debug>
ffffffff80007818:	fd043603          	ld	a2,-48(s0)
ffffffff8000781c:	fb040513          	addi	a0,s0,-80
ffffffff80007820:	85ca                	mv	a1,s2
ffffffff80007822:	fffff097          	auipc	ra,0xfffff
ffffffff80007826:	7d8080e7          	jalr	2008(ra) # ffffffff80006ffa <_vsnprintf_internal>
ffffffff8000782a:	84aa                	mv	s1,a0
ffffffff8000782c:	854e                	mv	a0,s3
ffffffff8000782e:	ffffb097          	auipc	ra,0xffffb
ffffffff80007832:	99a080e7          	jalr	-1638(ra) # ffffffff800021c8 <spinlock_unlock>
ffffffff80007836:	8526                	mv	a0,s1
ffffffff80007838:	60a6                	ld	ra,72(sp)
ffffffff8000783a:	6406                	ld	s0,64(sp)
ffffffff8000783c:	74e2                	ld	s1,56(sp)
ffffffff8000783e:	7942                	ld	s2,48(sp)
ffffffff80007840:	79a2                	ld	s3,40(sp)
ffffffff80007842:	6109                	addi	sp,sp,128
ffffffff80007844:	8082                	ret

ffffffff80007846 <printf>:
ffffffff80007846:	7175                	addi	sp,sp,-144
ffffffff80007848:	e486                	sd	ra,72(sp)
ffffffff8000784a:	e0a2                	sd	s0,64(sp)
ffffffff8000784c:	fc26                	sd	s1,56(sp)
ffffffff8000784e:	f84a                	sd	s2,48(sp)
ffffffff80007850:	f44e                	sd	s3,40(sp)
ffffffff80007852:	0880                	addi	s0,sp,80
ffffffff80007854:	892a                	mv	s2,a0
ffffffff80007856:	03143c23          	sd	a7,56(s0)
ffffffff8000785a:	03043823          	sd	a6,48(s0)
ffffffff8000785e:	f41c                	sd	a5,40(s0)
ffffffff80007860:	f018                	sd	a4,32(s0)
ffffffff80007862:	ec14                	sd	a3,24(s0)
ffffffff80007864:	e810                	sd	a2,16(s0)
ffffffff80007866:	e40c                	sd	a1,8(s0)
ffffffff80007868:	00840513          	addi	a0,s0,8
ffffffff8000786c:	fca43823          	sd	a0,-48(s0)
ffffffff80007870:	fc043423          	sd	zero,-56(s0)
ffffffff80007874:	fc043023          	sd	zero,-64(s0)
ffffffff80007878:	fa043c23          	sd	zero,-72(s0)
ffffffff8000787c:	80000537          	lui	a0,0x80000
ffffffff80007880:	04850513          	addi	a0,a0,72 # ffffffff80000048 <arch_debug_printf_function>
ffffffff80007884:	faa43823          	sd	a0,-80(s0)
ffffffff80007888:	80009537          	lui	a0,0x80009
ffffffff8000788c:	0a050993          	addi	s3,a0,160 # ffffffff800090a0 <PrintLock>
ffffffff80007890:	80008537          	lui	a0,0x80008
ffffffff80007894:	6a950593          	addi	a1,a0,1705 # ffffffff800086a9 <$d.3>
ffffffff80007898:	80008537          	lui	a0,0x80008
ffffffff8000789c:	71850613          	addi	a2,a0,1816 # ffffffff80008718 <$d.2+0x13>
ffffffff800078a0:	80008537          	lui	a0,0x80008
ffffffff800078a4:	36150693          	addi	a3,a0,865 # ffffffff80008361 <$d.1+0x33>
ffffffff800078a8:	17b00713          	li	a4,379
ffffffff800078ac:	854e                	mv	a0,s3
ffffffff800078ae:	ffffa097          	auipc	ra,0xffffa
ffffffff800078b2:	b76080e7          	jalr	-1162(ra) # ffffffff80001424 <spinlock_lock_debug>
ffffffff800078b6:	fd043603          	ld	a2,-48(s0)
ffffffff800078ba:	fb040513          	addi	a0,s0,-80
ffffffff800078be:	85ca                	mv	a1,s2
ffffffff800078c0:	fffff097          	auipc	ra,0xfffff
ffffffff800078c4:	73a080e7          	jalr	1850(ra) # ffffffff80006ffa <_vsnprintf_internal>
ffffffff800078c8:	84aa                	mv	s1,a0
ffffffff800078ca:	854e                	mv	a0,s3
ffffffff800078cc:	ffffb097          	auipc	ra,0xffffb
ffffffff800078d0:	8fc080e7          	jalr	-1796(ra) # ffffffff800021c8 <spinlock_unlock>
ffffffff800078d4:	8526                	mv	a0,s1
ffffffff800078d6:	60a6                	ld	ra,72(sp)
ffffffff800078d8:	6406                	ld	s0,64(sp)
ffffffff800078da:	74e2                	ld	s1,56(sp)
ffffffff800078dc:	7942                	ld	s2,48(sp)
ffffffff800078de:	79a2                	ld	s3,40(sp)
ffffffff800078e0:	6149                	addi	sp,sp,144
ffffffff800078e2:	8082                	ret

ffffffff800078e4 <printf_scheduler>:
ffffffff800078e4:	7175                	addi	sp,sp,-144
ffffffff800078e6:	e486                	sd	ra,72(sp)
ffffffff800078e8:	e0a2                	sd	s0,64(sp)
ffffffff800078ea:	fc26                	sd	s1,56(sp)
ffffffff800078ec:	f84a                	sd	s2,48(sp)
ffffffff800078ee:	f44e                	sd	s3,40(sp)
ffffffff800078f0:	0880                	addi	s0,sp,80
ffffffff800078f2:	892a                	mv	s2,a0
ffffffff800078f4:	03143c23          	sd	a7,56(s0)
ffffffff800078f8:	03043823          	sd	a6,48(s0)
ffffffff800078fc:	f41c                	sd	a5,40(s0)
ffffffff800078fe:	f018                	sd	a4,32(s0)
ffffffff80007900:	ec14                	sd	a3,24(s0)
ffffffff80007902:	e810                	sd	a2,16(s0)
ffffffff80007904:	e40c                	sd	a1,8(s0)
ffffffff80007906:	00840513          	addi	a0,s0,8
ffffffff8000790a:	fca43823          	sd	a0,-48(s0)
ffffffff8000790e:	fc043423          	sd	zero,-56(s0)
ffffffff80007912:	fc043023          	sd	zero,-64(s0)
ffffffff80007916:	fa043c23          	sd	zero,-72(s0)
ffffffff8000791a:	80000537          	lui	a0,0x80000
ffffffff8000791e:	04850513          	addi	a0,a0,72 # ffffffff80000048 <arch_debug_printf_function>
ffffffff80007922:	faa43823          	sd	a0,-80(s0)
ffffffff80007926:	80009537          	lui	a0,0x80009
ffffffff8000792a:	0c850993          	addi	s3,a0,200 # ffffffff800090c8 <PrintLock2>
ffffffff8000792e:	80008537          	lui	a0,0x80008
ffffffff80007932:	6a950593          	addi	a1,a0,1705 # ffffffff800086a9 <$d.3>
ffffffff80007936:	80008537          	lui	a0,0x80008
ffffffff8000793a:	54350613          	addi	a2,a0,1347 # ffffffff80008543 <$d.1+0x34>
ffffffff8000793e:	80008537          	lui	a0,0x80008
ffffffff80007942:	36c50693          	addi	a3,a0,876 # ffffffff8000836c <$d.1+0x3e>
ffffffff80007946:	18b00713          	li	a4,395
ffffffff8000794a:	854e                	mv	a0,s3
ffffffff8000794c:	ffffa097          	auipc	ra,0xffffa
ffffffff80007950:	ad8080e7          	jalr	-1320(ra) # ffffffff80001424 <spinlock_lock_debug>
ffffffff80007954:	fd043603          	ld	a2,-48(s0)
ffffffff80007958:	fb040513          	addi	a0,s0,-80
ffffffff8000795c:	85ca                	mv	a1,s2
ffffffff8000795e:	fffff097          	auipc	ra,0xfffff
ffffffff80007962:	69c080e7          	jalr	1692(ra) # ffffffff80006ffa <_vsnprintf_internal>
ffffffff80007966:	84aa                	mv	s1,a0
ffffffff80007968:	854e                	mv	a0,s3
ffffffff8000796a:	ffffb097          	auipc	ra,0xffffb
ffffffff8000796e:	85e080e7          	jalr	-1954(ra) # ffffffff800021c8 <spinlock_unlock>
ffffffff80007972:	8526                	mv	a0,s1
ffffffff80007974:	60a6                	ld	ra,72(sp)
ffffffff80007976:	6406                	ld	s0,64(sp)
ffffffff80007978:	74e2                	ld	s1,56(sp)
ffffffff8000797a:	7942                	ld	s2,48(sp)
ffffffff8000797c:	79a2                	ld	s3,40(sp)
ffffffff8000797e:	6149                	addi	sp,sp,144
ffffffff80007980:	8082                	ret

ffffffff80007982 <_ntoa_format>:
ffffffff80007982:	715d                	addi	sp,sp,-80
ffffffff80007984:	e486                	sd	ra,72(sp)
ffffffff80007986:	e0a2                	sd	s0,64(sp)
ffffffff80007988:	fc26                	sd	s1,56(sp)
ffffffff8000798a:	f84a                	sd	s2,48(sp)
ffffffff8000798c:	f44e                	sd	s3,40(sp)
ffffffff8000798e:	f052                	sd	s4,32(sp)
ffffffff80007990:	ec56                	sd	s5,24(sp)
ffffffff80007992:	e85a                	sd	s6,16(sp)
ffffffff80007994:	e45e                	sd	s7,8(sp)
ffffffff80007996:	0880                	addi	s0,sp,80
ffffffff80007998:	0018fa13          	andi	s4,a7,1
ffffffff8000799c:	8942                	mv	s2,a6
ffffffff8000799e:	89b2                	mv	s3,a2
ffffffff800079a0:	8aaa                	mv	s5,a0
ffffffff800079a2:	020a1a63          	bnez	s4,ffffffff800079d6 <_ntoa_format+0x54>
ffffffff800079a6:	84be                	mv	s1,a5
ffffffff800079a8:	0108f813          	andi	a6,a7,16
ffffffff800079ac:	00090b63          	beqz	s2,ffffffff800079c2 <_ntoa_format+0x40>
ffffffff800079b0:	00080963          	beqz	a6,ffffffff800079c2 <_ntoa_format+0x40>
ffffffff800079b4:	0068f513          	andi	a0,a7,6
ffffffff800079b8:	00a03533          	snez	a0,a0
ffffffff800079bc:	8d55                	or	a0,a0,a3
ffffffff800079be:	40a9093b          	subw	s2,s2,a0
ffffffff800079c2:	02000513          	li	a0,32
ffffffff800079c6:	04a4ed63          	bltu	s1,a0,ffffffff80007a20 <_ntoa_format+0x9e>
ffffffff800079ca:	02000493          	li	s1,32
ffffffff800079ce:	0499eb63          	bltu	s3,s1,ffffffff80007a24 <_ntoa_format+0xa2>
ffffffff800079d2:	06081663          	bnez	a6,ffffffff80007a3e <_ntoa_format+0xbc>
ffffffff800079d6:	0088f513          	andi	a0,a7,8
ffffffff800079da:	c97d                	beqz	a0,ffffffff80007ad0 <_ntoa_format+0x14e>
ffffffff800079dc:	0208f513          	andi	a0,a7,32
ffffffff800079e0:	ed01                	bnez	a0,ffffffff800079f8 <_ntoa_format+0x76>
ffffffff800079e2:	00098b63          	beqz	s3,ffffffff800079f8 <_ntoa_format+0x76>
ffffffff800079e6:	1782                	slli	a5,a5,0x20
ffffffff800079e8:	9381                	srli	a5,a5,0x20
ffffffff800079ea:	08f98c63          	beq	s3,a5,ffffffff80007a82 <_ntoa_format+0x100>
ffffffff800079ee:	02091513          	slli	a0,s2,0x20
ffffffff800079f2:	9101                	srli	a0,a0,0x20
ffffffff800079f4:	08a98763          	beq	s3,a0,ffffffff80007a82 <_ntoa_format+0x100>
ffffffff800079f8:	4541                	li	a0,16
ffffffff800079fa:	0aa71463          	bne	a4,a0,ffffffff80007aa2 <_ntoa_format+0x120>
ffffffff800079fe:	4008f613          	andi	a2,a7,1024
ffffffff80007a02:	e619                	bnez	a2,ffffffff80007a10 <_ntoa_format+0x8e>
ffffffff80007a04:	02000713          	li	a4,32
ffffffff80007a08:	07800513          	li	a0,120
ffffffff80007a0c:	0ae9e363          	bltu	s3,a4,ffffffff80007ab2 <_ntoa_format+0x130>
ffffffff80007a10:	c655                	beqz	a2,ffffffff80007abc <_ntoa_format+0x13a>
ffffffff80007a12:	02000613          	li	a2,32
ffffffff80007a16:	05800513          	li	a0,88
ffffffff80007a1a:	08c9ec63          	bltu	s3,a2,ffffffff80007ab2 <_ntoa_format+0x130>
ffffffff80007a1e:	a879                	j	ffffffff80007abc <_ntoa_format+0x13a>
ffffffff80007a20:	fa99f9e3          	bgeu	s3,s1,ffffffff800079d2 <_ntoa_format+0x50>
ffffffff80007a24:	99ae                	add	s3,s3,a1
ffffffff80007a26:	00958633          	add	a2,a1,s1
ffffffff80007a2a:	03000513          	li	a0,48
ffffffff80007a2e:	00a98023          	sb	a0,0(s3)
ffffffff80007a32:	0985                	addi	s3,s3,1
ffffffff80007a34:	fec99de3          	bne	s3,a2,ffffffff80007a2e <_ntoa_format+0xac>
ffffffff80007a38:	89a6                	mv	s3,s1
ffffffff80007a3a:	f8080ee3          	beqz	a6,ffffffff800079d6 <_ntoa_format+0x54>
ffffffff80007a3e:	02000513          	li	a0,32
ffffffff80007a42:	864a                	mv	a2,s2
ffffffff80007a44:	00a96a63          	bltu	s2,a0,ffffffff80007a58 <_ntoa_format+0xd6>
ffffffff80007a48:	02000613          	li	a2,32
ffffffff80007a4c:	854e                	mv	a0,s3
ffffffff80007a4e:	01367863          	bgeu	a2,s3,ffffffff80007a5e <_ntoa_format+0xdc>
ffffffff80007a52:	00c9e963          	bltu	s3,a2,ffffffff80007a64 <_ntoa_format+0xe2>
ffffffff80007a56:	a00d                	j	ffffffff80007a78 <_ntoa_format+0xf6>
ffffffff80007a58:	854e                	mv	a0,s3
ffffffff80007a5a:	ff366ce3          	bltu	a2,s3,ffffffff80007a52 <_ntoa_format+0xd0>
ffffffff80007a5e:	8532                	mv	a0,a2
ffffffff80007a60:	00c9fc63          	bgeu	s3,a2,ffffffff80007a78 <_ntoa_format+0xf6>
ffffffff80007a64:	41350633          	sub	a2,a0,s3
ffffffff80007a68:	99ae                	add	s3,s3,a1
ffffffff80007a6a:	03000493          	li	s1,48
ffffffff80007a6e:	00998023          	sb	s1,0(s3)
ffffffff80007a72:	167d                	addi	a2,a2,-1
ffffffff80007a74:	0985                	addi	s3,s3,1
ffffffff80007a76:	fe65                	bnez	a2,ffffffff80007a6e <_ntoa_format+0xec>
ffffffff80007a78:	89aa                	mv	s3,a0
ffffffff80007a7a:	0088f513          	andi	a0,a7,8
ffffffff80007a7e:	fd39                	bnez	a0,ffffffff800079dc <_ntoa_format+0x5a>
ffffffff80007a80:	a881                	j	ffffffff80007ad0 <_ntoa_format+0x14e>
ffffffff80007a82:	fff98513          	addi	a0,s3,-1
ffffffff80007a86:	00a03633          	snez	a2,a0
ffffffff80007a8a:	ff070793          	addi	a5,a4,-16
ffffffff80007a8e:	0017b793          	seqz	a5,a5
ffffffff80007a92:	8e7d                	and	a2,a2,a5
ffffffff80007a94:	c219                	beqz	a2,ffffffff80007a9a <_ntoa_format+0x118>
ffffffff80007a96:	ffe98513          	addi	a0,s3,-2
ffffffff80007a9a:	89aa                	mv	s3,a0
ffffffff80007a9c:	4541                	li	a0,16
ffffffff80007a9e:	f6a700e3          	beq	a4,a0,ffffffff800079fe <_ntoa_format+0x7c>
ffffffff80007aa2:	4509                	li	a0,2
ffffffff80007aa4:	00a71c63          	bne	a4,a0,ffffffff80007abc <_ntoa_format+0x13a>
ffffffff80007aa8:	467d                	li	a2,31
ffffffff80007aaa:	06200513          	li	a0,98
ffffffff80007aae:	01366763          	bltu	a2,s3,ffffffff80007abc <_ntoa_format+0x13a>
ffffffff80007ab2:	01358633          	add	a2,a1,s3
ffffffff80007ab6:	0985                	addi	s3,s3,1
ffffffff80007ab8:	00a60023          	sb	a0,0(a2)
ffffffff80007abc:	457d                	li	a0,31
ffffffff80007abe:	03356e63          	bltu	a0,s3,ffffffff80007afa <_ntoa_format+0x178>
ffffffff80007ac2:	01358533          	add	a0,a1,s3
ffffffff80007ac6:	0985                	addi	s3,s3,1
ffffffff80007ac8:	03000613          	li	a2,48
ffffffff80007acc:	00c50023          	sb	a2,0(a0)
ffffffff80007ad0:	457d                	li	a0,31
ffffffff80007ad2:	03356463          	bltu	a0,s3,ffffffff80007afa <_ntoa_format+0x178>
ffffffff80007ad6:	02d00513          	li	a0,45
ffffffff80007ada:	ea99                	bnez	a3,ffffffff80007af0 <_ntoa_format+0x16e>
ffffffff80007adc:	0028f613          	andi	a2,a7,2
ffffffff80007ae0:	02b00513          	li	a0,43
ffffffff80007ae4:	e611                	bnez	a2,ffffffff80007af0 <_ntoa_format+0x16e>
ffffffff80007ae6:	0048f613          	andi	a2,a7,4
ffffffff80007aea:	02000513          	li	a0,32
ffffffff80007aee:	c611                	beqz	a2,ffffffff80007afa <_ntoa_format+0x178>
ffffffff80007af0:	01358633          	add	a2,a1,s3
ffffffff80007af4:	0985                	addi	s3,s3,1
ffffffff80007af6:	00a60023          	sb	a0,0(a2)
ffffffff80007afa:	0118f513          	andi	a0,a7,17
ffffffff80007afe:	e515                	bnez	a0,ffffffff80007b2a <_ntoa_format+0x1a8>
ffffffff80007b00:	02091513          	slli	a0,s2,0x20
ffffffff80007b04:	9101                	srli	a0,a0,0x20
ffffffff80007b06:	02a9f263          	bgeu	s3,a0,ffffffff80007b2a <_ntoa_format+0x1a8>
ffffffff80007b0a:	8b2e                	mv	s6,a1
ffffffff80007b0c:	41350bb3          	sub	s7,a0,s3
ffffffff80007b10:	84de                	mv	s1,s7
ffffffff80007b12:	000ab603          	ld	a2,0(s5)
ffffffff80007b16:	02000593          	li	a1,32
ffffffff80007b1a:	8556                	mv	a0,s5
ffffffff80007b1c:	9602                	jalr	a2
ffffffff80007b1e:	14fd                	addi	s1,s1,-1
ffffffff80007b20:	f8ed                	bnez	s1,ffffffff80007b12 <_ntoa_format+0x190>
ffffffff80007b22:	85da                	mv	a1,s6
ffffffff80007b24:	00099663          	bnez	s3,ffffffff80007b30 <_ntoa_format+0x1ae>
ffffffff80007b28:	a025                	j	ffffffff80007b50 <_ntoa_format+0x1ce>
ffffffff80007b2a:	4b81                	li	s7,0
ffffffff80007b2c:	02098263          	beqz	s3,ffffffff80007b50 <_ntoa_format+0x1ce>
ffffffff80007b30:	fff58b13          	addi	s6,a1,-1
ffffffff80007b34:	854e                	mv	a0,s3
ffffffff80007b36:	000ab603          	ld	a2,0(s5)
ffffffff80007b3a:	00ab05b3          	add	a1,s6,a0
ffffffff80007b3e:	0005c583          	lbu	a1,0(a1)
ffffffff80007b42:	fff50493          	addi	s1,a0,-1
ffffffff80007b46:	8556                	mv	a0,s5
ffffffff80007b48:	9602                	jalr	a2
ffffffff80007b4a:	8526                	mv	a0,s1
ffffffff80007b4c:	f4ed                	bnez	s1,ffffffff80007b36 <_ntoa_format+0x1b4>
ffffffff80007b4e:	9bce                	add	s7,s7,s3
ffffffff80007b50:	020a0063          	beqz	s4,ffffffff80007b70 <_ntoa_format+0x1ee>
ffffffff80007b54:	1902                	slli	s2,s2,0x20
ffffffff80007b56:	02095913          	srli	s2,s2,0x20
ffffffff80007b5a:	012bfb63          	bgeu	s7,s2,ffffffff80007b70 <_ntoa_format+0x1ee>
ffffffff80007b5e:	000ab603          	ld	a2,0(s5)
ffffffff80007b62:	02000593          	li	a1,32
ffffffff80007b66:	8556                	mv	a0,s5
ffffffff80007b68:	9602                	jalr	a2
ffffffff80007b6a:	0b85                	addi	s7,s7,1 # 10001 <$d.3+0x52b3>
ffffffff80007b6c:	ff2be9e3          	bltu	s7,s2,ffffffff80007b5e <_ntoa_format+0x1dc>
ffffffff80007b70:	60a6                	ld	ra,72(sp)
ffffffff80007b72:	6406                	ld	s0,64(sp)
ffffffff80007b74:	74e2                	ld	s1,56(sp)
ffffffff80007b76:	7942                	ld	s2,48(sp)
ffffffff80007b78:	79a2                	ld	s3,40(sp)
ffffffff80007b7a:	7a02                	ld	s4,32(sp)
ffffffff80007b7c:	6ae2                	ld	s5,24(sp)
ffffffff80007b7e:	6b42                	ld	s6,16(sp)
ffffffff80007b80:	6ba2                	ld	s7,8(sp)
ffffffff80007b82:	6161                	addi	sp,sp,80
ffffffff80007b84:	8082                	ret

ffffffff80007b86 <be32>:
ffffffff80007b86:	1141                	addi	sp,sp,-16
ffffffff80007b88:	e406                	sd	ra,8(sp)
ffffffff80007b8a:	e022                	sd	s0,0(sp)
ffffffff80007b8c:	0800                	addi	s0,sp,16
ffffffff80007b8e:	00855593          	srli	a1,a0,0x8
ffffffff80007b92:	6641                	lui	a2,0x10
ffffffff80007b94:	f006061b          	addiw	a2,a2,-256 # ff00 <$d.3+0x51b2>
ffffffff80007b98:	8df1                	and	a1,a1,a2
ffffffff80007b9a:	0185569b          	srliw	a3,a0,0x18
ffffffff80007b9e:	8dd5                	or	a1,a1,a3
ffffffff80007ba0:	8e69                	and	a2,a2,a0
ffffffff80007ba2:	0622                	slli	a2,a2,0x8
ffffffff80007ba4:	0185151b          	slliw	a0,a0,0x18
ffffffff80007ba8:	8d51                	or	a0,a0,a2
ffffffff80007baa:	8d4d                	or	a0,a0,a1
ffffffff80007bac:	60a2                	ld	ra,8(sp)
ffffffff80007bae:	6402                	ld	s0,0(sp)
ffffffff80007bb0:	0141                	addi	sp,sp,16
ffffffff80007bb2:	8082                	ret

ffffffff80007bb4 <be64>:
ffffffff80007bb4:	1141                	addi	sp,sp,-16
ffffffff80007bb6:	e406                	sd	ra,8(sp)
ffffffff80007bb8:	e022                	sd	s0,0(sp)
ffffffff80007bba:	0800                	addi	s0,sp,16
ffffffff80007bbc:	02855593          	srli	a1,a0,0x28
ffffffff80007bc0:	6641                	lui	a2,0x10
ffffffff80007bc2:	f006061b          	addiw	a2,a2,-256 # ff00 <$d.3+0x51b2>
ffffffff80007bc6:	8df1                	and	a1,a1,a2
ffffffff80007bc8:	03855693          	srli	a3,a0,0x38
ffffffff80007bcc:	8dd5                	or	a1,a1,a3
ffffffff80007bce:	01855693          	srli	a3,a0,0x18
ffffffff80007bd2:	00ff0737          	lui	a4,0xff0
ffffffff80007bd6:	8ef9                	and	a3,a3,a4
ffffffff80007bd8:	00855793          	srli	a5,a0,0x8
ffffffff80007bdc:	0187d79b          	srliw	a5,a5,0x18
ffffffff80007be0:	07e2                	slli	a5,a5,0x18
ffffffff80007be2:	8edd                	or	a3,a3,a5
ffffffff80007be4:	8dd5                	or	a1,a1,a3
ffffffff80007be6:	8f69                	and	a4,a4,a0
ffffffff80007be8:	0762                	slli	a4,a4,0x18
ffffffff80007bea:	0185569b          	srliw	a3,a0,0x18
ffffffff80007bee:	1682                	slli	a3,a3,0x20
ffffffff80007bf0:	8ed9                	or	a3,a3,a4
ffffffff80007bf2:	8e69                	and	a2,a2,a0
ffffffff80007bf4:	1622                	slli	a2,a2,0x28
ffffffff80007bf6:	1562                	slli	a0,a0,0x38
ffffffff80007bf8:	8d51                	or	a0,a0,a2
ffffffff80007bfa:	8d55                	or	a0,a0,a3
ffffffff80007bfc:	8d4d                	or	a0,a0,a1
ffffffff80007bfe:	60a2                	ld	ra,8(sp)
ffffffff80007c00:	6402                	ld	s0,0(sp)
ffffffff80007c02:	0141                	addi	sp,sp,16
ffffffff80007c04:	8082                	ret
